
CH582M.elf:     file format elf32-littleriscv
CH582M.elf
architecture: riscv:rv32, flags 0x00000112:
EXEC_P, HAS_SYMS, D_PAGED
start address 0x00000000

Program Header:
    LOAD off    0x00001000 vaddr 0x00000000 paddr 0x00000000 align 2**12
         filesz 0x00000004 memsz 0x00000004 flags r-x
    LOAD off    0x00002000 vaddr 0x20000000 paddr 0x00000004 align 2**12
         filesz 0x00002664 memsz 0x00002664 flags r-x
    LOAD off    0x00004668 vaddr 0x00002668 paddr 0x00002668 align 2**12
         filesz 0x00010b00 memsz 0x00010b00 flags r-x
    LOAD off    0x00015664 vaddr 0x20002664 paddr 0x00013168 align 2**12
         filesz 0x0000001c memsz 0x00000024 flags rw-
    LOAD off    0x00015e00 vaddr 0x20007e00 paddr 0x20007e00 align 2**12
         filesz 0x00000000 memsz 0x00000200 flags rw-

Sections:
Idx Name            Size      VMA       LMA       File off  Algn  Flags
  0 .init           00000004  00000000  00000000  00001000  2**1  CONTENTS, ALLOC, LOAD, READONLY, CODE
  1 .highcodelalign 00000000  00000004  00000004  00015680  2**0  CONTENTS
  2 .highcode       00002664  20000000  00000004  00002000  2**1  CONTENTS, ALLOC, LOAD, READONLY, CODE
  3 .text           00010b00  00002668  00002668  00004668  2**2  CONTENTS, ALLOC, LOAD, READONLY, CODE
  4 .fini           00000000  00013168  00013168  00015680  2**0  CONTENTS, ALLOC, LOAD, CODE
  5 .dlalign        00000000  00013168  00013168  00015680  2**0  CONTENTS
  6 .data           0000001c  20002664  00013168  00015664  2**2  CONTENTS, ALLOC, LOAD, DATA
  7 .bss            00000008  20002680  00013184  00015680  2**2  ALLOC
  8 .stack          00000200  20007e00  20007e00  00015e00  2**0  ALLOC
  9 .debug_info     0000a383  00000000  00000000  00015680  2**0  CONTENTS, READONLY, DEBUGGING
 10 .debug_abbrev   000017b3  00000000  00000000  0001fa03  2**0  CONTENTS, READONLY, DEBUGGING
 11 .debug_aranges  00000368  00000000  00000000  000211b8  2**3  CONTENTS, READONLY, DEBUGGING
 12 .debug_ranges   000002b8  00000000  00000000  00021520  2**3  CONTENTS, READONLY, DEBUGGING
 13 .debug_line     00006305  00000000  00000000  000217d8  2**0  CONTENTS, READONLY, DEBUGGING
 14 .debug_str      000014a4  00000000  00000000  00027add  2**0  CONTENTS, READONLY, DEBUGGING
 15 .comment        00000033  00000000  00000000  00028f81  2**0  CONTENTS, READONLY
 16 .debug_frame    00000ad0  00000000  00000000  00028fb4  2**2  CONTENTS, READONLY, DEBUGGING
 17 .stabstr        00000117  00000000  00000000  00029a84  2**0  CONTENTS, READONLY, DEBUGGING
SYMBOL TABLE:
00000000 l    d  .init	00000000 .init
00000004 l    d  .highcodelalign	00000000 .highcodelalign
20000000 l    d  .highcode	00000000 .highcode
00002668 l    d  .text	00000000 .text
00013168 l    d  .fini	00000000 .fini
00013168 l    d  .dlalign	00000000 .dlalign
20002664 l    d  .data	00000000 .data
20002680 l    d  .bss	00000000 .bss
20007e00 l    d  .stack	00000000 .stack
00000000 l    d  .debug_info	00000000 .debug_info
00000000 l    d  .debug_abbrev	00000000 .debug_abbrev
00000000 l    d  .debug_aranges	00000000 .debug_aranges
00000000 l    d  .debug_ranges	00000000 .debug_ranges
00000000 l    d  .debug_line	00000000 .debug_line
00000000 l    d  .debug_str	00000000 .debug_str
00000000 l    d  .comment	00000000 .comment
00000000 l    d  .debug_frame	00000000 .debug_frame
00000000 l    d  .stabstr	00000000 .stabstr
00000000 l    df *ABS*	00000000 ./Startup/startup_CH583.o
20000000 l       .highcode	00000000 _vector_base
00000000 l    df *ABS*	00000000 CST816S.c
00000000 l    df *ABS*	00000000 CTIIC.c
00000000 l    df *ABS*	00000000 Main.c
00000000 l    df *ABS*	00000000 lcd.c
00000000 l    df *ABS*	00000000 lcd_init.c
00000000 l    df *ABS*	00000000 user.c
00000000 l    df *ABS*	00000000 CH58x_sys.c
00000000 l    df *ABS*	00000000 ISP583.c
20002250 l       .highcode	00000000 .loop18
2000225e l       .highcode	00000000 .loop29
2000226c l       .highcode	00000000 .loop40
200024f8 l       .highcode	00000000 .loop402
00000000 l    df *ABS*	00000000 key.c
00000000 l    df *ABS*	00000000 CH58x_gpio.c
00000000 l    df *ABS*	00000000 pic.c
00000000 l    df *ABS*	00000000 close.c
200000ee g     F .highcode	000000c2 CST816S_RD_DATA
20000d74 g     F .highcode	0000004a LCD_DrawPoint
2000226c g     F .highcode	0000000e FLASH_ROM_OUT
20002e78 g       .data	00000000 __global_pointer$
20002664 g     O .data	00000014 tp_dev
200021ce g     F .highcode	00000036 mDelayuS
2000207a  w    F .highcode	00000154 HardFault_Handler
20000876 g     F .highcode	00000080 CTP_IIC_Start
20000090  w      .highcode	00000000 GPIOB_IRQHandler
20000090  w      .highcode	00000000 GPIOA_IRQHandler
20000092 g     F .highcode	0000005c CST816S_WR_DATA
20000090  w      .highcode	00000000 SysTick_Handler
20000090  w      .highcode	00000000 NMI_Handler
20000090  w      .highcode	00000000 UART1_IRQHandler
20000744 g     F .highcode	00000036 CTP_SDA_IN
20002680 g       .bss	00000000 _sbss
00000200 g       *ABS*	00000000 __stack_size
200017d2 g     F .highcode	00000050 LCD_WR_REG
2000225e g     F .highcode	0000000e FLASH_ROM_IN
20000528 g     F .highcode	0000021c CST816S_test
20000090  w      .highcode	00000000 UART0_IRQHandler
20000a8c g     F .highcode	00000086 CTP_IICNack
000027f6 g     F .text	000000da LCD_GPIO_Init
0000e31c g     O .text	00004e20 gImage_8
2000077a g     F .highcode	00000036 CTP_SDA_OUT
20000dbe g     F .highcode	0000018a LCD_DrawLine
00000004 g       .init	00000000 _einit
20000090  w      .highcode	00000000 BB_IRQHandler
200022fa g     F .highcode	0000036a FLASH_EEPROM_CMD
200008f6 g     F .highcode	0000007a CTP_IIC_Stop
00002712 g     F .text	000000b2 CST816S_GetGesture
20000090  w      .highcode	00000000 Break_Point_Handler
00003868 g     F .text	000001be GPIOB_ModeCfg
20000090  w      .highcode	00000000 TMR0_IRQHandler
2000223e g     F .highcode	00000012 FLASH_ROM_BEG
20002204 g     F .highcode	0000003a mDelaymS
20000090  w      .highcode	00000000 Ecall_M_Mode_Handler
20007e00 g       .stack	00000000 _heap_end
2000227a g     F .highcode	00000048 FLASH_ROM_ADDR
20000090  w      .highcode	00000000 RTC_IRQHandler
20001880 g     F .highcode	0000001a user
20002688 g       .bss	00000000 _ebss
20001784 g     F .highcode	0000004e LCD_WR_DATA
200022c2 g     F .highcode	00000038 FLASH_ROM_WAIT
200001b0 g     F .highcode	000000a2 CST816S_Init
20000090  w      .highcode	00000000 UART2_IRQHandler
20000090  w      .highcode	00000000 PWMX_IRQHandler
00013164 g     O .text	00000004 TPX
00003a5c g     O .text	00000c80 gImage_1
00000000 g       .init	00000000 _start
20000090  w      .highcode	00000000 ADC_IRQHandler
20000000 g       .highcode	00000000 _highcode_vma_start
20000090  w      .highcode	00000000 TMR2_IRQHandler
000094fc g     O .text	00004e20 gImage_7
20002684 g     O .bss	00000004 IRQ_STA
20002664 g       .data	00000000 _data_vma
2000189a g     F .highcode	00000718 SetSysClock
20000090  w      .highcode	00000000 USB_IRQHandler
20000970 g     F .highcode	00000096 CTP_WaitAck
000027c4 g     F .text	00000032 KEY_GPIO_init
2000174c g     F .highcode	00000038 LCD_WR_DATA8
20000a06 g     F .highcode	00000086 CTP_IICAck
000028d0 g     F .text	000008b0 LCD_Init
20000090  w      .highcode	00000000 I2C_IRQHandler
20000c7c g     F .highcode	00000056 main
20000090  w      .highcode	00000000 USB2_IRQHandler
2000083e g     F .highcode	00000038 CTP_INT_IN
00000004 g       .highcodelalign	00000000 _highcode_lma
20000cd2 g     F .highcode	000000a2 LCD_Fill
20000090  w      .highcode	00000000 LLE_IRQHandler
00000000 g       .init	00000000 _sinit
20000b12 g     F .highcode	000000cc CTP_SendByte
20001822 g     F .highcode	0000005e LCD_Address_Set
20000090  w      .highcode	00000000 WDOG_BAT_IRQHandler
20000090  w      .highcode	00000000 Ecall_U_Mode_Handler
20000090  w      .highcode	00000000 TMR3_IRQHandler
20008000 g       .stack	00000000 _eusrstack
20000090  w      .highcode	00000000 SW_Handler
000036aa g     F .text	000001be GPIOA_ModeCfg
20002680 g       .data	00000000 _edata
20000090  w      .highcode	00000000 SPI0_IRQHandler
20002688 g       .bss	00000000 _end
20002664 g       .highcode	00000000 _highcode_vma_end
00013168 g       .dlalign	00000000 _data_lma
20002678 g     O .data	00000001 imagestatue
00003180 g     F .text	0000052a show_gesture_changepic_100
20000252 g     F .highcode	000002d6 CST816S_Scan
000046dc g     O .text	00004e20 gImage_6
00002668  w      .text	00000000 handle_reset
20000bde g     F .highcode	0000009e CTP_ReadByte
200016f8 g     F .highcode	00000054 LCD_Writ_Bus
20000090  w      .highcode	00000000 UART3_IRQHandler
20002250 g     F .highcode	0000000e FLASH_ROM_END
200007b0 g     F .highcode	0000008e CTP_GPIOInit
20002680 g     O .bss	00000001 gesturesta
20000090  w      .highcode	00000000 TMR1_IRQHandler
20001246 g     F .highcode	000004b2 LCD_SmoothChangePic
20001fb2 g     F .highcode	000000c8 SYS_ResetExecute
20000f48 g     F .highcode	000002fe LCD_SmoothSlidePic



Disassembly of section .init:

00000000 <_sinit>:
_start():
c:\Users\ql\Desktop\工作\1.28IPS电容触摸技术资料\新建文件夹\CH582M\obj/../Startup/startup_CH583.S:17

	.section	.init,"ax",@progbits
	.global	_start
	.align	1
_start:
	j	handle_reset
   0:	6680206f          	j	2668 <handle_reset>

Disassembly of section .highcode:

20000000 <_highcode_vma_start>:
	...
_vector_base():
20000008:	0090                	addi	a2,sp,64
2000000a:	2000                	fld	fs0,0(s0)
2000000c:	207a                	fld	ft0,408(sp)
2000000e:	2000                	fld	fs0,0(s0)
20000010:	bda9                	j	1ffffe6a <_data_lma+0x1ffecd02>
20000012:	f3f9                	bnez	a5,1fffffd8 <_data_lma+0x1ffece70>
20000014:	0090                	addi	a2,sp,64
20000016:	2000                	fld	fs0,0(s0)
	...
20000020:	0090                	addi	a2,sp,64
20000022:	2000                	fld	fs0,0(s0)
20000024:	0090                	addi	a2,sp,64
20000026:	2000                	fld	fs0,0(s0)
	...
20000030:	0090                	addi	a2,sp,64
20000032:	2000                	fld	fs0,0(s0)
20000034:	0000                	unimp
20000036:	0000                	unimp
20000038:	0090                	addi	a2,sp,64
2000003a:	2000                	fld	fs0,0(s0)
2000003c:	0000                	unimp
2000003e:	0000                	unimp
20000040:	0090                	addi	a2,sp,64
20000042:	2000                	fld	fs0,0(s0)
20000044:	0090                	addi	a2,sp,64
20000046:	2000                	fld	fs0,0(s0)
20000048:	0090                	addi	a2,sp,64
2000004a:	2000                	fld	fs0,0(s0)
2000004c:	0090                	addi	a2,sp,64
2000004e:	2000                	fld	fs0,0(s0)
20000050:	0090                	addi	a2,sp,64
20000052:	2000                	fld	fs0,0(s0)
20000054:	0090                	addi	a2,sp,64
20000056:	2000                	fld	fs0,0(s0)
20000058:	0090                	addi	a2,sp,64
2000005a:	2000                	fld	fs0,0(s0)
2000005c:	0090                	addi	a2,sp,64
2000005e:	2000                	fld	fs0,0(s0)
20000060:	0090                	addi	a2,sp,64
20000062:	2000                	fld	fs0,0(s0)
20000064:	0090                	addi	a2,sp,64
20000066:	2000                	fld	fs0,0(s0)
20000068:	0090                	addi	a2,sp,64
2000006a:	2000                	fld	fs0,0(s0)
2000006c:	0090                	addi	a2,sp,64
2000006e:	2000                	fld	fs0,0(s0)
20000070:	0090                	addi	a2,sp,64
20000072:	2000                	fld	fs0,0(s0)
20000074:	0090                	addi	a2,sp,64
20000076:	2000                	fld	fs0,0(s0)
20000078:	0090                	addi	a2,sp,64
2000007a:	2000                	fld	fs0,0(s0)
2000007c:	0090                	addi	a2,sp,64
2000007e:	2000                	fld	fs0,0(s0)
20000080:	0090                	addi	a2,sp,64
20000082:	2000                	fld	fs0,0(s0)
20000084:	0090                	addi	a2,sp,64
20000086:	2000                	fld	fs0,0(s0)
20000088:	0090                	addi	a2,sp,64
2000008a:	2000                	fld	fs0,0(s0)
2000008c:	0090                	addi	a2,sp,64
2000008e:	2000                	fld	fs0,0(s0)

20000090 <ADC_IRQHandler>:
GPIOB_IRQHandler():
c:\Users\ql\Desktop\工作\1.28IPS电容触摸技术资料\新建文件夹\CH582M\obj/../Startup/startup_CH583.S:121
TMR3_IRQHandler:
UART2_IRQHandler:
UART3_IRQHandler:
WDOG_BAT_IRQHandler: 
1:  
	j 1b
20000090:	a001                	j	20000090 <ADC_IRQHandler>

20000092 <CST816S_WR_DATA>:
CST816S_WR_DATA():
c:\Users\ql\Desktop\工作\1.28IPS电容触摸技术资料\新建文件夹\CH582M\obj/../src/CST816S.c:19
        0,
};

// 写数据
__HIGH_CODE
u8 CST816S_WR_DATA (u16 addr, u8 data) {
20000092:	7179                	addi	sp,sp,-48
20000094:	d606                	sw	ra,44(sp)
20000096:	d422                	sw	s0,40(sp)
20000098:	1800                	addi	s0,sp,48
2000009a:	87aa                	mv	a5,a0
2000009c:	872e                	mv	a4,a1
2000009e:	fcf41f23          	sh	a5,-34(s0)
200000a2:	87ba                	mv	a5,a4
200000a4:	fcf40ea3          	sb	a5,-35(s0)
c:\Users\ql\Desktop\工作\1.28IPS电容触摸技术资料\新建文件夹\CH582M\obj/../src/CST816S.c:21
    u8 reg;
    CTP_IIC_Start();            // IIC起始信号
200000a8:	7ce000ef          	jal	ra,20000876 <CTP_IIC_Start>
c:\Users\ql\Desktop\工作\1.28IPS电容触摸技术资料\新建文件夹\CH582M\obj/../src/CST816S.c:22
    CTP_SendByte (CST_WR_CMD);  // 发送写指令
200000ac:	02a00513          	li	a0,42
200000b0:	263000ef          	jal	ra,20000b12 <CTP_SendByte>
c:\Users\ql\Desktop\工作\1.28IPS电容触摸技术资料\新建文件夹\CH582M\obj/../src/CST816S.c:23
    CTP_WaitAck();
200000b4:	0bd000ef          	jal	ra,20000970 <CTP_WaitAck>
c:\Users\ql\Desktop\工作\1.28IPS电容触摸技术资料\新建文件夹\CH582M\obj/../src/CST816S.c:24
    CTP_SendByte (addr);
200000b8:	fde45783          	lhu	a5,-34(s0)
200000bc:	0ff7f793          	andi	a5,a5,255
200000c0:	853e                	mv	a0,a5
200000c2:	251000ef          	jal	ra,20000b12 <CTP_SendByte>
c:\Users\ql\Desktop\工作\1.28IPS电容触摸技术资料\新建文件夹\CH582M\obj/../src/CST816S.c:25
    CTP_WaitAck();
200000c6:	0ab000ef          	jal	ra,20000970 <CTP_WaitAck>
c:\Users\ql\Desktop\工作\1.28IPS电容触摸技术资料\新建文件夹\CH582M\obj/../src/CST816S.c:26
    CTP_SendByte (data);  // 写入数据
200000ca:	fdd44783          	lbu	a5,-35(s0)
200000ce:	853e                	mv	a0,a5
200000d0:	243000ef          	jal	ra,20000b12 <CTP_SendByte>
c:\Users\ql\Desktop\工作\1.28IPS电容触摸技术资料\新建文件夹\CH582M\obj/../src/CST816S.c:27
    CTP_WaitAck();
200000d4:	09d000ef          	jal	ra,20000970 <CTP_WaitAck>
c:\Users\ql\Desktop\工作\1.28IPS电容触摸技术资料\新建文件夹\CH582M\obj/../src/CST816S.c:28
    CTP_IIC_Stop();       // IIC结束信号
200000d8:	01f000ef          	jal	ra,200008f6 <CTP_IIC_Stop>
c:\Users\ql\Desktop\工作\1.28IPS电容触摸技术资料\新建文件夹\CH582M\obj/../src/CST816S.c:29
    reg = SUCCESS;
200000dc:	fe0407a3          	sb	zero,-17(s0)
c:\Users\ql\Desktop\工作\1.28IPS电容触摸技术资料\新建文件夹\CH582M\obj/../src/CST816S.c:30
    return reg;
200000e0:	fef44783          	lbu	a5,-17(s0)
c:\Users\ql\Desktop\工作\1.28IPS电容触摸技术资料\新建文件夹\CH582M\obj/../src/CST816S.c:31
}
200000e4:	853e                	mv	a0,a5
200000e6:	50b2                	lw	ra,44(sp)
200000e8:	5422                	lw	s0,40(sp)
200000ea:	6145                	addi	sp,sp,48
200000ec:	8082                	ret

200000ee <CST816S_RD_DATA>:
CST816S_RD_DATA():
c:\Users\ql\Desktop\工作\1.28IPS电容触摸技术资料\新建文件夹\CH582M\obj/../src/CST816S.c:35

// 读数据
__HIGH_CODE
u8 CST816S_RD_DATA (u16 addr, u8 len, u8 *value) {
200000ee:	7179                	addi	sp,sp,-48
200000f0:	d606                	sw	ra,44(sp)
200000f2:	d422                	sw	s0,40(sp)
200000f4:	d226                	sw	s1,36(sp)
200000f6:	1800                	addi	s0,sp,48
200000f8:	87aa                	mv	a5,a0
200000fa:	872e                	mv	a4,a1
200000fc:	fcc42c23          	sw	a2,-40(s0)
20000100:	fcf41f23          	sh	a5,-34(s0)
20000104:	87ba                	mv	a5,a4
20000106:	fcf40ea3          	sb	a5,-35(s0)
c:\Users\ql\Desktop\工作\1.28IPS电容触摸技术资料\新建文件夹\CH582M\obj/../src/CST816S.c:36
    u8 reg = 0, i;
2000010a:	fe040723          	sb	zero,-18(s0)
c:\Users\ql\Desktop\工作\1.28IPS电容触摸技术资料\新建文件夹\CH582M\obj/../src/CST816S.c:37
    CTP_IIC_Start();
2000010e:	27a5                	jal	20000876 <CTP_IIC_Start>
c:\Users\ql\Desktop\工作\1.28IPS电容触摸技术资料\新建文件夹\CH582M\obj/../src/CST816S.c:38
    CTP_SendByte (CST_WR_CMD);  // 发送写指令
20000110:	02a00513          	li	a0,42
20000114:	1ff000ef          	jal	ra,20000b12 <CTP_SendByte>
c:\Users\ql\Desktop\工作\1.28IPS电容触摸技术资料\新建文件夹\CH582M\obj/../src/CST816S.c:39
    CTP_WaitAck();
20000118:	059000ef          	jal	ra,20000970 <CTP_WaitAck>
c:\Users\ql\Desktop\工作\1.28IPS电容触摸技术资料\新建文件夹\CH582M\obj/../src/CST816S.c:40
    CTP_SendByte (addr);
2000011c:	fde45783          	lhu	a5,-34(s0)
20000120:	0ff7f793          	andi	a5,a5,255
20000124:	853e                	mv	a0,a5
20000126:	1ed000ef          	jal	ra,20000b12 <CTP_SendByte>
c:\Users\ql\Desktop\工作\1.28IPS电容触摸技术资料\新建文件夹\CH582M\obj/../src/CST816S.c:41
    CTP_WaitAck();
2000012a:	047000ef          	jal	ra,20000970 <CTP_WaitAck>
c:\Users\ql\Desktop\工作\1.28IPS电容触摸技术资料\新建文件夹\CH582M\obj/../src/CST816S.c:42
    CTP_IIC_Start();
2000012e:	27a1                	jal	20000876 <CTP_IIC_Start>
c:\Users\ql\Desktop\工作\1.28IPS电容触摸技术资料\新建文件夹\CH582M\obj/../src/CST816S.c:43
    CTP_SendByte (CST_RD_CMD);
20000130:	02b00513          	li	a0,43
20000134:	1df000ef          	jal	ra,20000b12 <CTP_SendByte>
c:\Users\ql\Desktop\工作\1.28IPS电容触摸技术资料\新建文件夹\CH582M\obj/../src/CST816S.c:44
    CTP_WaitAck();
20000138:	039000ef          	jal	ra,20000970 <CTP_WaitAck>
c:\Users\ql\Desktop\工作\1.28IPS电容触摸技术资料\新建文件夹\CH582M\obj/../src/CST816S.c:45
    for (i = 0; i < len; i++) {
2000013c:	fe0407a3          	sb	zero,-17(s0)
20000140:	a0b1                	j	2000018c <CST816S_RD_DATA+0x9e>
c:\Users\ql\Desktop\工作\1.28IPS电容触摸技术资料\新建文件夹\CH582M\obj/../src/CST816S.c:46
        if (i == (len - 1)) {
20000142:	fef44703          	lbu	a4,-17(s0)
20000146:	fdd44783          	lbu	a5,-35(s0)
2000014a:	17fd                	addi	a5,a5,-1
2000014c:	00f71f63          	bne	a4,a5,2000016a <CST816S_RD_DATA+0x7c>
c:\Users\ql\Desktop\工作\1.28IPS电容触摸技术资料\新建文件夹\CH582M\obj/../src/CST816S.c:47
            value[i] = CTP_ReadByte (0x00);
20000150:	fef44783          	lbu	a5,-17(s0)
20000154:	fd842703          	lw	a4,-40(s0)
20000158:	00f704b3          	add	s1,a4,a5
2000015c:	4501                	li	a0,0
2000015e:	281000ef          	jal	ra,20000bde <CTP_ReadByte>
20000162:	87aa                	mv	a5,a0
20000164:	00f48023          	sb	a5,0(s1)
20000168:	a829                	j	20000182 <CST816S_RD_DATA+0x94>
c:\Users\ql\Desktop\工作\1.28IPS电容触摸技术资料\新建文件夹\CH582M\obj/../src/CST816S.c:49
        } else {
            value[i] = CTP_ReadByte (0x01);
2000016a:	fef44783          	lbu	a5,-17(s0)
2000016e:	fd842703          	lw	a4,-40(s0)
20000172:	00f704b3          	add	s1,a4,a5
20000176:	4505                	li	a0,1
20000178:	267000ef          	jal	ra,20000bde <CTP_ReadByte>
2000017c:	87aa                	mv	a5,a0
2000017e:	00f48023          	sb	a5,0(s1)
c:\Users\ql\Desktop\工作\1.28IPS电容触摸技术资料\新建文件夹\CH582M\obj/../src/CST816S.c:45 (discriminator 2)
    for (i = 0; i < len; i++) {
20000182:	fef44783          	lbu	a5,-17(s0)
20000186:	0785                	addi	a5,a5,1
20000188:	fef407a3          	sb	a5,-17(s0)
c:\Users\ql\Desktop\工作\1.28IPS电容触摸技术资料\新建文件夹\CH582M\obj/../src/CST816S.c:45 (discriminator 1)
2000018c:	fef44703          	lbu	a4,-17(s0)
20000190:	fdd44783          	lbu	a5,-35(s0)
20000194:	faf767e3          	bltu	a4,a5,20000142 <CST816S_RD_DATA+0x54>
c:\Users\ql\Desktop\工作\1.28IPS电容触摸技术资料\新建文件夹\CH582M\obj/../src/CST816S.c:52
        }
    }
    CTP_IIC_Stop();
20000198:	75e000ef          	jal	ra,200008f6 <CTP_IIC_Stop>
c:\Users\ql\Desktop\工作\1.28IPS电容触摸技术资料\新建文件夹\CH582M\obj/../src/CST816S.c:53
    reg = SUCCESS;
2000019c:	fe040723          	sb	zero,-18(s0)
c:\Users\ql\Desktop\工作\1.28IPS电容触摸技术资料\新建文件夹\CH582M\obj/../src/CST816S.c:54
    return reg;
200001a0:	fee44783          	lbu	a5,-18(s0)
c:\Users\ql\Desktop\工作\1.28IPS电容触摸技术资料\新建文件夹\CH582M\obj/../src/CST816S.c:55
}
200001a4:	853e                	mv	a0,a5
200001a6:	50b2                	lw	ra,44(sp)
200001a8:	5422                	lw	s0,40(sp)
200001aa:	5492                	lw	s1,36(sp)
200001ac:	6145                	addi	sp,sp,48
200001ae:	8082                	ret

200001b0 <CST816S_Init>:
CST816S_Init():
c:\Users\ql\Desktop\工作\1.28IPS电容触摸技术资料\新建文件夹\CH582M\obj/../src/CST816S.c:58

__HIGH_CODE
void CST816S_Init (void) {
200001b0:	1101                	addi	sp,sp,-32
200001b2:	ce06                	sw	ra,28(sp)
200001b4:	cc22                	sw	s0,24(sp)
200001b6:	1000                	addi	s0,sp,32
c:\Users\ql\Desktop\工作\1.28IPS电容触摸技术资料\新建文件夹\CH582M\obj/../src/CST816S.c:60
    u8 ID;
    CTP_GPIOInit();
200001b8:	2be5                	jal	200007b0 <CTP_GPIOInit>
c:\Users\ql\Desktop\工作\1.28IPS电容触摸技术资料\新建文件夹\CH582M\obj/../src/CST816S.c:61
    CTP_RES_Clr();
200001ba:	400017b7          	lui	a5,0x40001
200001be:	0cc78793          	addi	a5,a5,204 # 400010cc <_eusrstack+0x1fff90cc>
200001c2:	4398                	lw	a4,0(a5)
200001c4:	400017b7          	lui	a5,0x40001
200001c8:	0cc78793          	addi	a5,a5,204 # 400010cc <_eusrstack+0x1fff90cc>
200001cc:	20076713          	ori	a4,a4,512
200001d0:	c398                	sw	a4,0(a5)
c:\Users\ql\Desktop\工作\1.28IPS电容触摸技术资料\新建文件夹\CH582M\obj/../src/CST816S.c:62
    CTP_INT_Clr();
200001d2:	400017b7          	lui	a5,0x40001
200001d6:	0cc78793          	addi	a5,a5,204 # 400010cc <_eusrstack+0x1fff90cc>
200001da:	4398                	lw	a4,0(a5)
200001dc:	400017b7          	lui	a5,0x40001
200001e0:	0cc78793          	addi	a5,a5,204 # 400010cc <_eusrstack+0x1fff90cc>
200001e4:	10076713          	ori	a4,a4,256
200001e8:	c398                	sw	a4,0(a5)
c:\Users\ql\Desktop\工作\1.28IPS电容触摸技术资料\新建文件夹\CH582M\obj/../src/CST816S.c:63
    DelayMs (50);
200001ea:	03200513          	li	a0,50
200001ee:	016020ef          	jal	ra,20002204 <mDelaymS>
c:\Users\ql\Desktop\工作\1.28IPS电容触摸技术资料\新建文件夹\CH582M\obj/../src/CST816S.c:64
    CTP_INT_Set();
200001f2:	400017b7          	lui	a5,0x40001
200001f6:	0c878793          	addi	a5,a5,200 # 400010c8 <_eusrstack+0x1fff90c8>
200001fa:	4398                	lw	a4,0(a5)
200001fc:	400017b7          	lui	a5,0x40001
20000200:	0c878793          	addi	a5,a5,200 # 400010c8 <_eusrstack+0x1fff90c8>
20000204:	10076713          	ori	a4,a4,256
20000208:	c398                	sw	a4,0(a5)
c:\Users\ql\Desktop\工作\1.28IPS电容触摸技术资料\新建文件夹\CH582M\obj/../src/CST816S.c:65
    DelayMs (50);
2000020a:	03200513          	li	a0,50
2000020e:	7f7010ef          	jal	ra,20002204 <mDelaymS>
c:\Users\ql\Desktop\工作\1.28IPS电容触摸技术资料\新建文件夹\CH582M\obj/../src/CST816S.c:66
    CTP_RES_Set();
20000212:	400017b7          	lui	a5,0x40001
20000216:	0c878793          	addi	a5,a5,200 # 400010c8 <_eusrstack+0x1fff90c8>
2000021a:	4398                	lw	a4,0(a5)
2000021c:	400017b7          	lui	a5,0x40001
20000220:	0c878793          	addi	a5,a5,200 # 400010c8 <_eusrstack+0x1fff90c8>
20000224:	20076713          	ori	a4,a4,512
20000228:	c398                	sw	a4,0(a5)
c:\Users\ql\Desktop\工作\1.28IPS电容触摸技术资料\新建文件夹\CH582M\obj/../src/CST816S.c:67
    DelayMs (50);
2000022a:	03200513          	li	a0,50
2000022e:	7d7010ef          	jal	ra,20002204 <mDelaymS>
c:\Users\ql\Desktop\工作\1.28IPS电容触摸技术资料\新建文件夹\CH582M\obj/../src/CST816S.c:68
    CTP_INT_IN();
20000232:	2531                	jal	2000083e <CTP_INT_IN>
c:\Users\ql\Desktop\工作\1.28IPS电容触摸技术资料\新建文件夹\CH582M\obj/../src/CST816S.c:69
    DelayMs (20);
20000234:	4551                	li	a0,20
20000236:	7cf010ef          	jal	ra,20002204 <mDelaymS>
c:\Users\ql\Desktop\工作\1.28IPS电容触摸技术资料\新建文件夹\CH582M\obj/../src/CST816S.c:70
    CST816S_RD_DATA (CST816S_ID, 1, &ID);
2000023a:	fef40793          	addi	a5,s0,-17
2000023e:	863e                	mv	a2,a5
20000240:	4585                	li	a1,1
20000242:	0a700513          	li	a0,167
20000246:	3565                	jal	200000ee <CST816S_RD_DATA>
c:\Users\ql\Desktop\工作\1.28IPS电容触摸技术资料\新建文件夹\CH582M\obj/../src/CST816S.c:71
}
20000248:	0001                	nop
2000024a:	40f2                	lw	ra,28(sp)
2000024c:	4462                	lw	s0,24(sp)
2000024e:	6105                	addi	sp,sp,32
20000250:	8082                	ret

20000252 <CST816S_Scan>:
CST816S_Scan():
c:\Users\ql\Desktop\工作\1.28IPS电容触摸技术资料\新建文件夹\CH582M\obj/../src/CST816S.c:74

__HIGH_CODE
u8 CST816S_Scan (u8 mode) {
20000252:	7179                	addi	sp,sp,-48
20000254:	d606                	sw	ra,44(sp)
20000256:	d422                	sw	s0,40(sp)
20000258:	1800                	addi	s0,sp,48
2000025a:	87aa                	mv	a5,a0
2000025c:	fcf40fa3          	sb	a5,-33(s0)
c:\Users\ql\Desktop\工作\1.28IPS电容触摸技术资料\新建文件夹\CH582M\obj/../src/CST816S.c:76
    u8 buf[4];
    u8 i = 0;
20000260:	fe0407a3          	sb	zero,-17(s0)
c:\Users\ql\Desktop\工作\1.28IPS电容触摸技术资料\新建文件夹\CH582M\obj/../src/CST816S.c:77
    u8 res = 0;
20000264:	fe040723          	sb	zero,-18(s0)
c:\Users\ql\Desktop\工作\1.28IPS电容触摸技术资料\新建文件夹\CH582M\obj/../src/CST816S.c:82
    u8 temp;
    u8 tempsta;

    // 直接实时扫描，移除扫描间隔延时
    CST816S_RD_DATA (GT_ADDR_REG, 1, &mode);
20000268:	fdf40793          	addi	a5,s0,-33
2000026c:	863e                	mv	a2,a5
2000026e:	4585                	li	a1,1
20000270:	4509                	li	a0,2
20000272:	3db5                	jal	200000ee <CST816S_RD_DATA>
c:\Users\ql\Desktop\工作\1.28IPS电容触摸技术资料\新建文件夹\CH582M\obj/../src/CST816S.c:84

    if (mode & 0x80 && ((mode & 0x0F) < 6)) {
20000274:	fdf44783          	lbu	a5,-33(s0)
20000278:	07e2                	slli	a5,a5,0x18
2000027a:	87e1                	srai	a5,a5,0x18
2000027c:	0207d063          	bgez	a5,2000029c <CST816S_Scan+0x4a>
c:\Users\ql\Desktop\工作\1.28IPS电容触摸技术资料\新建文件夹\CH582M\obj/../src/CST816S.c:84 (discriminator 1)
20000280:	fdf44783          	lbu	a5,-33(s0)
20000284:	00f7f713          	andi	a4,a5,15
20000288:	4795                	li	a5,5
2000028a:	00e7c963          	blt	a5,a4,2000029c <CST816S_Scan+0x4a>
c:\Users\ql\Desktop\工作\1.28IPS电容触摸技术资料\新建文件夹\CH582M\obj/../src/CST816S.c:85
        temp = 0;
2000028e:	fe0406a3          	sb	zero,-19(s0)
c:\Users\ql\Desktop\工作\1.28IPS电容触摸技术资料\新建文件夹\CH582M\obj/../src/CST816S.c:86
        CST816S_WR_DATA (GT_ADDR_REG, temp);  // 清除扫描标记
20000292:	fed44783          	lbu	a5,-19(s0)
20000296:	85be                	mv	a1,a5
20000298:	4509                	li	a0,2
2000029a:	3be5                	jal	20000092 <CST816S_WR_DATA>
c:\Users\ql\Desktop\工作\1.28IPS电容触摸技术资料\新建文件夹\CH582M\obj/../src/CST816S.c:89
    }

    if ((mode & 0x0F) && ((mode & 0x0F) < 6))                // 如果检测到触摸点
2000029c:	fdf44783          	lbu	a5,-33(s0)
200002a0:	8bbd                	andi	a5,a5,15
200002a2:	1c078a63          	beqz	a5,20000476 <CST816S_Scan+0x224>
c:\Users\ql\Desktop\工作\1.28IPS电容触摸技术资料\新建文件夹\CH582M\obj/../src/CST816S.c:89 (discriminator 1)
200002a6:	fdf44783          	lbu	a5,-33(s0)
200002aa:	00f7f713          	andi	a4,a5,15
200002ae:	4795                	li	a5,5
200002b0:	1ce7c363          	blt	a5,a4,20000476 <CST816S_Scan+0x224>
c:\Users\ql\Desktop\工作\1.28IPS电容触摸技术资料\新建文件夹\CH582M\obj/../src/CST816S.c:91
    {
        temp = 0xFF << (mode & 0x0F);                        // 将触摸点个数转换为1的位数
200002b4:	fdf44783          	lbu	a5,-33(s0)
200002b8:	8bbd                	andi	a5,a5,15
200002ba:	0ff00713          	li	a4,255
200002be:	00f717b3          	sll	a5,a4,a5
200002c2:	fef406a3          	sb	a5,-19(s0)
c:\Users\ql\Desktop\工作\1.28IPS电容触摸技术资料\新建文件夹\CH582M\obj/../src/CST816S.c:92
        tempsta = tp_dev.sta;                                // 保存当前的触摸状态
200002c6:	00002797          	auipc	a5,0x2
200002ca:	39e78793          	addi	a5,a5,926 # 20002664 <_highcode_vma_end>
200002ce:	0107c783          	lbu	a5,16(a5)
200002d2:	fef40623          	sb	a5,-20(s0)
c:\Users\ql\Desktop\工作\1.28IPS电容触摸技术资料\新建文件夹\CH582M\obj/../src/CST816S.c:93
        tp_dev.sta = (~temp) | TP_PRES_DOWN | TP_CATH_PRES;  // 设置触摸点状态
200002d6:	fed40783          	lb	a5,-19(s0)
200002da:	fff7c793          	not	a5,a5
200002de:	07e2                	slli	a5,a5,0x18
200002e0:	87e1                	srai	a5,a5,0x18
200002e2:	fc17e793          	ori	a5,a5,-63
200002e6:	07e2                	slli	a5,a5,0x18
200002e8:	87e1                	srai	a5,a5,0x18
200002ea:	0ff7f713          	andi	a4,a5,255
200002ee:	00002797          	auipc	a5,0x2
200002f2:	37678793          	addi	a5,a5,886 # 20002664 <_highcode_vma_end>
200002f6:	00e78823          	sb	a4,16(a5)
c:\Users\ql\Desktop\工作\1.28IPS电容触摸技术资料\新建文件夹\CH582M\obj/../src/CST816S.c:94
        tp_dev.x[1] = tp_dev.x[0];                           // 保存上一个触摸点的数据
200002fa:	00002797          	auipc	a5,0x2
200002fe:	36a78793          	addi	a5,a5,874 # 20002664 <_highcode_vma_end>
20000302:	0087d703          	lhu	a4,8(a5)
20000306:	00002797          	auipc	a5,0x2
2000030a:	35e78793          	addi	a5,a5,862 # 20002664 <_highcode_vma_end>
2000030e:	00e79523          	sh	a4,10(a5)
c:\Users\ql\Desktop\工作\1.28IPS电容触摸技术资料\新建文件夹\CH582M\obj/../src/CST816S.c:95
        tp_dev.y[1] = tp_dev.y[0];
20000312:	00002797          	auipc	a5,0x2
20000316:	35278793          	addi	a5,a5,850 # 20002664 <_highcode_vma_end>
2000031a:	00c7d703          	lhu	a4,12(a5)
2000031e:	00002797          	auipc	a5,0x2
20000322:	34678793          	addi	a5,a5,838 # 20002664 <_highcode_vma_end>
20000326:	00e79723          	sh	a4,14(a5)
c:\Users\ql\Desktop\工作\1.28IPS电容触摸技术资料\新建文件夹\CH582M\obj/../src/CST816S.c:97

        for (i = 0; i < 2; i++) {
2000032a:	fe0407a3          	sb	zero,-17(s0)
2000032e:	a071                	j	200003ba <CST816S_Scan+0x168>
c:\Users\ql\Desktop\工作\1.28IPS电容触摸技术资料\新建文件夹\CH582M\obj/../src/CST816S.c:98
            if (tp_dev.sta & (1 << i))             // 判断触摸点是否有效
20000330:	00002797          	auipc	a5,0x2
20000334:	33478793          	addi	a5,a5,820 # 20002664 <_highcode_vma_end>
20000338:	0107c783          	lbu	a5,16(a5)
2000033c:	873e                	mv	a4,a5
2000033e:	fef44783          	lbu	a5,-17(s0)
20000342:	40f757b3          	sra	a5,a4,a5
20000346:	8b85                	andi	a5,a5,1
20000348:	c7a5                	beqz	a5,200003b0 <CST816S_Scan+0x15e>
c:\Users\ql\Desktop\工作\1.28IPS电容触摸技术资料\新建文件夹\CH582M\obj/../src/CST816S.c:100
            {
                CST816S_RD_DATA (TPX[i], 4, buf);  // 读取触摸数据
2000034a:	fef44783          	lbu	a5,-17(s0)
2000034e:	e0013717          	auipc	a4,0xe0013
20000352:	e1670713          	addi	a4,a4,-490 # 13164 <TPX>
20000356:	0786                	slli	a5,a5,0x1
20000358:	97ba                	add	a5,a5,a4
2000035a:	0007d783          	lhu	a5,0(a5)
2000035e:	fe840713          	addi	a4,s0,-24
20000362:	863a                	mv	a2,a4
20000364:	4591                	li	a1,4
20000366:	853e                	mv	a0,a5
20000368:	3359                	jal	200000ee <CST816S_RD_DATA>
c:\Users\ql\Desktop\工作\1.28IPS电容触摸技术资料\新建文件夹\CH582M\obj/../src/CST816S.c:108
                if (USE_HORIZONTAL == 2)  // 横屏
                {
                    tp_dev.y[i] = buf[1];
                    tp_dev.x[i] = buf[3];
                } else if (USE_HORIZONTAL == 0) {
                    tp_dev.x[i] = 240 - buf[1];
2000036a:	fe944783          	lbu	a5,-23(s0)
2000036e:	01079713          	slli	a4,a5,0x10
20000372:	8341                	srli	a4,a4,0x10
20000374:	fef44783          	lbu	a5,-17(s0)
20000378:	0f000693          	li	a3,240
2000037c:	40e68733          	sub	a4,a3,a4
20000380:	0742                	slli	a4,a4,0x10
20000382:	8341                	srli	a4,a4,0x10
20000384:	00002697          	auipc	a3,0x2
20000388:	2e068693          	addi	a3,a3,736 # 20002664 <_highcode_vma_end>
2000038c:	0786                	slli	a5,a5,0x1
2000038e:	97b6                	add	a5,a5,a3
20000390:	00e79423          	sh	a4,8(a5)
c:\Users\ql\Desktop\工作\1.28IPS电容触摸技术资料\新建文件夹\CH582M\obj/../src/CST816S.c:109
                    tp_dev.y[i] = buf[3];
20000394:	feb44703          	lbu	a4,-21(s0)
20000398:	fef44783          	lbu	a5,-17(s0)
2000039c:	0742                	slli	a4,a4,0x10
2000039e:	8341                	srli	a4,a4,0x10
200003a0:	00002697          	auipc	a3,0x2
200003a4:	2c468693          	addi	a3,a3,708 # 20002664 <_highcode_vma_end>
200003a8:	0786                	slli	a5,a5,0x1
200003aa:	97b6                	add	a5,a5,a3
200003ac:	00e79623          	sh	a4,12(a5)
c:\Users\ql\Desktop\工作\1.28IPS电容触摸技术资料\新建文件夹\CH582M\obj/../src/CST816S.c:97 (discriminator 2)
        for (i = 0; i < 2; i++) {
200003b0:	fef44783          	lbu	a5,-17(s0)
200003b4:	0785                	addi	a5,a5,1
200003b6:	fef407a3          	sb	a5,-17(s0)
c:\Users\ql\Desktop\工作\1.28IPS电容触摸技术资料\新建文件夹\CH582M\obj/../src/CST816S.c:97 (discriminator 1)
200003ba:	fef44703          	lbu	a4,-17(s0)
200003be:	4785                	li	a5,1
200003c0:	f6e7f8e3          	bgeu	a5,a4,20000330 <CST816S_Scan+0xde>
c:\Users\ql\Desktop\工作\1.28IPS电容触摸技术资料\新建文件夹\CH582M\obj/../src/CST816S.c:119
                    tp_dev.y[i] = 240 - buf[1];
                    tp_dev.x[i] = 240 - buf[3];
                }
            }
        }
        res = 1;
200003c4:	4785                	li	a5,1
200003c6:	fef40723          	sb	a5,-18(s0)
c:\Users\ql\Desktop\工作\1.28IPS电容触摸技术资料\新建文件夹\CH582M\obj/../src/CST816S.c:122

        // 校验坐标是否超出范围
        if (tp_dev.x[0] > LCD_W || tp_dev.y[0] > LCD_H) {
200003ca:	00002797          	auipc	a5,0x2
200003ce:	29a78793          	addi	a5,a5,666 # 20002664 <_highcode_vma_end>
200003d2:	0087d703          	lhu	a4,8(a5)
200003d6:	0f000793          	li	a5,240
200003da:	00e7ec63          	bltu	a5,a4,200003f2 <CST816S_Scan+0x1a0>
c:\Users\ql\Desktop\工作\1.28IPS电容触摸技术资料\新建文件夹\CH582M\obj/../src/CST816S.c:122 (discriminator 1)
200003de:	00002797          	auipc	a5,0x2
200003e2:	28678793          	addi	a5,a5,646 # 20002664 <_highcode_vma_end>
200003e6:	00c7d703          	lhu	a4,12(a5)
200003ea:	0f000793          	li	a5,240
200003ee:	12e7f563          	bgeu	a5,a4,20000518 <CST816S_Scan+0x2c6>
c:\Users\ql\Desktop\工作\1.28IPS电容触摸技术资料\新建文件夹\CH582M\obj/../src/CST816S.c:123
            if ((mode & 0x0F) > 1) {
200003f2:	fdf44783          	lbu	a5,-33(s0)
200003f6:	8bb9                	andi	a5,a5,14
200003f8:	cb95                	beqz	a5,2000042c <CST816S_Scan+0x1da>
c:\Users\ql\Desktop\工作\1.28IPS电容触摸技术资料\新建文件夹\CH582M\obj/../src/CST816S.c:124
                tp_dev.x[0] = tp_dev.x[1];
200003fa:	00002797          	auipc	a5,0x2
200003fe:	26a78793          	addi	a5,a5,618 # 20002664 <_highcode_vma_end>
20000402:	00a7d703          	lhu	a4,10(a5)
20000406:	00002797          	auipc	a5,0x2
2000040a:	25e78793          	addi	a5,a5,606 # 20002664 <_highcode_vma_end>
2000040e:	00e79423          	sh	a4,8(a5)
c:\Users\ql\Desktop\工作\1.28IPS电容触摸技术资料\新建文件夹\CH582M\obj/../src/CST816S.c:125
                tp_dev.y[0] = tp_dev.y[1];
20000412:	00002797          	auipc	a5,0x2
20000416:	25278793          	addi	a5,a5,594 # 20002664 <_highcode_vma_end>
2000041a:	00e7d703          	lhu	a4,14(a5)
2000041e:	00002797          	auipc	a5,0x2
20000422:	24678793          	addi	a5,a5,582 # 20002664 <_highcode_vma_end>
20000426:	00e79623          	sh	a4,12(a5)
c:\Users\ql\Desktop\工作\1.28IPS电容触摸技术资料\新建文件夹\CH582M\obj/../src/CST816S.c:122
        if (tp_dev.x[0] > LCD_W || tp_dev.y[0] > LCD_H) {
2000042a:	a0fd                	j	20000518 <CST816S_Scan+0x2c6>
c:\Users\ql\Desktop\工作\1.28IPS电容触摸技术资料\新建文件夹\CH582M\obj/../src/CST816S.c:127
            } else {
                tp_dev.x[0] = tp_dev.x[1];
2000042c:	00002797          	auipc	a5,0x2
20000430:	23878793          	addi	a5,a5,568 # 20002664 <_highcode_vma_end>
20000434:	00a7d703          	lhu	a4,10(a5)
20000438:	00002797          	auipc	a5,0x2
2000043c:	22c78793          	addi	a5,a5,556 # 20002664 <_highcode_vma_end>
20000440:	00e79423          	sh	a4,8(a5)
c:\Users\ql\Desktop\工作\1.28IPS电容触摸技术资料\新建文件夹\CH582M\obj/../src/CST816S.c:128
                tp_dev.y[0] = tp_dev.y[1];
20000444:	00002797          	auipc	a5,0x2
20000448:	22078793          	addi	a5,a5,544 # 20002664 <_highcode_vma_end>
2000044c:	00e7d703          	lhu	a4,14(a5)
20000450:	00002797          	auipc	a5,0x2
20000454:	21478793          	addi	a5,a5,532 # 20002664 <_highcode_vma_end>
20000458:	00e79623          	sh	a4,12(a5)
c:\Users\ql\Desktop\工作\1.28IPS电容触摸技术资料\新建文件夹\CH582M\obj/../src/CST816S.c:129
                mode = 0x80;  // 恢复状态
2000045c:	f8000793          	li	a5,-128
20000460:	fcf40fa3          	sb	a5,-33(s0)
c:\Users\ql\Desktop\工作\1.28IPS电容触摸技术资料\新建文件夹\CH582M\obj/../src/CST816S.c:130
                tp_dev.sta = tempsta;
20000464:	00002797          	auipc	a5,0x2
20000468:	20078793          	addi	a5,a5,512 # 20002664 <_highcode_vma_end>
2000046c:	fec44703          	lbu	a4,-20(s0)
20000470:	00e78823          	sb	a4,16(a5)
c:\Users\ql\Desktop\工作\1.28IPS电容触摸技术资料\新建文件夹\CH582M\obj/../src/CST816S.c:122
        if (tp_dev.x[0] > LCD_W || tp_dev.y[0] > LCD_H) {
20000474:	a055                	j	20000518 <CST816S_Scan+0x2c6>
c:\Users\ql\Desktop\工作\1.28IPS电容触摸技术资料\新建文件夹\CH582M\obj/../src/CST816S.c:134
            }
        }
    } else {
        if (tp_dev.sta & TP_PRES_DOWN)  // 判断是否有触摸点松开
20000476:	00002797          	auipc	a5,0x2
2000047a:	1ee78793          	addi	a5,a5,494 # 20002664 <_highcode_vma_end>
2000047e:	0107c783          	lbu	a5,16(a5)
20000482:	0817f793          	andi	a5,a5,129
20000486:	cfa9                	beqz	a5,200004e0 <CST816S_Scan+0x28e>
c:\Users\ql\Desktop\工作\1.28IPS电容触摸技术资料\新建文件夹\CH582M\obj/../src/CST816S.c:136
        {
            tp_dev.sta &= ~(1 << 7);    // 松开标记
20000488:	00002797          	auipc	a5,0x2
2000048c:	1dc78793          	addi	a5,a5,476 # 20002664 <_highcode_vma_end>
20000490:	0107c783          	lbu	a5,16(a5)
20000494:	07f7f793          	andi	a5,a5,127
20000498:	0ff7f713          	andi	a4,a5,255
2000049c:	00002797          	auipc	a5,0x2
200004a0:	1c878793          	addi	a5,a5,456 # 20002664 <_highcode_vma_end>
200004a4:	00e78823          	sb	a4,16(a5)
c:\Users\ql\Desktop\工作\1.28IPS电容触摸技术资料\新建文件夹\CH582M\obj/../src/CST816S.c:137
            tp_dev.x[0] = 0;
200004a8:	00002797          	auipc	a5,0x2
200004ac:	1bc78793          	addi	a5,a5,444 # 20002664 <_highcode_vma_end>
200004b0:	00079423          	sh	zero,8(a5)
c:\Users\ql\Desktop\工作\1.28IPS电容触摸技术资料\新建文件夹\CH582M\obj/../src/CST816S.c:138
            tp_dev.y[0] = 0;
200004b4:	00002797          	auipc	a5,0x2
200004b8:	1b078793          	addi	a5,a5,432 # 20002664 <_highcode_vma_end>
200004bc:	00079623          	sh	zero,12(a5)
c:\Users\ql\Desktop\工作\1.28IPS电容触摸技术资料\新建文件夹\CH582M\obj/../src/CST816S.c:139
            tp_dev.sta &= 0xE0;  // 清除有效标记
200004c0:	00002797          	auipc	a5,0x2
200004c4:	1a478793          	addi	a5,a5,420 # 20002664 <_highcode_vma_end>
200004c8:	0107c783          	lbu	a5,16(a5)
200004cc:	9b81                	andi	a5,a5,-32
200004ce:	0ff7f713          	andi	a4,a5,255
200004d2:	00002797          	auipc	a5,0x2
200004d6:	19278793          	addi	a5,a5,402 # 20002664 <_highcode_vma_end>
200004da:	00e78823          	sb	a4,16(a5)
200004de:	a835                	j	2000051a <CST816S_Scan+0x2c8>
c:\Users\ql\Desktop\工作\1.28IPS电容触摸技术资料\新建文件夹\CH582M\obj/../src/CST816S.c:141
        } else {
            tp_dev.x[0] = 0;
200004e0:	00002797          	auipc	a5,0x2
200004e4:	18478793          	addi	a5,a5,388 # 20002664 <_highcode_vma_end>
200004e8:	00079423          	sh	zero,8(a5)
c:\Users\ql\Desktop\工作\1.28IPS电容触摸技术资料\新建文件夹\CH582M\obj/../src/CST816S.c:142
            tp_dev.y[0] = 0;
200004ec:	00002797          	auipc	a5,0x2
200004f0:	17878793          	addi	a5,a5,376 # 20002664 <_highcode_vma_end>
200004f4:	00079623          	sh	zero,12(a5)
c:\Users\ql\Desktop\工作\1.28IPS电容触摸技术资料\新建文件夹\CH582M\obj/../src/CST816S.c:143
            tp_dev.sta &= 0xE0;  // 清除有效标记
200004f8:	00002797          	auipc	a5,0x2
200004fc:	16c78793          	addi	a5,a5,364 # 20002664 <_highcode_vma_end>
20000500:	0107c783          	lbu	a5,16(a5)
20000504:	9b81                	andi	a5,a5,-32
20000506:	0ff7f713          	andi	a4,a5,255
2000050a:	00002797          	auipc	a5,0x2
2000050e:	15a78793          	addi	a5,a5,346 # 20002664 <_highcode_vma_end>
20000512:	00e78823          	sb	a4,16(a5)
20000516:	a011                	j	2000051a <CST816S_Scan+0x2c8>
c:\Users\ql\Desktop\工作\1.28IPS电容触摸技术资料\新建文件夹\CH582M\obj/../src/CST816S.c:122
        if (tp_dev.x[0] > LCD_W || tp_dev.y[0] > LCD_H) {
20000518:	0001                	nop
c:\Users\ql\Desktop\工作\1.28IPS电容触摸技术资料\新建文件夹\CH582M\obj/../src/CST816S.c:147
        }
    }

    return res;  // 返回扫描结果
2000051a:	fee44783          	lbu	a5,-18(s0)
c:\Users\ql\Desktop\工作\1.28IPS电容触摸技术资料\新建文件夹\CH582M\obj/../src/CST816S.c:148
}
2000051e:	853e                	mv	a0,a5
20000520:	50b2                	lw	ra,44(sp)
20000522:	5422                	lw	s0,40(sp)
20000524:	6145                	addi	sp,sp,48
20000526:	8082                	ret

20000528 <CST816S_test>:
CST816S_test():
c:\Users\ql\Desktop\工作\1.28IPS电容触摸技术资料\新建文件夹\CH582M\obj/../src/CST816S.c:151

__HIGH_CODE
void CST816S_test (void) {
20000528:	1101                	addi	sp,sp,-32
2000052a:	ce06                	sw	ra,28(sp)
2000052c:	cc22                	sw	s0,24(sp)
2000052e:	1000                	addi	s0,sp,32
c:\Users\ql\Desktop\工作\1.28IPS电容触摸技术资料\新建文件夹\CH582M\obj/../src/CST816S.c:152
    u8 t = 0;
20000530:	fe0407a3          	sb	zero,-17(s0)
c:\Users\ql\Desktop\工作\1.28IPS电容触摸技术资料\新建文件夹\CH582M\obj/../src/CST816S.c:155
    u16 lastpos[2][2];  // 最后一次的数据
    // LCD_Fill (0, 0, LCD_W, LCD_H, WHITE);
    u16 color = BLACK;
20000534:	fe041623          	sh	zero,-20(s0)
c:\Users\ql\Desktop\工作\1.28IPS电容触摸技术资料\新建文件夹\CH582M\obj/../src/CST816S.c:157
    while (1) {
        tp_dev.scan (0);
20000538:	00002797          	auipc	a5,0x2
2000053c:	12c78793          	addi	a5,a5,300 # 20002664 <_highcode_vma_end>
20000540:	43dc                	lw	a5,4(a5)
20000542:	4501                	li	a0,0
20000544:	9782                	jalr	a5
c:\Users\ql\Desktop\工作\1.28IPS电容触摸技术资料\新建文件夹\CH582M\obj/../src/CST816S.c:159

        for (t = 0; t < CTP_MAX_TOUCH; t++) {
20000546:	fe0407a3          	sb	zero,-17(s0)
2000054a:	a249                	j	200006cc <CST816S_test+0x1a4>
c:\Users\ql\Desktop\工作\1.28IPS电容触摸技术资料\新建文件夹\CH582M\obj/../src/CST816S.c:160
            if ((tp_dev.sta & (1 << t)))  // 判断是否有点触摸？
2000054c:	00002797          	auipc	a5,0x2
20000550:	11878793          	addi	a5,a5,280 # 20002664 <_highcode_vma_end>
20000554:	0107c783          	lbu	a5,16(a5)
20000558:	873e                	mv	a4,a5
2000055a:	fef44783          	lbu	a5,-17(s0)
2000055e:	40f757b3          	sra	a5,a4,a5
20000562:	8b85                	andi	a5,a5,1
20000564:	14078663          	beqz	a5,200006b0 <CST816S_test+0x188>
c:\Users\ql\Desktop\工作\1.28IPS电容触摸技术资料\新建文件夹\CH582M\obj/../src/CST816S.c:163
            {
                // DelayMs (1);
                if (tp_dev.x[t] < LCD_W && tp_dev.y[t] < LCD_H)  // 在LCD范围内
20000568:	fef44783          	lbu	a5,-17(s0)
2000056c:	00002717          	auipc	a4,0x2
20000570:	0f870713          	addi	a4,a4,248 # 20002664 <_highcode_vma_end>
20000574:	0786                	slli	a5,a5,0x1
20000576:	97ba                	add	a5,a5,a4
20000578:	0087d703          	lhu	a4,8(a5)
2000057c:	0ef00793          	li	a5,239
20000580:	14e7e163          	bltu	a5,a4,200006c2 <CST816S_test+0x19a>
c:\Users\ql\Desktop\工作\1.28IPS电容触摸技术资料\新建文件夹\CH582M\obj/../src/CST816S.c:163 (discriminator 1)
20000584:	fef44783          	lbu	a5,-17(s0)
20000588:	00002717          	auipc	a4,0x2
2000058c:	0dc70713          	addi	a4,a4,220 # 20002664 <_highcode_vma_end>
20000590:	0786                	slli	a5,a5,0x1
20000592:	97ba                	add	a5,a5,a4
20000594:	00c7d703          	lhu	a4,12(a5)
20000598:	0ef00793          	li	a5,239
2000059c:	12e7e363          	bltu	a5,a4,200006c2 <CST816S_test+0x19a>
c:\Users\ql\Desktop\工作\1.28IPS电容触摸技术资料\新建文件夹\CH582M\obj/../src/CST816S.c:165
                {
                    if (lastpos[t][0] == 0XFFFF) {
200005a0:	fef44783          	lbu	a5,-17(s0)
200005a4:	078a                	slli	a5,a5,0x2
200005a6:	ff040713          	addi	a4,s0,-16
200005aa:	97ba                	add	a5,a5,a4
200005ac:	ff47d703          	lhu	a4,-12(a5)
200005b0:	67c1                	lui	a5,0x10
200005b2:	17fd                	addi	a5,a5,-1
200005b4:	04f71863          	bne	a4,a5,20000604 <CST816S_test+0xdc>
c:\Users\ql\Desktop\工作\1.28IPS电容触摸技术资料\新建文件夹\CH582M\obj/../src/CST816S.c:166
                        lastpos[t][0] = tp_dev.x[t];
200005b8:	fef44783          	lbu	a5,-17(s0)
200005bc:	fef44683          	lbu	a3,-17(s0)
200005c0:	00002717          	auipc	a4,0x2
200005c4:	0a470713          	addi	a4,a4,164 # 20002664 <_highcode_vma_end>
200005c8:	0786                	slli	a5,a5,0x1
200005ca:	97ba                	add	a5,a5,a4
200005cc:	0087d703          	lhu	a4,8(a5) # 10008 <gImage_8+0x1cec>
200005d0:	00269793          	slli	a5,a3,0x2
200005d4:	ff040693          	addi	a3,s0,-16
200005d8:	97b6                	add	a5,a5,a3
200005da:	fee79a23          	sh	a4,-12(a5)
c:\Users\ql\Desktop\工作\1.28IPS电容触摸技术资料\新建文件夹\CH582M\obj/../src/CST816S.c:167
                        lastpos[t][1] = tp_dev.y[t];
200005de:	fef44783          	lbu	a5,-17(s0)
200005e2:	fef44683          	lbu	a3,-17(s0)
200005e6:	00002717          	auipc	a4,0x2
200005ea:	07e70713          	addi	a4,a4,126 # 20002664 <_highcode_vma_end>
200005ee:	0786                	slli	a5,a5,0x1
200005f0:	97ba                	add	a5,a5,a4
200005f2:	00c7d703          	lhu	a4,12(a5)
200005f6:	00269793          	slli	a5,a3,0x2
200005fa:	ff040693          	addi	a3,s0,-16
200005fe:	97b6                	add	a5,a5,a3
20000600:	fee79b23          	sh	a4,-10(a5)
c:\Users\ql\Desktop\工作\1.28IPS电容触摸技术资料\新建文件夹\CH582M\obj/../src/CST816S.c:174

                    /*画线*/
                    // LCD_DrawLine (lastpos[t][0], lastpos[t][1], tp_dev.x[t], tp_dev.y[t],color);

                    /*  图片拖动*/
                    LCD_SmoothSlidePic (lastpos[t][0], lastpos[t][1], tp_dev.x[t], tp_dev.y[t], 40, 40, gImage_1, 0);
20000604:	fef44783          	lbu	a5,-17(s0)
20000608:	078a                	slli	a5,a5,0x2
2000060a:	ff040713          	addi	a4,s0,-16
2000060e:	97ba                	add	a5,a5,a4
20000610:	ff47d503          	lhu	a0,-12(a5)
20000614:	fef44783          	lbu	a5,-17(s0)
20000618:	078a                	slli	a5,a5,0x2
2000061a:	ff040713          	addi	a4,s0,-16
2000061e:	97ba                	add	a5,a5,a4
20000620:	ff67d583          	lhu	a1,-10(a5)
20000624:	fef44783          	lbu	a5,-17(s0)
20000628:	00002717          	auipc	a4,0x2
2000062c:	03c70713          	addi	a4,a4,60 # 20002664 <_highcode_vma_end>
20000630:	0786                	slli	a5,a5,0x1
20000632:	97ba                	add	a5,a5,a4
20000634:	0087d603          	lhu	a2,8(a5)
20000638:	fef44783          	lbu	a5,-17(s0)
2000063c:	00002717          	auipc	a4,0x2
20000640:	02870713          	addi	a4,a4,40 # 20002664 <_highcode_vma_end>
20000644:	0786                	slli	a5,a5,0x1
20000646:	97ba                	add	a5,a5,a4
20000648:	00c7d683          	lhu	a3,12(a5)
2000064c:	4881                	li	a7,0
2000064e:	e0003817          	auipc	a6,0xe0003
20000652:	40e80813          	addi	a6,a6,1038 # 3a5c <gImage_1>
20000656:	02800793          	li	a5,40
2000065a:	02800713          	li	a4,40
2000065e:	0eb000ef          	jal	ra,20000f48 <LCD_SmoothSlidePic>
c:\Users\ql\Desktop\工作\1.28IPS电容触摸技术资料\新建文件夹\CH582M\obj/../src/CST816S.c:180


                    // LCD_DrawPoint(lastpos[t][0], lastpos[t][1],BLACK);
                    // LCD_ShowPicture (tp_dev.x[t], tp_dev.y[t], 40, 40, gImage_1);
                    // LCD_Fill (tp_dev.x[t] - 10, tp_dev.y[t] - 10, tp_dev.x[t] + 50, tp_dev.y[t] + 50, WHITE);
                    lastpos[t][0] = tp_dev.x[t];
20000662:	fef44783          	lbu	a5,-17(s0)
20000666:	fef44683          	lbu	a3,-17(s0)
2000066a:	00002717          	auipc	a4,0x2
2000066e:	ffa70713          	addi	a4,a4,-6 # 20002664 <_highcode_vma_end>
20000672:	0786                	slli	a5,a5,0x1
20000674:	97ba                	add	a5,a5,a4
20000676:	0087d703          	lhu	a4,8(a5)
2000067a:	00269793          	slli	a5,a3,0x2
2000067e:	ff040693          	addi	a3,s0,-16
20000682:	97b6                	add	a5,a5,a3
20000684:	fee79a23          	sh	a4,-12(a5)
c:\Users\ql\Desktop\工作\1.28IPS电容触摸技术资料\新建文件夹\CH582M\obj/../src/CST816S.c:181
                    lastpos[t][1] = tp_dev.y[t];
20000688:	fef44783          	lbu	a5,-17(s0)
2000068c:	fef44683          	lbu	a3,-17(s0)
20000690:	00002717          	auipc	a4,0x2
20000694:	fd470713          	addi	a4,a4,-44 # 20002664 <_highcode_vma_end>
20000698:	0786                	slli	a5,a5,0x1
2000069a:	97ba                	add	a5,a5,a4
2000069c:	00c7d703          	lhu	a4,12(a5)
200006a0:	00269793          	slli	a5,a3,0x2
200006a4:	ff040693          	addi	a3,s0,-16
200006a8:	97b6                	add	a5,a5,a3
200006aa:	fee79b23          	sh	a4,-10(a5)
200006ae:	a811                	j	200006c2 <CST816S_test+0x19a>
c:\Users\ql\Desktop\工作\1.28IPS电容触摸技术资料\新建文件夹\CH582M\obj/../src/CST816S.c:185
                }
            } else {

                lastpos[t][0] = 0XFFFF;
200006b0:	fef44783          	lbu	a5,-17(s0)
200006b4:	078a                	slli	a5,a5,0x2
200006b6:	ff040713          	addi	a4,s0,-16
200006ba:	97ba                	add	a5,a5,a4
200006bc:	577d                	li	a4,-1
200006be:	fee79a23          	sh	a4,-12(a5)
c:\Users\ql\Desktop\工作\1.28IPS电容触摸技术资料\新建文件夹\CH582M\obj/../src/CST816S.c:159 (discriminator 2)
        for (t = 0; t < CTP_MAX_TOUCH; t++) {
200006c2:	fef44783          	lbu	a5,-17(s0)
200006c6:	0785                	addi	a5,a5,1
200006c8:	fef407a3          	sb	a5,-17(s0)
c:\Users\ql\Desktop\工作\1.28IPS电容触摸技术资料\新建文件夹\CH582M\obj/../src/CST816S.c:159 (discriminator 1)
200006cc:	fef44703          	lbu	a4,-17(s0)
200006d0:	4785                	li	a5,1
200006d2:	e6e7fde3          	bgeu	a5,a4,2000054c <CST816S_test+0x24>
c:\Users\ql\Desktop\工作\1.28IPS电容触摸技术资料\新建文件夹\CH582M\obj/../src/CST816S.c:188
            }
        }
        if (GPIOA_ReadPortPin (GPIO_Pin_0) == 0)  // 判断PA3状态
200006d6:	400017b7          	lui	a5,0x40001
200006da:	0a478793          	addi	a5,a5,164 # 400010a4 <_eusrstack+0x1fff90a4>
200006de:	439c                	lw	a5,0(a5)
200006e0:	8b85                	andi	a5,a5,1
200006e2:	eb99                	bnez	a5,200006f8 <CST816S_test+0x1d0>
c:\Users\ql\Desktop\工作\1.28IPS电容触摸技术资料\新建文件夹\CH582M\obj/../src/CST816S.c:190
        {
            LCD_Fill (0, 0, LCD_W, LCD_H, WHITE);
200006e4:	67c1                	lui	a5,0x10
200006e6:	fff78713          	addi	a4,a5,-1 # ffff <gImage_8+0x1ce3>
200006ea:	0f000693          	li	a3,240
200006ee:	0f000613          	li	a2,240
200006f2:	4581                	li	a1,0
200006f4:	4501                	li	a0,0
200006f6:	2bf1                	jal	20000cd2 <LCD_Fill>
c:\Users\ql\Desktop\工作\1.28IPS电容触摸技术资料\新建文件夹\CH582M\obj/../src/CST816S.c:192
        }
        if (GPIOA_ReadPortPin (GPIO_Pin_1) == 0)  // 判断PA3状态
200006f8:	400017b7          	lui	a5,0x40001
200006fc:	0a478793          	addi	a5,a5,164 # 400010a4 <_eusrstack+0x1fff90a4>
20000700:	439c                	lw	a5,0(a5)
20000702:	8b89                	andi	a5,a5,2
20000704:	eb89                	bnez	a5,20000716 <CST816S_test+0x1ee>
c:\Users\ql\Desktop\工作\1.28IPS电容触摸技术资料\新建文件夹\CH582M\obj/../src/CST816S.c:194
        {
            LCD_Fill (0, 0, LCD_W, LCD_H, BLACK);
20000706:	4701                	li	a4,0
20000708:	0f000693          	li	a3,240
2000070c:	0f000613          	li	a2,240
20000710:	4581                	li	a1,0
20000712:	4501                	li	a0,0
20000714:	2b7d                	jal	20000cd2 <LCD_Fill>
c:\Users\ql\Desktop\工作\1.28IPS电容触摸技术资料\新建文件夹\CH582M\obj/../src/CST816S.c:197
        }

        if (GPIOA_ReadPortPin (GPIO_Pin_2) == 0)  // 判断PA3状态
20000716:	400017b7          	lui	a5,0x40001
2000071a:	0a478793          	addi	a5,a5,164 # 400010a4 <_eusrstack+0x1fff90a4>
2000071e:	439c                	lw	a5,0(a5)
20000720:	8b91                	andi	a5,a5,4
20000722:	e789                	bnez	a5,2000072c <CST816S_test+0x204>
c:\Users\ql\Desktop\工作\1.28IPS电容触摸技术资料\新建文件夹\CH582M\obj/../src/CST816S.c:199
        {
            color = RED;
20000724:	80000793          	li	a5,-2048
20000728:	fef41623          	sh	a5,-20(s0)
c:\Users\ql\Desktop\工作\1.28IPS电容触摸技术资料\新建文件夹\CH582M\obj/../src/CST816S.c:201
        }
        if (GPIOA_ReadPortPin (GPIO_Pin_3) == 0)  // 判断PA3状态
2000072c:	400017b7          	lui	a5,0x40001
20000730:	0a478793          	addi	a5,a5,164 # 400010a4 <_eusrstack+0x1fff90a4>
20000734:	439c                	lw	a5,0(a5)
20000736:	8ba1                	andi	a5,a5,8
20000738:	e00790e3          	bnez	a5,20000538 <CST816S_test+0x10>
c:\Users\ql\Desktop\工作\1.28IPS电容触摸技术资料\新建文件夹\CH582M\obj/../src/CST816S.c:203
        {
            color = BLUE;
2000073c:	47fd                	li	a5,31
2000073e:	fef41623          	sh	a5,-20(s0)
c:\Users\ql\Desktop\工作\1.28IPS电容触摸技术资料\新建文件夹\CH582M\obj/../src/CST816S.c:157
        tp_dev.scan (0);
20000742:	bbdd                	j	20000538 <CST816S_test+0x10>

20000744 <CTP_SDA_IN>:
CTP_SDA_IN():
c:\Users\ql\Desktop\工作\1.28IPS电容触摸技术资料\新建文件夹\CH582M\obj/../src/CTIIC.c:5
#include "CTIIC.h"
#include "config.h"

__HIGH_CODE
void CTP_SDA_IN (void) {
20000744:	1141                	addi	sp,sp,-16
20000746:	c606                	sw	ra,12(sp)
20000748:	c422                	sw	s0,8(sp)
2000074a:	0800                	addi	s0,sp,16
c:\Users\ql\Desktop\工作\1.28IPS电容触摸技术资料\新建文件夹\CH582M\obj/../src/CTIIC.c:6
    GPIOB_ModeCfg (GPIO_Pin_12, GPIO_ModeIN_PU);  // 上拉输入
2000074c:	4585                	li	a1,1
2000074e:	6505                	lui	a0,0x1
20000750:	e0003097          	auipc	ra,0xe0003
20000754:	118080e7          	jalr	280(ra) # 3868 <GPIOB_ModeCfg>
c:\Users\ql\Desktop\工作\1.28IPS电容触摸技术资料\新建文件夹\CH582M\obj/../src/CTIIC.c:7
    GPIOB_ResetBits (GPIO_Pin_12);                // 可选：将SDA设置为高电平（根据需要）
20000758:	400017b7          	lui	a5,0x40001
2000075c:	0cc78793          	addi	a5,a5,204 # 400010cc <_eusrstack+0x1fff90cc>
20000760:	4394                	lw	a3,0(a5)
20000762:	400017b7          	lui	a5,0x40001
20000766:	0cc78793          	addi	a5,a5,204 # 400010cc <_eusrstack+0x1fff90cc>
2000076a:	6705                	lui	a4,0x1
2000076c:	8f55                	or	a4,a4,a3
2000076e:	c398                	sw	a4,0(a5)
c:\Users\ql\Desktop\工作\1.28IPS电容触摸技术资料\新建文件夹\CH582M\obj/../src/CTIIC.c:8
}
20000770:	0001                	nop
20000772:	40b2                	lw	ra,12(sp)
20000774:	4422                	lw	s0,8(sp)
20000776:	0141                	addi	sp,sp,16
20000778:	8082                	ret

2000077a <CTP_SDA_OUT>:
CTP_SDA_OUT():
c:\Users\ql\Desktop\工作\1.28IPS电容触摸技术资料\新建文件夹\CH582M\obj/../src/CTIIC.c:11

__HIGH_CODE
void CTP_SDA_OUT (void) {
2000077a:	1141                	addi	sp,sp,-16
2000077c:	c606                	sw	ra,12(sp)
2000077e:	c422                	sw	s0,8(sp)
20000780:	0800                	addi	s0,sp,16
c:\Users\ql\Desktop\工作\1.28IPS电容触摸技术资料\新建文件夹\CH582M\obj/../src/CTIIC.c:12
    GPIOB_ModeCfg (GPIO_Pin_12, GPIO_ModeOut_PP_20mA);  // 推挽输出，20mA电流驱动
20000782:	4591                	li	a1,4
20000784:	6505                	lui	a0,0x1
20000786:	e0003097          	auipc	ra,0xe0003
2000078a:	0e2080e7          	jalr	226(ra) # 3868 <GPIOB_ModeCfg>
c:\Users\ql\Desktop\工作\1.28IPS电容触摸技术资料\新建文件夹\CH582M\obj/../src/CTIIC.c:13
    GPIOB_SetBits (GPIO_Pin_12);                        // 设置SDA为高电平
2000078e:	400017b7          	lui	a5,0x40001
20000792:	0c878793          	addi	a5,a5,200 # 400010c8 <_eusrstack+0x1fff90c8>
20000796:	4394                	lw	a3,0(a5)
20000798:	400017b7          	lui	a5,0x40001
2000079c:	0c878793          	addi	a5,a5,200 # 400010c8 <_eusrstack+0x1fff90c8>
200007a0:	6705                	lui	a4,0x1
200007a2:	8f55                	or	a4,a4,a3
200007a4:	c398                	sw	a4,0(a5)
c:\Users\ql\Desktop\工作\1.28IPS电容触摸技术资料\新建文件夹\CH582M\obj/../src/CTIIC.c:14
}
200007a6:	0001                	nop
200007a8:	40b2                	lw	ra,12(sp)
200007aa:	4422                	lw	s0,8(sp)
200007ac:	0141                	addi	sp,sp,16
200007ae:	8082                	ret

200007b0 <CTP_GPIOInit>:
CTP_GPIOInit():
c:\Users\ql\Desktop\工作\1.28IPS电容触摸技术资料\新建文件夹\CH582M\obj/../src/CTIIC.c:17

__HIGH_CODE
void CTP_GPIOInit (void) {
200007b0:	1141                	addi	sp,sp,-16
200007b2:	c606                	sw	ra,12(sp)
200007b4:	c422                	sw	s0,8(sp)
200007b6:	0800                	addi	s0,sp,16
c:\Users\ql\Desktop\工作\1.28IPS电容触摸技术资料\新建文件夹\CH582M\obj/../src/CTIIC.c:18
    GPIOB_ModeCfg (GPIO_Pin_8, GPIO_ModeOut_PP_20mA);
200007b8:	4591                	li	a1,4
200007ba:	10000513          	li	a0,256
200007be:	e0003097          	auipc	ra,0xe0003
200007c2:	0aa080e7          	jalr	170(ra) # 3868 <GPIOB_ModeCfg>
c:\Users\ql\Desktop\工作\1.28IPS电容触摸技术资料\新建文件夹\CH582M\obj/../src/CTIIC.c:19
    GPIOB_SetBits (GPIO_Pin_8);
200007c6:	400017b7          	lui	a5,0x40001
200007ca:	0c878793          	addi	a5,a5,200 # 400010c8 <_eusrstack+0x1fff90c8>
200007ce:	4398                	lw	a4,0(a5)
200007d0:	400017b7          	lui	a5,0x40001
200007d4:	0c878793          	addi	a5,a5,200 # 400010c8 <_eusrstack+0x1fff90c8>
200007d8:	10076713          	ori	a4,a4,256
200007dc:	c398                	sw	a4,0(a5)
c:\Users\ql\Desktop\工作\1.28IPS电容触摸技术资料\新建文件夹\CH582M\obj/../src/CTIIC.c:21

    GPIOB_ModeCfg (GPIO_Pin_9, GPIO_ModeOut_PP_20mA);
200007de:	4591                	li	a1,4
200007e0:	20000513          	li	a0,512
200007e4:	e0003097          	auipc	ra,0xe0003
200007e8:	084080e7          	jalr	132(ra) # 3868 <GPIOB_ModeCfg>
c:\Users\ql\Desktop\工作\1.28IPS电容触摸技术资料\新建文件夹\CH582M\obj/../src/CTIIC.c:22
    GPIOB_SetBits (GPIO_Pin_9);
200007ec:	400017b7          	lui	a5,0x40001
200007f0:	0c878793          	addi	a5,a5,200 # 400010c8 <_eusrstack+0x1fff90c8>
200007f4:	4398                	lw	a4,0(a5)
200007f6:	400017b7          	lui	a5,0x40001
200007fa:	0c878793          	addi	a5,a5,200 # 400010c8 <_eusrstack+0x1fff90c8>
200007fe:	20076713          	ori	a4,a4,512
20000802:	c398                	sw	a4,0(a5)
c:\Users\ql\Desktop\工作\1.28IPS电容触摸技术资料\新建文件夹\CH582M\obj/../src/CTIIC.c:24

    GPIOB_ModeCfg (GPIO_Pin_13, GPIO_ModeOut_PP_20mA);
20000804:	4591                	li	a1,4
20000806:	6509                	lui	a0,0x2
20000808:	e0003097          	auipc	ra,0xe0003
2000080c:	060080e7          	jalr	96(ra) # 3868 <GPIOB_ModeCfg>
c:\Users\ql\Desktop\工作\1.28IPS电容触摸技术资料\新建文件夹\CH582M\obj/../src/CTIIC.c:25
    GPIOB_ModeCfg (GPIO_Pin_12, GPIO_ModeOut_PP_20mA);
20000810:	4591                	li	a1,4
20000812:	6505                	lui	a0,0x1
20000814:	e0003097          	auipc	ra,0xe0003
20000818:	054080e7          	jalr	84(ra) # 3868 <GPIOB_ModeCfg>
c:\Users\ql\Desktop\工作\1.28IPS电容触摸技术资料\新建文件夹\CH582M\obj/../src/CTIIC.c:26
    GPIOB_SetBits (GPIO_Pin_12 | GPIO_Pin_13);  // 设置GPIOB_Pin_0和GPIOB_Pin_1为高电平
2000081c:	400017b7          	lui	a5,0x40001
20000820:	0c878793          	addi	a5,a5,200 # 400010c8 <_eusrstack+0x1fff90c8>
20000824:	4394                	lw	a3,0(a5)
20000826:	400017b7          	lui	a5,0x40001
2000082a:	0c878793          	addi	a5,a5,200 # 400010c8 <_eusrstack+0x1fff90c8>
2000082e:	670d                	lui	a4,0x3
20000830:	8f55                	or	a4,a4,a3
20000832:	c398                	sw	a4,0(a5)
c:\Users\ql\Desktop\工作\1.28IPS电容触摸技术资料\新建文件夹\CH582M\obj/../src/CTIIC.c:27
}
20000834:	0001                	nop
20000836:	40b2                	lw	ra,12(sp)
20000838:	4422                	lw	s0,8(sp)
2000083a:	0141                	addi	sp,sp,16
2000083c:	8082                	ret

2000083e <CTP_INT_IN>:
CTP_INT_IN():
c:\Users\ql\Desktop\工作\1.28IPS电容触摸技术资料\新建文件夹\CH582M\obj/../src/CTIIC.c:30

__HIGH_CODE
void CTP_INT_IN (void) {
2000083e:	1141                	addi	sp,sp,-16
20000840:	c606                	sw	ra,12(sp)
20000842:	c422                	sw	s0,8(sp)
20000844:	0800                	addi	s0,sp,16
c:\Users\ql\Desktop\工作\1.28IPS电容触摸技术资料\新建文件夹\CH582M\obj/../src/CTIIC.c:31
    GPIOB_ModeCfg (GPIO_Pin_8, GPIO_ModeIN_PU);  // 上拉输入
20000846:	4585                	li	a1,1
20000848:	10000513          	li	a0,256
2000084c:	e0003097          	auipc	ra,0xe0003
20000850:	01c080e7          	jalr	28(ra) # 3868 <GPIOB_ModeCfg>
c:\Users\ql\Desktop\工作\1.28IPS电容触摸技术资料\新建文件夹\CH582M\obj/../src/CTIIC.c:32
    GPIOB_ResetBits (GPIO_Pin_8);                // 可选：将INT引脚设置为低电平（根据需要）
20000854:	400017b7          	lui	a5,0x40001
20000858:	0cc78793          	addi	a5,a5,204 # 400010cc <_eusrstack+0x1fff90cc>
2000085c:	4398                	lw	a4,0(a5)
2000085e:	400017b7          	lui	a5,0x40001
20000862:	0cc78793          	addi	a5,a5,204 # 400010cc <_eusrstack+0x1fff90cc>
20000866:	10076713          	ori	a4,a4,256
2000086a:	c398                	sw	a4,0(a5)
c:\Users\ql\Desktop\工作\1.28IPS电容触摸技术资料\新建文件夹\CH582M\obj/../src/CTIIC.c:33
}
2000086c:	0001                	nop
2000086e:	40b2                	lw	ra,12(sp)
20000870:	4422                	lw	s0,8(sp)
20000872:	0141                	addi	sp,sp,16
20000874:	8082                	ret

20000876 <CTP_IIC_Start>:
CTP_IIC_Start():
c:\Users\ql\Desktop\工作\1.28IPS电容触摸技术资料\新建文件夹\CH582M\obj/../src/CTIIC.c:36

__HIGH_CODE
void CTP_IIC_Start (void) {
20000876:	1141                	addi	sp,sp,-16
20000878:	c606                	sw	ra,12(sp)
2000087a:	c422                	sw	s0,8(sp)
2000087c:	0800                	addi	s0,sp,16
c:\Users\ql\Desktop\工作\1.28IPS电容触摸技术资料\新建文件夹\CH582M\obj/../src/CTIIC.c:37
    CTP_SDA_OUT();
2000087e:	3df5                	jal	2000077a <CTP_SDA_OUT>
c:\Users\ql\Desktop\工作\1.28IPS电容触摸技术资料\新建文件夹\CH582M\obj/../src/CTIIC.c:38
    CTP_SDA_Set();
20000880:	400017b7          	lui	a5,0x40001
20000884:	0c878793          	addi	a5,a5,200 # 400010c8 <_eusrstack+0x1fff90c8>
20000888:	4394                	lw	a3,0(a5)
2000088a:	400017b7          	lui	a5,0x40001
2000088e:	0c878793          	addi	a5,a5,200 # 400010c8 <_eusrstack+0x1fff90c8>
20000892:	6705                	lui	a4,0x1
20000894:	8f55                	or	a4,a4,a3
20000896:	c398                	sw	a4,0(a5)
c:\Users\ql\Desktop\工作\1.28IPS电容触摸技术资料\新建文件夹\CH582M\obj/../src/CTIIC.c:39
    CTP_SCL_Set();
20000898:	400017b7          	lui	a5,0x40001
2000089c:	0c878793          	addi	a5,a5,200 # 400010c8 <_eusrstack+0x1fff90c8>
200008a0:	4394                	lw	a3,0(a5)
200008a2:	400017b7          	lui	a5,0x40001
200008a6:	0c878793          	addi	a5,a5,200 # 400010c8 <_eusrstack+0x1fff90c8>
200008aa:	6709                	lui	a4,0x2
200008ac:	8f55                	or	a4,a4,a3
200008ae:	c398                	sw	a4,0(a5)
c:\Users\ql\Desktop\工作\1.28IPS电容触摸技术资料\新建文件夹\CH582M\obj/../src/CTIIC.c:40
    DelayUs(5);  // DelayMs(10);
200008b0:	4515                	li	a0,5
200008b2:	11d010ef          	jal	ra,200021ce <mDelayuS>
c:\Users\ql\Desktop\工作\1.28IPS电容触摸技术资料\新建文件夹\CH582M\obj/../src/CTIIC.c:41
    CTP_SDA_Clr();
200008b6:	400017b7          	lui	a5,0x40001
200008ba:	0cc78793          	addi	a5,a5,204 # 400010cc <_eusrstack+0x1fff90cc>
200008be:	4394                	lw	a3,0(a5)
200008c0:	400017b7          	lui	a5,0x40001
200008c4:	0cc78793          	addi	a5,a5,204 # 400010cc <_eusrstack+0x1fff90cc>
200008c8:	6705                	lui	a4,0x1
200008ca:	8f55                	or	a4,a4,a3
200008cc:	c398                	sw	a4,0(a5)
c:\Users\ql\Desktop\工作\1.28IPS电容触摸技术资料\新建文件夹\CH582M\obj/../src/CTIIC.c:42
    DelayUs(5);  // DelayMs(10);
200008ce:	4515                	li	a0,5
200008d0:	0ff010ef          	jal	ra,200021ce <mDelayuS>
c:\Users\ql\Desktop\工作\1.28IPS电容触摸技术资料\新建文件夹\CH582M\obj/../src/CTIIC.c:43
    CTP_SCL_Clr();
200008d4:	400017b7          	lui	a5,0x40001
200008d8:	0cc78793          	addi	a5,a5,204 # 400010cc <_eusrstack+0x1fff90cc>
200008dc:	4394                	lw	a3,0(a5)
200008de:	400017b7          	lui	a5,0x40001
200008e2:	0cc78793          	addi	a5,a5,204 # 400010cc <_eusrstack+0x1fff90cc>
200008e6:	6709                	lui	a4,0x2
200008e8:	8f55                	or	a4,a4,a3
200008ea:	c398                	sw	a4,0(a5)
c:\Users\ql\Desktop\工作\1.28IPS电容触摸技术资料\新建文件夹\CH582M\obj/../src/CTIIC.c:44
}
200008ec:	0001                	nop
200008ee:	40b2                	lw	ra,12(sp)
200008f0:	4422                	lw	s0,8(sp)
200008f2:	0141                	addi	sp,sp,16
200008f4:	8082                	ret

200008f6 <CTP_IIC_Stop>:
CTP_IIC_Stop():
c:\Users\ql\Desktop\工作\1.28IPS电容触摸技术资料\新建文件夹\CH582M\obj/../src/CTIIC.c:47

__HIGH_CODE
void CTP_IIC_Stop (void) {
200008f6:	1141                	addi	sp,sp,-16
200008f8:	c606                	sw	ra,12(sp)
200008fa:	c422                	sw	s0,8(sp)
200008fc:	0800                	addi	s0,sp,16
c:\Users\ql\Desktop\工作\1.28IPS电容触摸技术资料\新建文件夹\CH582M\obj/../src/CTIIC.c:48
    CTP_SDA_OUT();
200008fe:	3db5                	jal	2000077a <CTP_SDA_OUT>
c:\Users\ql\Desktop\工作\1.28IPS电容触摸技术资料\新建文件夹\CH582M\obj/../src/CTIIC.c:49
    CTP_SCL_Clr();
20000900:	400017b7          	lui	a5,0x40001
20000904:	0cc78793          	addi	a5,a5,204 # 400010cc <_eusrstack+0x1fff90cc>
20000908:	4394                	lw	a3,0(a5)
2000090a:	400017b7          	lui	a5,0x40001
2000090e:	0cc78793          	addi	a5,a5,204 # 400010cc <_eusrstack+0x1fff90cc>
20000912:	6709                	lui	a4,0x2
20000914:	8f55                	or	a4,a4,a3
20000916:	c398                	sw	a4,0(a5)
c:\Users\ql\Desktop\工作\1.28IPS电容触摸技术资料\新建文件夹\CH582M\obj/../src/CTIIC.c:50
    CTP_SDA_Clr();
20000918:	400017b7          	lui	a5,0x40001
2000091c:	0cc78793          	addi	a5,a5,204 # 400010cc <_eusrstack+0x1fff90cc>
20000920:	4394                	lw	a3,0(a5)
20000922:	400017b7          	lui	a5,0x40001
20000926:	0cc78793          	addi	a5,a5,204 # 400010cc <_eusrstack+0x1fff90cc>
2000092a:	6705                	lui	a4,0x1
2000092c:	8f55                	or	a4,a4,a3
2000092e:	c398                	sw	a4,0(a5)
c:\Users\ql\Desktop\工作\1.28IPS电容触摸技术资料\新建文件夹\CH582M\obj/../src/CTIIC.c:51
    DelayUs(5);//DelayMs(10);
20000930:	4515                	li	a0,5
20000932:	09d010ef          	jal	ra,200021ce <mDelayuS>
c:\Users\ql\Desktop\工作\1.28IPS电容触摸技术资料\新建文件夹\CH582M\obj/../src/CTIIC.c:52
    CTP_SCL_Set();
20000936:	400017b7          	lui	a5,0x40001
2000093a:	0c878793          	addi	a5,a5,200 # 400010c8 <_eusrstack+0x1fff90c8>
2000093e:	4394                	lw	a3,0(a5)
20000940:	400017b7          	lui	a5,0x40001
20000944:	0c878793          	addi	a5,a5,200 # 400010c8 <_eusrstack+0x1fff90c8>
20000948:	6709                	lui	a4,0x2
2000094a:	8f55                	or	a4,a4,a3
2000094c:	c398                	sw	a4,0(a5)
c:\Users\ql\Desktop\工作\1.28IPS电容触摸技术资料\新建文件夹\CH582M\obj/../src/CTIIC.c:53
    CTP_SDA_Set();
2000094e:	400017b7          	lui	a5,0x40001
20000952:	0c878793          	addi	a5,a5,200 # 400010c8 <_eusrstack+0x1fff90c8>
20000956:	4394                	lw	a3,0(a5)
20000958:	400017b7          	lui	a5,0x40001
2000095c:	0c878793          	addi	a5,a5,200 # 400010c8 <_eusrstack+0x1fff90c8>
20000960:	6705                	lui	a4,0x1
20000962:	8f55                	or	a4,a4,a3
20000964:	c398                	sw	a4,0(a5)
c:\Users\ql\Desktop\工作\1.28IPS电容触摸技术资料\新建文件夹\CH582M\obj/../src/CTIIC.c:54
}
20000966:	0001                	nop
20000968:	40b2                	lw	ra,12(sp)
2000096a:	4422                	lw	s0,8(sp)
2000096c:	0141                	addi	sp,sp,16
2000096e:	8082                	ret

20000970 <CTP_WaitAck>:
CTP_WaitAck():
c:\Users\ql\Desktop\工作\1.28IPS电容触摸技术资料\新建文件夹\CH582M\obj/../src/CTIIC.c:57

__HIGH_CODE
u8 CTP_WaitAck (void) {
20000970:	1101                	addi	sp,sp,-32
20000972:	ce06                	sw	ra,28(sp)
20000974:	cc22                	sw	s0,24(sp)
20000976:	1000                	addi	s0,sp,32
c:\Users\ql\Desktop\工作\1.28IPS电容触摸技术资料\新建文件夹\CH582M\obj/../src/CTIIC.c:58
    u8 ms = 0;
20000978:	fe0407a3          	sb	zero,-17(s0)
c:\Users\ql\Desktop\工作\1.28IPS电容触摸技术资料\新建文件夹\CH582M\obj/../src/CTIIC.c:59
    CTP_SDA_IN();
2000097c:	33e1                	jal	20000744 <CTP_SDA_IN>
c:\Users\ql\Desktop\工作\1.28IPS电容触摸技术资料\新建文件夹\CH582M\obj/../src/CTIIC.c:60
    CTP_SDA_Set();
2000097e:	400017b7          	lui	a5,0x40001
20000982:	0c878793          	addi	a5,a5,200 # 400010c8 <_eusrstack+0x1fff90c8>
20000986:	4394                	lw	a3,0(a5)
20000988:	400017b7          	lui	a5,0x40001
2000098c:	0c878793          	addi	a5,a5,200 # 400010c8 <_eusrstack+0x1fff90c8>
20000990:	6705                	lui	a4,0x1
20000992:	8f55                	or	a4,a4,a3
20000994:	c398                	sw	a4,0(a5)
c:\Users\ql\Desktop\工作\1.28IPS电容触摸技术资料\新建文件夹\CH582M\obj/../src/CTIIC.c:61
    CTP_SCL_Set();
20000996:	400017b7          	lui	a5,0x40001
2000099a:	0c878793          	addi	a5,a5,200 # 400010c8 <_eusrstack+0x1fff90c8>
2000099e:	4394                	lw	a3,0(a5)
200009a0:	400017b7          	lui	a5,0x40001
200009a4:	0c878793          	addi	a5,a5,200 # 400010c8 <_eusrstack+0x1fff90c8>
200009a8:	6709                	lui	a4,0x2
200009aa:	8f55                	or	a4,a4,a3
200009ac:	c398                	sw	a4,0(a5)
c:\Users\ql\Desktop\工作\1.28IPS电容触摸技术资料\新建文件夹\CH582M\obj/../src/CTIIC.c:62
    DelayUs(5);//DelayMs(10);
200009ae:	4515                	li	a0,5
200009b0:	01f010ef          	jal	ra,200021ce <mDelayuS>
c:\Users\ql\Desktop\工作\1.28IPS电容触摸技术资料\新建文件夹\CH582M\obj/../src/CTIIC.c:63
    while (CTP_ReadSDA) {
200009b4:	a839                	j	200009d2 <CTP_WaitAck+0x62>
c:\Users\ql\Desktop\工作\1.28IPS电容触摸技术资料\新建文件夹\CH582M\obj/../src/CTIIC.c:64
        ms++;
200009b6:	fef44783          	lbu	a5,-17(s0)
200009ba:	0785                	addi	a5,a5,1
200009bc:	fef407a3          	sb	a5,-17(s0)
c:\Users\ql\Desktop\工作\1.28IPS电容触摸技术资料\新建文件夹\CH582M\obj/../src/CTIIC.c:65
        if (ms > 250) {
200009c0:	fef44703          	lbu	a4,-17(s0)
200009c4:	0fa00793          	li	a5,250
200009c8:	00e7f563          	bgeu	a5,a4,200009d2 <CTP_WaitAck+0x62>
c:\Users\ql\Desktop\工作\1.28IPS电容触摸技术资料\新建文件夹\CH582M\obj/../src/CTIIC.c:66
            CTP_IIC_Stop();
200009cc:	372d                	jal	200008f6 <CTP_IIC_Stop>
c:\Users\ql\Desktop\工作\1.28IPS电容触摸技术资料\新建文件夹\CH582M\obj/../src/CTIIC.c:67
            return 1;
200009ce:	4785                	li	a5,1
200009d0:	a035                	j	200009fc <CTP_WaitAck+0x8c>
c:\Users\ql\Desktop\工作\1.28IPS电容触摸技术资料\新建文件夹\CH582M\obj/../src/CTIIC.c:63
    while (CTP_ReadSDA) {
200009d2:	400017b7          	lui	a5,0x40001
200009d6:	0c478793          	addi	a5,a5,196 # 400010c4 <_eusrstack+0x1fff90c4>
200009da:	4398                	lw	a4,0(a5)
200009dc:	6785                	lui	a5,0x1
200009de:	8ff9                	and	a5,a5,a4
200009e0:	fbf9                	bnez	a5,200009b6 <CTP_WaitAck+0x46>
c:\Users\ql\Desktop\工作\1.28IPS电容触摸技术资料\新建文件夹\CH582M\obj/../src/CTIIC.c:70
        }
    }
    CTP_SCL_Clr();
200009e2:	400017b7          	lui	a5,0x40001
200009e6:	0cc78793          	addi	a5,a5,204 # 400010cc <_eusrstack+0x1fff90cc>
200009ea:	4394                	lw	a3,0(a5)
200009ec:	400017b7          	lui	a5,0x40001
200009f0:	0cc78793          	addi	a5,a5,204 # 400010cc <_eusrstack+0x1fff90cc>
200009f4:	6709                	lui	a4,0x2
200009f6:	8f55                	or	a4,a4,a3
200009f8:	c398                	sw	a4,0(a5)
c:\Users\ql\Desktop\工作\1.28IPS电容触摸技术资料\新建文件夹\CH582M\obj/../src/CTIIC.c:71
    return 0;
200009fa:	4781                	li	a5,0
c:\Users\ql\Desktop\工作\1.28IPS电容触摸技术资料\新建文件夹\CH582M\obj/../src/CTIIC.c:72
}
200009fc:	853e                	mv	a0,a5
200009fe:	40f2                	lw	ra,28(sp)
20000a00:	4462                	lw	s0,24(sp)
20000a02:	6105                	addi	sp,sp,32
20000a04:	8082                	ret

20000a06 <CTP_IICAck>:
CTP_IICAck():
c:\Users\ql\Desktop\工作\1.28IPS电容触摸技术资料\新建文件夹\CH582M\obj/../src/CTIIC.c:75

__HIGH_CODE
void CTP_IICAck (void) {
20000a06:	1141                	addi	sp,sp,-16
20000a08:	c606                	sw	ra,12(sp)
20000a0a:	c422                	sw	s0,8(sp)
20000a0c:	0800                	addi	s0,sp,16
c:\Users\ql\Desktop\工作\1.28IPS电容触摸技术资料\新建文件夹\CH582M\obj/../src/CTIIC.c:76
    CTP_SCL_Clr();
20000a0e:	400017b7          	lui	a5,0x40001
20000a12:	0cc78793          	addi	a5,a5,204 # 400010cc <_eusrstack+0x1fff90cc>
20000a16:	4394                	lw	a3,0(a5)
20000a18:	400017b7          	lui	a5,0x40001
20000a1c:	0cc78793          	addi	a5,a5,204 # 400010cc <_eusrstack+0x1fff90cc>
20000a20:	6709                	lui	a4,0x2
20000a22:	8f55                	or	a4,a4,a3
20000a24:	c398                	sw	a4,0(a5)
c:\Users\ql\Desktop\工作\1.28IPS电容触摸技术资料\新建文件夹\CH582M\obj/../src/CTIIC.c:77
    CTP_SDA_OUT();
20000a26:	3b91                	jal	2000077a <CTP_SDA_OUT>
c:\Users\ql\Desktop\工作\1.28IPS电容触摸技术资料\新建文件夹\CH582M\obj/../src/CTIIC.c:78
    DelayUs(5);//DelayMs(5);
20000a28:	4515                	li	a0,5
20000a2a:	7a4010ef          	jal	ra,200021ce <mDelayuS>
c:\Users\ql\Desktop\工作\1.28IPS电容触摸技术资料\新建文件夹\CH582M\obj/../src/CTIIC.c:79
    CTP_SDA_Clr();
20000a2e:	400017b7          	lui	a5,0x40001
20000a32:	0cc78793          	addi	a5,a5,204 # 400010cc <_eusrstack+0x1fff90cc>
20000a36:	4394                	lw	a3,0(a5)
20000a38:	400017b7          	lui	a5,0x40001
20000a3c:	0cc78793          	addi	a5,a5,204 # 400010cc <_eusrstack+0x1fff90cc>
20000a40:	6705                	lui	a4,0x1
20000a42:	8f55                	or	a4,a4,a3
20000a44:	c398                	sw	a4,0(a5)
c:\Users\ql\Desktop\工作\1.28IPS电容触摸技术资料\新建文件夹\CH582M\obj/../src/CTIIC.c:80
    DelayUs(5);//DelayMs(5);
20000a46:	4515                	li	a0,5
20000a48:	786010ef          	jal	ra,200021ce <mDelayuS>
c:\Users\ql\Desktop\工作\1.28IPS电容触摸技术资料\新建文件夹\CH582M\obj/../src/CTIIC.c:81
    CTP_SCL_Set();
20000a4c:	400017b7          	lui	a5,0x40001
20000a50:	0c878793          	addi	a5,a5,200 # 400010c8 <_eusrstack+0x1fff90c8>
20000a54:	4394                	lw	a3,0(a5)
20000a56:	400017b7          	lui	a5,0x40001
20000a5a:	0c878793          	addi	a5,a5,200 # 400010c8 <_eusrstack+0x1fff90c8>
20000a5e:	6709                	lui	a4,0x2
20000a60:	8f55                	or	a4,a4,a3
20000a62:	c398                	sw	a4,0(a5)
c:\Users\ql\Desktop\工作\1.28IPS电容触摸技术资料\新建文件夹\CH582M\obj/../src/CTIIC.c:82
    DelayUs(5);//DelayMs(5);
20000a64:	4515                	li	a0,5
20000a66:	768010ef          	jal	ra,200021ce <mDelayuS>
c:\Users\ql\Desktop\工作\1.28IPS电容触摸技术资料\新建文件夹\CH582M\obj/../src/CTIIC.c:83
    CTP_SCL_Clr();
20000a6a:	400017b7          	lui	a5,0x40001
20000a6e:	0cc78793          	addi	a5,a5,204 # 400010cc <_eusrstack+0x1fff90cc>
20000a72:	4394                	lw	a3,0(a5)
20000a74:	400017b7          	lui	a5,0x40001
20000a78:	0cc78793          	addi	a5,a5,204 # 400010cc <_eusrstack+0x1fff90cc>
20000a7c:	6709                	lui	a4,0x2
20000a7e:	8f55                	or	a4,a4,a3
20000a80:	c398                	sw	a4,0(a5)
c:\Users\ql\Desktop\工作\1.28IPS电容触摸技术资料\新建文件夹\CH582M\obj/../src/CTIIC.c:84
}
20000a82:	0001                	nop
20000a84:	40b2                	lw	ra,12(sp)
20000a86:	4422                	lw	s0,8(sp)
20000a88:	0141                	addi	sp,sp,16
20000a8a:	8082                	ret

20000a8c <CTP_IICNack>:
CTP_IICNack():
c:\Users\ql\Desktop\工作\1.28IPS电容触摸技术资料\新建文件夹\CH582M\obj/../src/CTIIC.c:87

__HIGH_CODE
void CTP_IICNack (void) {
20000a8c:	1141                	addi	sp,sp,-16
20000a8e:	c606                	sw	ra,12(sp)
20000a90:	c422                	sw	s0,8(sp)
20000a92:	0800                	addi	s0,sp,16
c:\Users\ql\Desktop\工作\1.28IPS电容触摸技术资料\新建文件夹\CH582M\obj/../src/CTIIC.c:88
    CTP_SCL_Clr();
20000a94:	400017b7          	lui	a5,0x40001
20000a98:	0cc78793          	addi	a5,a5,204 # 400010cc <_eusrstack+0x1fff90cc>
20000a9c:	4394                	lw	a3,0(a5)
20000a9e:	400017b7          	lui	a5,0x40001
20000aa2:	0cc78793          	addi	a5,a5,204 # 400010cc <_eusrstack+0x1fff90cc>
20000aa6:	6709                	lui	a4,0x2
20000aa8:	8f55                	or	a4,a4,a3
20000aaa:	c398                	sw	a4,0(a5)
c:\Users\ql\Desktop\工作\1.28IPS电容触摸技术资料\新建文件夹\CH582M\obj/../src/CTIIC.c:89
    CTP_SDA_OUT();
20000aac:	31f9                	jal	2000077a <CTP_SDA_OUT>
c:\Users\ql\Desktop\工作\1.28IPS电容触摸技术资料\新建文件夹\CH582M\obj/../src/CTIIC.c:90
    DelayUs(5);//DelayMs(5);
20000aae:	4515                	li	a0,5
20000ab0:	71e010ef          	jal	ra,200021ce <mDelayuS>
c:\Users\ql\Desktop\工作\1.28IPS电容触摸技术资料\新建文件夹\CH582M\obj/../src/CTIIC.c:91
    CTP_SDA_Set();
20000ab4:	400017b7          	lui	a5,0x40001
20000ab8:	0c878793          	addi	a5,a5,200 # 400010c8 <_eusrstack+0x1fff90c8>
20000abc:	4394                	lw	a3,0(a5)
20000abe:	400017b7          	lui	a5,0x40001
20000ac2:	0c878793          	addi	a5,a5,200 # 400010c8 <_eusrstack+0x1fff90c8>
20000ac6:	6705                	lui	a4,0x1
20000ac8:	8f55                	or	a4,a4,a3
20000aca:	c398                	sw	a4,0(a5)
c:\Users\ql\Desktop\工作\1.28IPS电容触摸技术资料\新建文件夹\CH582M\obj/../src/CTIIC.c:92
    DelayUs(5);//DelayMs(5);
20000acc:	4515                	li	a0,5
20000ace:	700010ef          	jal	ra,200021ce <mDelayuS>
c:\Users\ql\Desktop\工作\1.28IPS电容触摸技术资料\新建文件夹\CH582M\obj/../src/CTIIC.c:93
    CTP_SCL_Set();
20000ad2:	400017b7          	lui	a5,0x40001
20000ad6:	0c878793          	addi	a5,a5,200 # 400010c8 <_eusrstack+0x1fff90c8>
20000ada:	4394                	lw	a3,0(a5)
20000adc:	400017b7          	lui	a5,0x40001
20000ae0:	0c878793          	addi	a5,a5,200 # 400010c8 <_eusrstack+0x1fff90c8>
20000ae4:	6709                	lui	a4,0x2
20000ae6:	8f55                	or	a4,a4,a3
20000ae8:	c398                	sw	a4,0(a5)
c:\Users\ql\Desktop\工作\1.28IPS电容触摸技术资料\新建文件夹\CH582M\obj/../src/CTIIC.c:94
    DelayUs(5);//DelayMs(5);
20000aea:	4515                	li	a0,5
20000aec:	6e2010ef          	jal	ra,200021ce <mDelayuS>
c:\Users\ql\Desktop\工作\1.28IPS电容触摸技术资料\新建文件夹\CH582M\obj/../src/CTIIC.c:95
    CTP_SCL_Clr();
20000af0:	400017b7          	lui	a5,0x40001
20000af4:	0cc78793          	addi	a5,a5,204 # 400010cc <_eusrstack+0x1fff90cc>
20000af8:	4394                	lw	a3,0(a5)
20000afa:	400017b7          	lui	a5,0x40001
20000afe:	0cc78793          	addi	a5,a5,204 # 400010cc <_eusrstack+0x1fff90cc>
20000b02:	6709                	lui	a4,0x2
20000b04:	8f55                	or	a4,a4,a3
20000b06:	c398                	sw	a4,0(a5)
c:\Users\ql\Desktop\工作\1.28IPS电容触摸技术资料\新建文件夹\CH582M\obj/../src/CTIIC.c:96
}
20000b08:	0001                	nop
20000b0a:	40b2                	lw	ra,12(sp)
20000b0c:	4422                	lw	s0,8(sp)
20000b0e:	0141                	addi	sp,sp,16
20000b10:	8082                	ret

20000b12 <CTP_SendByte>:
CTP_SendByte():
c:\Users\ql\Desktop\工作\1.28IPS电容触摸技术资料\新建文件夹\CH582M\obj/../src/CTIIC.c:99

__HIGH_CODE
void CTP_SendByte (u8 dat) {
20000b12:	7179                	addi	sp,sp,-48
20000b14:	d606                	sw	ra,44(sp)
20000b16:	d422                	sw	s0,40(sp)
20000b18:	1800                	addi	s0,sp,48
20000b1a:	87aa                	mv	a5,a0
20000b1c:	fcf40fa3          	sb	a5,-33(s0)
c:\Users\ql\Desktop\工作\1.28IPS电容触摸技术资料\新建文件夹\CH582M\obj/../src/CTIIC.c:101
    u8 i;
    CTP_SDA_OUT();
20000b20:	39a9                	jal	2000077a <CTP_SDA_OUT>
c:\Users\ql\Desktop\工作\1.28IPS电容触摸技术资料\新建文件夹\CH582M\obj/../src/CTIIC.c:102
    CTP_SCL_Clr();
20000b22:	400017b7          	lui	a5,0x40001
20000b26:	0cc78793          	addi	a5,a5,204 # 400010cc <_eusrstack+0x1fff90cc>
20000b2a:	4394                	lw	a3,0(a5)
20000b2c:	400017b7          	lui	a5,0x40001
20000b30:	0cc78793          	addi	a5,a5,204 # 400010cc <_eusrstack+0x1fff90cc>
20000b34:	6709                	lui	a4,0x2
20000b36:	8f55                	or	a4,a4,a3
20000b38:	c398                	sw	a4,0(a5)
c:\Users\ql\Desktop\工作\1.28IPS电容触摸技术资料\新建文件夹\CH582M\obj/../src/CTIIC.c:103
    for (i = 0; i < 8; i++) {
20000b3a:	fe0407a3          	sb	zero,-17(s0)
20000b3e:	a071                	j	20000bca <CTP_SendByte+0xb8>
c:\Users\ql\Desktop\工作\1.28IPS电容触摸技术资料\新建文件夹\CH582M\obj/../src/CTIIC.c:105
        //  CT_IIC_SDA=(dat&0x80)>>7;
        if ((dat & 0x80) >> 7) {
20000b40:	fdf40783          	lb	a5,-33(s0)
20000b44:	0007df63          	bgez	a5,20000b62 <CTP_SendByte+0x50>
c:\Users\ql\Desktop\工作\1.28IPS电容触摸技术资料\新建文件夹\CH582M\obj/../src/CTIIC.c:106
            CTP_SDA_Set();
20000b48:	400017b7          	lui	a5,0x40001
20000b4c:	0c878793          	addi	a5,a5,200 # 400010c8 <_eusrstack+0x1fff90c8>
20000b50:	4394                	lw	a3,0(a5)
20000b52:	400017b7          	lui	a5,0x40001
20000b56:	0c878793          	addi	a5,a5,200 # 400010c8 <_eusrstack+0x1fff90c8>
20000b5a:	6705                	lui	a4,0x1
20000b5c:	8f55                	or	a4,a4,a3
20000b5e:	c398                	sw	a4,0(a5)
20000b60:	a829                	j	20000b7a <CTP_SendByte+0x68>
c:\Users\ql\Desktop\工作\1.28IPS电容触摸技术资料\新建文件夹\CH582M\obj/../src/CTIIC.c:108
        } else {
            CTP_SDA_Clr();
20000b62:	400017b7          	lui	a5,0x40001
20000b66:	0cc78793          	addi	a5,a5,204 # 400010cc <_eusrstack+0x1fff90cc>
20000b6a:	4394                	lw	a3,0(a5)
20000b6c:	400017b7          	lui	a5,0x40001
20000b70:	0cc78793          	addi	a5,a5,204 # 400010cc <_eusrstack+0x1fff90cc>
20000b74:	6705                	lui	a4,0x1
20000b76:	8f55                	or	a4,a4,a3
20000b78:	c398                	sw	a4,0(a5)
c:\Users\ql\Desktop\工作\1.28IPS电容触摸技术资料\新建文件夹\CH582M\obj/../src/CTIIC.c:110 (discriminator 2)
        }
        dat <<= 1;
20000b7a:	fdf44783          	lbu	a5,-33(s0)
20000b7e:	0786                	slli	a5,a5,0x1
20000b80:	fcf40fa3          	sb	a5,-33(s0)
c:\Users\ql\Desktop\工作\1.28IPS电容触摸技术资料\新建文件夹\CH582M\obj/../src/CTIIC.c:111 (discriminator 2)
        CTP_SCL_Set();
20000b84:	400017b7          	lui	a5,0x40001
20000b88:	0c878793          	addi	a5,a5,200 # 400010c8 <_eusrstack+0x1fff90c8>
20000b8c:	4394                	lw	a3,0(a5)
20000b8e:	400017b7          	lui	a5,0x40001
20000b92:	0c878793          	addi	a5,a5,200 # 400010c8 <_eusrstack+0x1fff90c8>
20000b96:	6709                	lui	a4,0x2
20000b98:	8f55                	or	a4,a4,a3
20000b9a:	c398                	sw	a4,0(a5)
c:\Users\ql\Desktop\工作\1.28IPS电容触摸技术资料\新建文件夹\CH582M\obj/../src/CTIIC.c:112 (discriminator 2)
        DelayUs(5);;//DelayMs(5);
20000b9c:	4515                	li	a0,5
20000b9e:	630010ef          	jal	ra,200021ce <mDelayuS>
c:\Users\ql\Desktop\工作\1.28IPS电容触摸技术资料\新建文件夹\CH582M\obj/../src/CTIIC.c:113 (discriminator 2)
        CTP_SCL_Clr();
20000ba2:	400017b7          	lui	a5,0x40001
20000ba6:	0cc78793          	addi	a5,a5,204 # 400010cc <_eusrstack+0x1fff90cc>
20000baa:	4394                	lw	a3,0(a5)
20000bac:	400017b7          	lui	a5,0x40001
20000bb0:	0cc78793          	addi	a5,a5,204 # 400010cc <_eusrstack+0x1fff90cc>
20000bb4:	6709                	lui	a4,0x2
20000bb6:	8f55                	or	a4,a4,a3
20000bb8:	c398                	sw	a4,0(a5)
c:\Users\ql\Desktop\工作\1.28IPS电容触摸技术资料\新建文件夹\CH582M\obj/../src/CTIIC.c:114 (discriminator 2)
        DelayUs(5);//DelayMs(5);
20000bba:	4515                	li	a0,5
20000bbc:	612010ef          	jal	ra,200021ce <mDelayuS>
c:\Users\ql\Desktop\工作\1.28IPS电容触摸技术资料\新建文件夹\CH582M\obj/../src/CTIIC.c:103 (discriminator 2)
    for (i = 0; i < 8; i++) {
20000bc0:	fef44783          	lbu	a5,-17(s0)
20000bc4:	0785                	addi	a5,a5,1
20000bc6:	fef407a3          	sb	a5,-17(s0)
c:\Users\ql\Desktop\工作\1.28IPS电容触摸技术资料\新建文件夹\CH582M\obj/../src/CTIIC.c:103 (discriminator 1)
20000bca:	fef44703          	lbu	a4,-17(s0)
20000bce:	479d                	li	a5,7
20000bd0:	f6e7f8e3          	bgeu	a5,a4,20000b40 <CTP_SendByte+0x2e>
c:\Users\ql\Desktop\工作\1.28IPS电容触摸技术资料\新建文件夹\CH582M\obj/../src/CTIIC.c:116
    }
}
20000bd4:	0001                	nop
20000bd6:	50b2                	lw	ra,44(sp)
20000bd8:	5422                	lw	s0,40(sp)
20000bda:	6145                	addi	sp,sp,48
20000bdc:	8082                	ret

20000bde <CTP_ReadByte>:
CTP_ReadByte():
c:\Users\ql\Desktop\工作\1.28IPS电容触摸技术资料\新建文件夹\CH582M\obj/../src/CTIIC.c:119

__HIGH_CODE
u8 CTP_ReadByte (u8 ack) {
20000bde:	7179                	addi	sp,sp,-48
20000be0:	d606                	sw	ra,44(sp)
20000be2:	d422                	sw	s0,40(sp)
20000be4:	1800                	addi	s0,sp,48
20000be6:	87aa                	mv	a5,a0
20000be8:	fcf40fa3          	sb	a5,-33(s0)
c:\Users\ql\Desktop\工作\1.28IPS电容触摸技术资料\新建文件夹\CH582M\obj/../src/CTIIC.c:121
    u8 i, dat;
    CTP_SDA_IN();
20000bec:	3ea1                	jal	20000744 <CTP_SDA_IN>
c:\Users\ql\Desktop\工作\1.28IPS电容触摸技术资料\新建文件夹\CH582M\obj/../src/CTIIC.c:122
    for (i = 0; i < 8; i++) {
20000bee:	fe0407a3          	sb	zero,-17(s0)
20000bf2:	a09d                	j	20000c58 <CTP_ReadByte+0x7a>
c:\Users\ql\Desktop\工作\1.28IPS电容触摸技术资料\新建文件夹\CH582M\obj/../src/CTIIC.c:123
        CTP_SCL_Clr();
20000bf4:	400017b7          	lui	a5,0x40001
20000bf8:	0cc78793          	addi	a5,a5,204 # 400010cc <_eusrstack+0x1fff90cc>
20000bfc:	4394                	lw	a3,0(a5)
20000bfe:	400017b7          	lui	a5,0x40001
20000c02:	0cc78793          	addi	a5,a5,204 # 400010cc <_eusrstack+0x1fff90cc>
20000c06:	6709                	lui	a4,0x2
20000c08:	8f55                	or	a4,a4,a3
20000c0a:	c398                	sw	a4,0(a5)
c:\Users\ql\Desktop\工作\1.28IPS电容触摸技术资料\新建文件夹\CH582M\obj/../src/CTIIC.c:124
        DelayUs(5);//DelayMs(5);
20000c0c:	4515                	li	a0,5
20000c0e:	5c0010ef          	jal	ra,200021ce <mDelayuS>
c:\Users\ql\Desktop\工作\1.28IPS电容触摸技术资料\新建文件夹\CH582M\obj/../src/CTIIC.c:125
        CTP_SCL_Set();
20000c12:	400017b7          	lui	a5,0x40001
20000c16:	0c878793          	addi	a5,a5,200 # 400010c8 <_eusrstack+0x1fff90c8>
20000c1a:	4394                	lw	a3,0(a5)
20000c1c:	400017b7          	lui	a5,0x40001
20000c20:	0c878793          	addi	a5,a5,200 # 400010c8 <_eusrstack+0x1fff90c8>
20000c24:	6709                	lui	a4,0x2
20000c26:	8f55                	or	a4,a4,a3
20000c28:	c398                	sw	a4,0(a5)
c:\Users\ql\Desktop\工作\1.28IPS电容触摸技术资料\新建文件夹\CH582M\obj/../src/CTIIC.c:126
        dat <<= 1;
20000c2a:	fee44783          	lbu	a5,-18(s0)
20000c2e:	0786                	slli	a5,a5,0x1
20000c30:	fef40723          	sb	a5,-18(s0)
c:\Users\ql\Desktop\工作\1.28IPS电容触摸技术资料\新建文件夹\CH582M\obj/../src/CTIIC.c:127
        if (CTP_ReadSDA)
20000c34:	400017b7          	lui	a5,0x40001
20000c38:	0c478793          	addi	a5,a5,196 # 400010c4 <_eusrstack+0x1fff90c4>
20000c3c:	4398                	lw	a4,0(a5)
20000c3e:	6785                	lui	a5,0x1
20000c40:	8ff9                	and	a5,a5,a4
20000c42:	c791                	beqz	a5,20000c4e <CTP_ReadByte+0x70>
c:\Users\ql\Desktop\工作\1.28IPS电容触摸技术资料\新建文件夹\CH582M\obj/../src/CTIIC.c:128
            dat++;
20000c44:	fee44783          	lbu	a5,-18(s0)
20000c48:	0785                	addi	a5,a5,1
20000c4a:	fef40723          	sb	a5,-18(s0)
c:\Users\ql\Desktop\工作\1.28IPS电容触摸技术资料\新建文件夹\CH582M\obj/../src/CTIIC.c:122 (discriminator 2)
    for (i = 0; i < 8; i++) {
20000c4e:	fef44783          	lbu	a5,-17(s0)
20000c52:	0785                	addi	a5,a5,1
20000c54:	fef407a3          	sb	a5,-17(s0)
c:\Users\ql\Desktop\工作\1.28IPS电容触摸技术资料\新建文件夹\CH582M\obj/../src/CTIIC.c:122 (discriminator 1)
20000c58:	fef44703          	lbu	a4,-17(s0)
20000c5c:	479d                	li	a5,7
20000c5e:	f8e7fbe3          	bgeu	a5,a4,20000bf4 <CTP_ReadByte+0x16>
c:\Users\ql\Desktop\工作\1.28IPS电容触摸技术资料\新建文件夹\CH582M\obj/../src/CTIIC.c:130
    }
    if (!ack) {
20000c62:	fdf44783          	lbu	a5,-33(s0)
20000c66:	e399                	bnez	a5,20000c6c <CTP_ReadByte+0x8e>
c:\Users\ql\Desktop\工作\1.28IPS电容触摸技术资料\新建文件夹\CH582M\obj/../src/CTIIC.c:131
        CTP_IICNack();
20000c68:	3515                	jal	20000a8c <CTP_IICNack>
20000c6a:	a011                	j	20000c6e <CTP_ReadByte+0x90>
c:\Users\ql\Desktop\工作\1.28IPS电容触摸技术资料\新建文件夹\CH582M\obj/../src/CTIIC.c:133
    } else {
        CTP_IICAck();
20000c6c:	3b69                	jal	20000a06 <CTP_IICAck>
c:\Users\ql\Desktop\工作\1.28IPS电容触摸技术资料\新建文件夹\CH582M\obj/../src/CTIIC.c:135
    }
    return dat;
20000c6e:	fee44783          	lbu	a5,-18(s0)
c:\Users\ql\Desktop\工作\1.28IPS电容触摸技术资料\新建文件夹\CH582M\obj/../src/CTIIC.c:136
}
20000c72:	853e                	mv	a0,a5
20000c74:	50b2                	lw	ra,44(sp)
20000c76:	5422                	lw	s0,40(sp)
20000c78:	6145                	addi	sp,sp,48
20000c7a:	8082                	ret

20000c7c <main>:
main():
c:\Users\ql\Desktop\工作\1.28IPS电容触摸技术资料\新建文件夹\CH582M\obj/../src/Main.c:12
 *
 * @return  none
 */

__HIGH_CODE
int main() {
20000c7c:	1141                	addi	sp,sp,-16
20000c7e:	c606                	sw	ra,12(sp)
20000c80:	c422                	sw	s0,8(sp)
20000c82:	0800                	addi	s0,sp,16
c:\Users\ql\Desktop\工作\1.28IPS电容触摸技术资料\新建文件夹\CH582M\obj/../src/Main.c:15

    u8 i, j;
    LCD_BLK_Set();
20000c84:	400017b7          	lui	a5,0x40001
20000c88:	0cc78793          	addi	a5,a5,204 # 400010cc <_eusrstack+0x1fff90cc>
20000c8c:	4394                	lw	a3,0(a5)
20000c8e:	400017b7          	lui	a5,0x40001
20000c92:	0cc78793          	addi	a5,a5,204 # 400010cc <_eusrstack+0x1fff90cc>
20000c96:	6741                	lui	a4,0x10
20000c98:	8f55                	or	a4,a4,a3
20000c9a:	c398                	sw	a4,0(a5)
c:\Users\ql\Desktop\工作\1.28IPS电容触摸技术资料\新建文件夹\CH582M\obj/../src/Main.c:16
    SetSysClock (CLK_SOURCE_PLL_80MHz);
20000c9c:	04600513          	li	a0,70
20000ca0:	3fb000ef          	jal	ra,2000189a <SetSysClock>
c:\Users\ql\Desktop\工作\1.28IPS电容触摸技术资料\新建文件夹\CH582M\obj/../src/Main.c:19

    
    KEY_GPIO_init();    //按键初始化
20000ca4:	e0002097          	auipc	ra,0xe0002
20000ca8:	b20080e7          	jalr	-1248(ra) # 27c4 <KEY_GPIO_init>
c:\Users\ql\Desktop\工作\1.28IPS电容触摸技术资料\新建文件夹\CH582M\obj/../src/Main.c:20
    LCD_Init();  // LCD初始化
20000cac:	e0002097          	auipc	ra,0xe0002
20000cb0:	c24080e7          	jalr	-988(ra) # 28d0 <LCD_Init>
c:\Users\ql\Desktop\工作\1.28IPS电容触摸技术资料\新建文件夹\CH582M\obj/../src/Main.c:21
    CST816S_Init(); //触摸初始化
20000cb4:	cfcff0ef          	jal	ra,200001b0 <CST816S_Init>
c:\Users\ql\Desktop\工作\1.28IPS电容触摸技术资料\新建文件夹\CH582M\obj/../src/Main.c:23

    LCD_Fill (0, 0, LCD_W, LCD_H, WHITE);    //填充纯色
20000cb8:	67c1                	lui	a5,0x10
20000cba:	fff78713          	addi	a4,a5,-1 # ffff <gImage_8+0x1ce3>
20000cbe:	0f000693          	li	a3,240
20000cc2:	0f000613          	li	a2,240
20000cc6:	4581                	li	a1,0
20000cc8:	4501                	li	a0,0
20000cca:	2021                	jal	20000cd2 <LCD_Fill>
c:\Users\ql\Desktop\工作\1.28IPS电容触摸技术资料\新建文件夹\CH582M\obj/../src/Main.c:28 (discriminator 1)
    // LCD_ShowPicture(0,0,240,240,gImage_9);      //填充一张背景图


    while (1) {
        user();
20000ccc:	3b5000ef          	jal	ra,20001880 <user>
20000cd0:	bff5                	j	20000ccc <main+0x50>

20000cd2 <LCD_Fill>:
LCD_Fill():
c:\Users\ql\Desktop\工作\1.28IPS电容触摸技术资料\新建文件夹\CH582M\obj/../src/lcd.c:21
                xend,yend   终止坐标
                                                                color       要填充的颜色
      返回值：  无
******************************************************************************/
__HIGH_CODE
void LCD_Fill (u16 xsta, u16 ysta, u16 xend, u16 yend, u16 color) {
20000cd2:	7179                	addi	sp,sp,-48
20000cd4:	d606                	sw	ra,44(sp)
20000cd6:	d422                	sw	s0,40(sp)
20000cd8:	1800                	addi	s0,sp,48
20000cda:	87aa                	mv	a5,a0
20000cdc:	fcf41f23          	sh	a5,-34(s0)
20000ce0:	87ae                	mv	a5,a1
20000ce2:	fcf41e23          	sh	a5,-36(s0)
20000ce6:	87b2                	mv	a5,a2
20000ce8:	fcf41d23          	sh	a5,-38(s0)
20000cec:	87b6                	mv	a5,a3
20000cee:	fcf41c23          	sh	a5,-40(s0)
20000cf2:	87ba                	mv	a5,a4
20000cf4:	fcf41b23          	sh	a5,-42(s0)
c:\Users\ql\Desktop\工作\1.28IPS电容触摸技术资料\新建文件夹\CH582M\obj/../src/lcd.c:23
    u16 i, j;
    LCD_Address_Set (xsta, ysta, xend - 1, yend - 1);  // 设置显示范围
20000cf8:	fda45783          	lhu	a5,-38(s0)
20000cfc:	17fd                	addi	a5,a5,-1
20000cfe:	01079613          	slli	a2,a5,0x10
20000d02:	8241                	srli	a2,a2,0x10
20000d04:	fd845783          	lhu	a5,-40(s0)
20000d08:	17fd                	addi	a5,a5,-1
20000d0a:	01079693          	slli	a3,a5,0x10
20000d0e:	82c1                	srli	a3,a3,0x10
20000d10:	fdc45703          	lhu	a4,-36(s0)
20000d14:	fde45783          	lhu	a5,-34(s0)
20000d18:	85ba                	mv	a1,a4
20000d1a:	853e                	mv	a0,a5
20000d1c:	307000ef          	jal	ra,20001822 <LCD_Address_Set>
c:\Users\ql\Desktop\工作\1.28IPS电容触摸技术资料\新建文件夹\CH582M\obj/../src/lcd.c:24
    for (i = ysta; i < yend; i++) {
20000d20:	fdc45783          	lhu	a5,-36(s0)
20000d24:	fef41723          	sh	a5,-18(s0)
20000d28:	a81d                	j	20000d5e <LCD_Fill+0x8c>
c:\Users\ql\Desktop\工作\1.28IPS电容触摸技术资料\新建文件夹\CH582M\obj/../src/lcd.c:25
        for (j = xsta; j < xend; j++) {
20000d2a:	fde45783          	lhu	a5,-34(s0)
20000d2e:	fef41623          	sh	a5,-20(s0)
20000d32:	a819                	j	20000d48 <LCD_Fill+0x76>
c:\Users\ql\Desktop\工作\1.28IPS电容触摸技术资料\新建文件夹\CH582M\obj/../src/lcd.c:26 (discriminator 3)
            LCD_WR_DATA (color);
20000d34:	fd645783          	lhu	a5,-42(s0)
20000d38:	853e                	mv	a0,a5
20000d3a:	24b000ef          	jal	ra,20001784 <LCD_WR_DATA>
c:\Users\ql\Desktop\工作\1.28IPS电容触摸技术资料\新建文件夹\CH582M\obj/../src/lcd.c:25 (discriminator 3)
        for (j = xsta; j < xend; j++) {
20000d3e:	fec45783          	lhu	a5,-20(s0)
20000d42:	0785                	addi	a5,a5,1
20000d44:	fef41623          	sh	a5,-20(s0)
c:\Users\ql\Desktop\工作\1.28IPS电容触摸技术资料\新建文件夹\CH582M\obj/../src/lcd.c:25 (discriminator 1)
20000d48:	fec45703          	lhu	a4,-20(s0)
20000d4c:	fda45783          	lhu	a5,-38(s0)
20000d50:	fef762e3          	bltu	a4,a5,20000d34 <LCD_Fill+0x62>
c:\Users\ql\Desktop\工作\1.28IPS电容触摸技术资料\新建文件夹\CH582M\obj/../src/lcd.c:24 (discriminator 2)
    for (i = ysta; i < yend; i++) {
20000d54:	fee45783          	lhu	a5,-18(s0)
20000d58:	0785                	addi	a5,a5,1
20000d5a:	fef41723          	sh	a5,-18(s0)
c:\Users\ql\Desktop\工作\1.28IPS电容触摸技术资料\新建文件夹\CH582M\obj/../src/lcd.c:24 (discriminator 1)
20000d5e:	fee45703          	lhu	a4,-18(s0)
20000d62:	fd845783          	lhu	a5,-40(s0)
20000d66:	fcf762e3          	bltu	a4,a5,20000d2a <LCD_Fill+0x58>
c:\Users\ql\Desktop\工作\1.28IPS电容触摸技术资料\新建文件夹\CH582M\obj/../src/lcd.c:29
        }
    }
}
20000d6a:	0001                	nop
20000d6c:	50b2                	lw	ra,44(sp)
20000d6e:	5422                	lw	s0,40(sp)
20000d70:	6145                	addi	sp,sp,48
20000d72:	8082                	ret

20000d74 <LCD_DrawPoint>:
LCD_DrawPoint():
c:\Users\ql\Desktop\工作\1.28IPS电容触摸技术资料\新建文件夹\CH582M\obj/../src/lcd.c:38
      入口数据：x,y 画点坐标
                color 点的颜色
      返回值：  无
******************************************************************************/
__HIGH_CODE
void LCD_DrawPoint (u16 x, u16 y, u16 color) {
20000d74:	1101                	addi	sp,sp,-32
20000d76:	ce06                	sw	ra,28(sp)
20000d78:	cc22                	sw	s0,24(sp)
20000d7a:	1000                	addi	s0,sp,32
20000d7c:	87aa                	mv	a5,a0
20000d7e:	86ae                	mv	a3,a1
20000d80:	8732                	mv	a4,a2
20000d82:	fef41723          	sh	a5,-18(s0)
20000d86:	87b6                	mv	a5,a3
20000d88:	fef41623          	sh	a5,-20(s0)
20000d8c:	87ba                	mv	a5,a4
20000d8e:	fef41523          	sh	a5,-22(s0)
c:\Users\ql\Desktop\工作\1.28IPS电容触摸技术资料\新建文件夹\CH582M\obj/../src/lcd.c:39
    LCD_Address_Set (x, y, x, y);  // 设置光标位置
20000d92:	fec45683          	lhu	a3,-20(s0)
20000d96:	fee45603          	lhu	a2,-18(s0)
20000d9a:	fec45703          	lhu	a4,-20(s0)
20000d9e:	fee45783          	lhu	a5,-18(s0)
20000da2:	85ba                	mv	a1,a4
20000da4:	853e                	mv	a0,a5
20000da6:	27d000ef          	jal	ra,20001822 <LCD_Address_Set>
c:\Users\ql\Desktop\工作\1.28IPS电容触摸技术资料\新建文件夹\CH582M\obj/../src/lcd.c:40
    LCD_WR_DATA (color);
20000daa:	fea45783          	lhu	a5,-22(s0)
20000dae:	853e                	mv	a0,a5
20000db0:	1d5000ef          	jal	ra,20001784 <LCD_WR_DATA>
c:\Users\ql\Desktop\工作\1.28IPS电容触摸技术资料\新建文件夹\CH582M\obj/../src/lcd.c:41
}
20000db4:	0001                	nop
20000db6:	40f2                	lw	ra,28(sp)
20000db8:	4462                	lw	s0,24(sp)
20000dba:	6105                	addi	sp,sp,32
20000dbc:	8082                	ret

20000dbe <LCD_DrawLine>:
LCD_DrawLine():
c:\Users\ql\Desktop\工作\1.28IPS电容触摸技术资料\新建文件夹\CH582M\obj/../src/lcd.c:51
                x2,y2   终止坐标
                color   线的颜色
      返回值：  无
******************************************************************************/
__HIGH_CODE
void LCD_DrawLine (u16 x1, u16 y1, u16 x2, u16 y2, u16 color) {
20000dbe:	715d                	addi	sp,sp,-80
20000dc0:	c686                	sw	ra,76(sp)
20000dc2:	c4a2                	sw	s0,72(sp)
20000dc4:	0880                	addi	s0,sp,80
20000dc6:	87aa                	mv	a5,a0
20000dc8:	faf41f23          	sh	a5,-66(s0)
20000dcc:	87ae                	mv	a5,a1
20000dce:	faf41e23          	sh	a5,-68(s0)
20000dd2:	87b2                	mv	a5,a2
20000dd4:	faf41d23          	sh	a5,-70(s0)
20000dd8:	87b6                	mv	a5,a3
20000dda:	faf41c23          	sh	a5,-72(s0)
20000dde:	87ba                	mv	a5,a4
20000de0:	faf41b23          	sh	a5,-74(s0)
c:\Users\ql\Desktop\工作\1.28IPS电容触摸技术资料\新建文件夹\CH582M\obj/../src/lcd.c:53
    u16 t;
    int xerr = 0, yerr = 0, delta_x, delta_y, distance;
20000de4:	fe042423          	sw	zero,-24(s0)
20000de8:	fe042223          	sw	zero,-28(s0)
c:\Users\ql\Desktop\工作\1.28IPS电容触摸技术资料\新建文件夹\CH582M\obj/../src/lcd.c:55
    int incx, incy, uRow, uCol;
    delta_x = x2 - x1;  // 计算坐标增量
20000dec:	fba45703          	lhu	a4,-70(s0)
20000df0:	fbe45783          	lhu	a5,-66(s0)
20000df4:	40f707b3          	sub	a5,a4,a5
20000df8:	fef42023          	sw	a5,-32(s0)
c:\Users\ql\Desktop\工作\1.28IPS电容触摸技术资料\新建文件夹\CH582M\obj/../src/lcd.c:56
    delta_y = y2 - y1;
20000dfc:	fb845703          	lhu	a4,-72(s0)
20000e00:	fbc45783          	lhu	a5,-68(s0)
20000e04:	40f707b3          	sub	a5,a4,a5
20000e08:	fcf42e23          	sw	a5,-36(s0)
c:\Users\ql\Desktop\工作\1.28IPS电容触摸技术资料\新建文件夹\CH582M\obj/../src/lcd.c:57
    uRow = x1;          // 画线起点坐标
20000e0c:	fbe45783          	lhu	a5,-66(s0)
20000e10:	fcf42623          	sw	a5,-52(s0)
c:\Users\ql\Desktop\工作\1.28IPS电容触摸技术资料\新建文件夹\CH582M\obj/../src/lcd.c:58
    uCol = y1;
20000e14:	fbc45783          	lhu	a5,-68(s0)
20000e18:	fcf42423          	sw	a5,-56(s0)
c:\Users\ql\Desktop\工作\1.28IPS电容触摸技术资料\新建文件夹\CH582M\obj/../src/lcd.c:59
    if (delta_x > 0)
20000e1c:	fe042783          	lw	a5,-32(s0)
20000e20:	00f05663          	blez	a5,20000e2c <LCD_DrawLine+0x6e>
c:\Users\ql\Desktop\工作\1.28IPS电容触摸技术资料\新建文件夹\CH582M\obj/../src/lcd.c:60
        incx = 1;  // 设置单步方向
20000e24:	4785                	li	a5,1
20000e26:	fcf42a23          	sw	a5,-44(s0)
20000e2a:	a005                	j	20000e4a <LCD_DrawLine+0x8c>
c:\Users\ql\Desktop\工作\1.28IPS电容触摸技术资料\新建文件夹\CH582M\obj/../src/lcd.c:61
    else if (delta_x == 0)
20000e2c:	fe042783          	lw	a5,-32(s0)
20000e30:	e781                	bnez	a5,20000e38 <LCD_DrawLine+0x7a>
c:\Users\ql\Desktop\工作\1.28IPS电容触摸技术资料\新建文件夹\CH582M\obj/../src/lcd.c:62
        incx = 0;  // 垂直线
20000e32:	fc042a23          	sw	zero,-44(s0)
20000e36:	a811                	j	20000e4a <LCD_DrawLine+0x8c>
c:\Users\ql\Desktop\工作\1.28IPS电容触摸技术资料\新建文件夹\CH582M\obj/../src/lcd.c:64
    else {
        incx = -1;
20000e38:	57fd                	li	a5,-1
20000e3a:	fcf42a23          	sw	a5,-44(s0)
c:\Users\ql\Desktop\工作\1.28IPS电容触摸技术资料\新建文件夹\CH582M\obj/../src/lcd.c:65
        delta_x = -delta_x;
20000e3e:	fe042783          	lw	a5,-32(s0)
20000e42:	40f007b3          	neg	a5,a5
20000e46:	fef42023          	sw	a5,-32(s0)
c:\Users\ql\Desktop\工作\1.28IPS电容触摸技术资料\新建文件夹\CH582M\obj/../src/lcd.c:67
    }
    if (delta_y > 0)
20000e4a:	fdc42783          	lw	a5,-36(s0)
20000e4e:	00f05663          	blez	a5,20000e5a <LCD_DrawLine+0x9c>
c:\Users\ql\Desktop\工作\1.28IPS电容触摸技术资料\新建文件夹\CH582M\obj/../src/lcd.c:68
        incy = 1;
20000e52:	4785                	li	a5,1
20000e54:	fcf42823          	sw	a5,-48(s0)
20000e58:	a005                	j	20000e78 <LCD_DrawLine+0xba>
c:\Users\ql\Desktop\工作\1.28IPS电容触摸技术资料\新建文件夹\CH582M\obj/../src/lcd.c:69
    else if (delta_y == 0)
20000e5a:	fdc42783          	lw	a5,-36(s0)
20000e5e:	e781                	bnez	a5,20000e66 <LCD_DrawLine+0xa8>
c:\Users\ql\Desktop\工作\1.28IPS电容触摸技术资料\新建文件夹\CH582M\obj/../src/lcd.c:70
        incy = 0;  // 水平线
20000e60:	fc042823          	sw	zero,-48(s0)
20000e64:	a811                	j	20000e78 <LCD_DrawLine+0xba>
c:\Users\ql\Desktop\工作\1.28IPS电容触摸技术资料\新建文件夹\CH582M\obj/../src/lcd.c:72
    else {
        incy = -1;
20000e66:	57fd                	li	a5,-1
20000e68:	fcf42823          	sw	a5,-48(s0)
c:\Users\ql\Desktop\工作\1.28IPS电容触摸技术资料\新建文件夹\CH582M\obj/../src/lcd.c:73
        delta_y = -delta_y;
20000e6c:	fdc42783          	lw	a5,-36(s0)
20000e70:	40f007b3          	neg	a5,a5
20000e74:	fcf42e23          	sw	a5,-36(s0)
c:\Users\ql\Desktop\工作\1.28IPS电容触摸技术资料\新建文件夹\CH582M\obj/../src/lcd.c:75
    }
    if (delta_x > delta_y)
20000e78:	fe042703          	lw	a4,-32(s0)
20000e7c:	fdc42783          	lw	a5,-36(s0)
20000e80:	00e7d763          	bge	a5,a4,20000e8e <LCD_DrawLine+0xd0>
c:\Users\ql\Desktop\工作\1.28IPS电容触摸技术资料\新建文件夹\CH582M\obj/../src/lcd.c:76
        distance = delta_x;  // 选取基本增量坐标轴
20000e84:	fe042783          	lw	a5,-32(s0)
20000e88:	fcf42c23          	sw	a5,-40(s0)
20000e8c:	a029                	j	20000e96 <LCD_DrawLine+0xd8>
c:\Users\ql\Desktop\工作\1.28IPS电容触摸技术资料\新建文件夹\CH582M\obj/../src/lcd.c:78
    else
        distance = delta_y;
20000e8e:	fdc42783          	lw	a5,-36(s0)
20000e92:	fcf42c23          	sw	a5,-40(s0)
c:\Users\ql\Desktop\工作\1.28IPS电容触摸技术资料\新建文件夹\CH582M\obj/../src/lcd.c:79
    for (t = 0; t < distance + 1; t++) {
20000e96:	fe041723          	sh	zero,-18(s0)
20000e9a:	a861                	j	20000f32 <LCD_DrawLine+0x174>
c:\Users\ql\Desktop\工作\1.28IPS电容触摸技术资料\新建文件夹\CH582M\obj/../src/lcd.c:80
        LCD_DrawPoint (uRow, uCol, color);  // 画点
20000e9c:	fcc42783          	lw	a5,-52(s0)
20000ea0:	07c2                	slli	a5,a5,0x10
20000ea2:	83c1                	srli	a5,a5,0x10
20000ea4:	fc842703          	lw	a4,-56(s0)
20000ea8:	0742                	slli	a4,a4,0x10
20000eaa:	8341                	srli	a4,a4,0x10
20000eac:	fb645683          	lhu	a3,-74(s0)
20000eb0:	8636                	mv	a2,a3
20000eb2:	85ba                	mv	a1,a4
20000eb4:	853e                	mv	a0,a5
20000eb6:	3d7d                	jal	20000d74 <LCD_DrawPoint>
c:\Users\ql\Desktop\工作\1.28IPS电容触摸技术资料\新建文件夹\CH582M\obj/../src/lcd.c:81
        xerr += delta_x;
20000eb8:	fe842703          	lw	a4,-24(s0)
20000ebc:	fe042783          	lw	a5,-32(s0)
20000ec0:	97ba                	add	a5,a5,a4
20000ec2:	fef42423          	sw	a5,-24(s0)
c:\Users\ql\Desktop\工作\1.28IPS电容触摸技术资料\新建文件夹\CH582M\obj/../src/lcd.c:82
        yerr += delta_y;
20000ec6:	fe442703          	lw	a4,-28(s0)
20000eca:	fdc42783          	lw	a5,-36(s0)
20000ece:	97ba                	add	a5,a5,a4
20000ed0:	fef42223          	sw	a5,-28(s0)
c:\Users\ql\Desktop\工作\1.28IPS电容触摸技术资料\新建文件夹\CH582M\obj/../src/lcd.c:83
        if (xerr > distance) {
20000ed4:	fe842703          	lw	a4,-24(s0)
20000ed8:	fd842783          	lw	a5,-40(s0)
20000edc:	02e7d163          	bge	a5,a4,20000efe <LCD_DrawLine+0x140>
c:\Users\ql\Desktop\工作\1.28IPS电容触摸技术资料\新建文件夹\CH582M\obj/../src/lcd.c:84
            xerr -= distance;
20000ee0:	fe842703          	lw	a4,-24(s0)
20000ee4:	fd842783          	lw	a5,-40(s0)
20000ee8:	40f707b3          	sub	a5,a4,a5
20000eec:	fef42423          	sw	a5,-24(s0)
c:\Users\ql\Desktop\工作\1.28IPS电容触摸技术资料\新建文件夹\CH582M\obj/../src/lcd.c:85
            uRow += incx;
20000ef0:	fcc42703          	lw	a4,-52(s0)
20000ef4:	fd442783          	lw	a5,-44(s0)
20000ef8:	97ba                	add	a5,a5,a4
20000efa:	fcf42623          	sw	a5,-52(s0)
c:\Users\ql\Desktop\工作\1.28IPS电容触摸技术资料\新建文件夹\CH582M\obj/../src/lcd.c:87
        }
        if (yerr > distance) {
20000efe:	fe442703          	lw	a4,-28(s0)
20000f02:	fd842783          	lw	a5,-40(s0)
20000f06:	02e7d163          	bge	a5,a4,20000f28 <LCD_DrawLine+0x16a>
c:\Users\ql\Desktop\工作\1.28IPS电容触摸技术资料\新建文件夹\CH582M\obj/../src/lcd.c:88
            yerr -= distance;
20000f0a:	fe442703          	lw	a4,-28(s0)
20000f0e:	fd842783          	lw	a5,-40(s0)
20000f12:	40f707b3          	sub	a5,a4,a5
20000f16:	fef42223          	sw	a5,-28(s0)
c:\Users\ql\Desktop\工作\1.28IPS电容触摸技术资料\新建文件夹\CH582M\obj/../src/lcd.c:89
            uCol += incy;
20000f1a:	fc842703          	lw	a4,-56(s0)
20000f1e:	fd042783          	lw	a5,-48(s0)
20000f22:	97ba                	add	a5,a5,a4
20000f24:	fcf42423          	sw	a5,-56(s0)
c:\Users\ql\Desktop\工作\1.28IPS电容触摸技术资料\新建文件夹\CH582M\obj/../src/lcd.c:79 (discriminator 2)
    for (t = 0; t < distance + 1; t++) {
20000f28:	fee45783          	lhu	a5,-18(s0)
20000f2c:	0785                	addi	a5,a5,1
20000f2e:	fef41723          	sh	a5,-18(s0)
c:\Users\ql\Desktop\工作\1.28IPS电容触摸技术资料\新建文件夹\CH582M\obj/../src/lcd.c:79 (discriminator 1)
20000f32:	fee45783          	lhu	a5,-18(s0)
20000f36:	fd842703          	lw	a4,-40(s0)
20000f3a:	f6f751e3          	bge	a4,a5,20000e9c <LCD_DrawLine+0xde>
c:\Users\ql\Desktop\工作\1.28IPS电容触摸技术资料\新建文件夹\CH582M\obj/../src/lcd.c:92
        }
    }
}
20000f3e:	0001                	nop
20000f40:	40b6                	lw	ra,76(sp)
20000f42:	4426                	lw	s0,72(sp)
20000f44:	6161                	addi	sp,sp,80
20000f46:	8082                	ret

20000f48 <LCD_SmoothSlidePic>:
LCD_SmoothSlidePic():
c:\Users\ql\Desktop\工作\1.28IPS电容触摸技术资料\新建文件夹\CH582M\obj/../src/lcd.c:542
                pic[]  图片数组
                ms 速度控制
      返回值：  无
******************************************************************************/
__HIGH_CODE
void LCD_SmoothSlidePic (u16 x, u16 y, u16 x1, u16 y1, u16 length, u16 width, const u8 pic[], u8 ms) {
20000f48:	715d                	addi	sp,sp,-80
20000f4a:	c686                	sw	ra,76(sp)
20000f4c:	c4a2                	sw	s0,72(sp)
20000f4e:	0880                	addi	s0,sp,80
20000f50:	8e2a                	mv	t3,a0
20000f52:	832e                	mv	t1,a1
20000f54:	8532                	mv	a0,a2
20000f56:	85b6                	mv	a1,a3
20000f58:	863a                	mv	a2,a4
20000f5a:	86be                	mv	a3,a5
20000f5c:	fd042023          	sw	a6,-64(s0)
20000f60:	8746                	mv	a4,a7
20000f62:	87f2                	mv	a5,t3
20000f64:	fcf41723          	sh	a5,-50(s0)
20000f68:	879a                	mv	a5,t1
20000f6a:	fcf41623          	sh	a5,-52(s0)
20000f6e:	87aa                	mv	a5,a0
20000f70:	fcf41523          	sh	a5,-54(s0)
20000f74:	87ae                	mv	a5,a1
20000f76:	fcf41423          	sh	a5,-56(s0)
20000f7a:	87b2                	mv	a5,a2
20000f7c:	fcf41323          	sh	a5,-58(s0)
20000f80:	87b6                	mv	a5,a3
20000f82:	fcf41223          	sh	a5,-60(s0)
20000f86:	87ba                	mv	a5,a4
20000f88:	faf40fa3          	sb	a5,-65(s0)
c:\Users\ql\Desktop\工作\1.28IPS电容触摸技术资料\新建文件夹\CH582M\obj/../src/lcd.c:544
    u16 i, j;
    u32 k = 0;
20000f8c:	fe042423          	sw	zero,-24(s0)
c:\Users\ql\Desktop\工作\1.28IPS电容触摸技术资料\新建文件夹\CH582M\obj/../src/lcd.c:545
    u16 step = 1;  // 每次平移的步长，可以调整控制平移的速度和精细度
20000f90:	4785                	li	a5,1
20000f92:	fef41123          	sh	a5,-30(s0)
c:\Users\ql\Desktop\工作\1.28IPS电容触摸技术资料\新建文件夹\CH582M\obj/../src/lcd.c:548

    // 计算横向和纵向的步长
    u16 deltaX = (x1 > x) ? step : (x1 < x) ? -step
20000f96:	fca45703          	lhu	a4,-54(s0)
20000f9a:	fce45783          	lhu	a5,-50(s0)
20000f9e:	02e7e163          	bltu	a5,a4,20000fc0 <LCD_SmoothSlidePic+0x78>
c:\Users\ql\Desktop\工作\1.28IPS电容触摸技术资料\新建文件夹\CH582M\obj/../src/lcd.c:548 (discriminator 1)
20000fa2:	fca45703          	lhu	a4,-54(s0)
20000fa6:	fce45783          	lhu	a5,-50(s0)
20000faa:	00f77963          	bgeu	a4,a5,20000fbc <LCD_SmoothSlidePic+0x74>
c:\Users\ql\Desktop\工作\1.28IPS电容触摸技术资料\新建文件夹\CH582M\obj/../src/lcd.c:548 (discriminator 3)
20000fae:	fe245783          	lhu	a5,-30(s0)
20000fb2:	40f007b3          	neg	a5,a5
20000fb6:	07c2                	slli	a5,a5,0x10
20000fb8:	83c1                	srli	a5,a5,0x10
20000fba:	a029                	j	20000fc4 <LCD_SmoothSlidePic+0x7c>
c:\Users\ql\Desktop\工作\1.28IPS电容触摸技术资料\新建文件夹\CH582M\obj/../src/lcd.c:548 (discriminator 4)
20000fbc:	4781                	li	a5,0
20000fbe:	a019                	j	20000fc4 <LCD_SmoothSlidePic+0x7c>
c:\Users\ql\Desktop\工作\1.28IPS电容触摸技术资料\新建文件夹\CH582M\obj/../src/lcd.c:548 (discriminator 2)
20000fc0:	fe245783          	lhu	a5,-30(s0)
c:\Users\ql\Desktop\工作\1.28IPS电容触摸技术资料\新建文件夹\CH582M\obj/../src/lcd.c:548 (discriminator 8)
20000fc4:	fef41023          	sh	a5,-32(s0)
c:\Users\ql\Desktop\工作\1.28IPS电容触摸技术资料\新建文件夹\CH582M\obj/../src/lcd.c:550 (discriminator 8)
                                            : 0;
    u16 deltaY = (y1 > y) ? step : (y1 < y) ? -step
20000fc8:	fc845703          	lhu	a4,-56(s0)
20000fcc:	fcc45783          	lhu	a5,-52(s0)
20000fd0:	02e7e163          	bltu	a5,a4,20000ff2 <LCD_SmoothSlidePic+0xaa>
c:\Users\ql\Desktop\工作\1.28IPS电容触摸技术资料\新建文件夹\CH582M\obj/../src/lcd.c:550 (discriminator 1)
20000fd4:	fc845703          	lhu	a4,-56(s0)
20000fd8:	fcc45783          	lhu	a5,-52(s0)
20000fdc:	00f77963          	bgeu	a4,a5,20000fee <LCD_SmoothSlidePic+0xa6>
c:\Users\ql\Desktop\工作\1.28IPS电容触摸技术资料\新建文件夹\CH582M\obj/../src/lcd.c:550 (discriminator 3)
20000fe0:	fe245783          	lhu	a5,-30(s0)
20000fe4:	40f007b3          	neg	a5,a5
20000fe8:	07c2                	slli	a5,a5,0x10
20000fea:	83c1                	srli	a5,a5,0x10
20000fec:	a029                	j	20000ff6 <LCD_SmoothSlidePic+0xae>
c:\Users\ql\Desktop\工作\1.28IPS电容触摸技术资料\新建文件夹\CH582M\obj/../src/lcd.c:550 (discriminator 4)
20000fee:	4781                	li	a5,0
20000ff0:	a019                	j	20000ff6 <LCD_SmoothSlidePic+0xae>
c:\Users\ql\Desktop\工作\1.28IPS电容触摸技术资料\新建文件夹\CH582M\obj/../src/lcd.c:550 (discriminator 2)
20000ff2:	fe245783          	lhu	a5,-30(s0)
c:\Users\ql\Desktop\工作\1.28IPS电容触摸技术资料\新建文件夹\CH582M\obj/../src/lcd.c:550 (discriminator 8)
20000ff6:	fcf41f23          	sh	a5,-34(s0)
c:\Users\ql\Desktop\工作\1.28IPS电容触摸技术资料\新建文件夹\CH582M\obj/../src/lcd.c:554 (discriminator 8)
                                            : 0;

    // 判断移动的方向，先计算出移动的总方向
    bool moveRight = (x1 > x);
20000ffa:	fca45703          	lhu	a4,-54(s0)
20000ffe:	fce45783          	lhu	a5,-50(s0)
20001002:	00e7b7b3          	sltu	a5,a5,a4
20001006:	0ff7f793          	andi	a5,a5,255
2000100a:	fcf42c23          	sw	a5,-40(s0)
c:\Users\ql\Desktop\工作\1.28IPS电容触摸技术资料\新建文件夹\CH582M\obj/../src/lcd.c:555 (discriminator 8)
    bool moveDown = (y1 > y);
2000100e:	fc845703          	lhu	a4,-56(s0)
20001012:	fcc45783          	lhu	a5,-52(s0)
20001016:	00e7b7b3          	sltu	a5,a5,a4
2000101a:	0ff7f793          	andi	a5,a5,255
2000101e:	fcf42a23          	sw	a5,-44(s0)
c:\Users\ql\Desktop\工作\1.28IPS电容触摸技术资料\新建文件夹\CH582M\obj/../src/lcd.c:558 (discriminator 8)

    // 预计算显示区域
    u16 prevX = x;
20001022:	fce45783          	lhu	a5,-50(s0)
20001026:	fef41323          	sh	a5,-26(s0)
c:\Users\ql\Desktop\工作\1.28IPS电容触摸技术资料\新建文件夹\CH582M\obj/../src/lcd.c:559 (discriminator 8)
    u16 prevY = y;
2000102a:	fcc45783          	lhu	a5,-52(s0)
2000102e:	fef41223          	sh	a5,-28(s0)
c:\Users\ql\Desktop\工作\1.28IPS电容触摸技术资料\新建文件夹\CH582M\obj/../src/lcd.c:562 (discriminator 8)

    // 滑动过程：逐步改变起始位置，直到达到目标位置
    while (x != x1 || y != y1) {
20001032:	aacd                	j	20001224 <LCD_SmoothSlidePic+0x2dc>
c:\Users\ql\Desktop\工作\1.28IPS电容触摸技术资料\新建文件夹\CH582M\obj/../src/lcd.c:564
        // 1. 绘制当前图片的位置
        LCD_Address_Set (x, y, x + length - 1, y + width - 1);  // 设置新的显示区域
20001034:	fce45703          	lhu	a4,-50(s0)
20001038:	fc645783          	lhu	a5,-58(s0)
2000103c:	97ba                	add	a5,a5,a4
2000103e:	07c2                	slli	a5,a5,0x10
20001040:	83c1                	srli	a5,a5,0x10
20001042:	17fd                	addi	a5,a5,-1
20001044:	01079613          	slli	a2,a5,0x10
20001048:	8241                	srli	a2,a2,0x10
2000104a:	fcc45703          	lhu	a4,-52(s0)
2000104e:	fc445783          	lhu	a5,-60(s0)
20001052:	97ba                	add	a5,a5,a4
20001054:	07c2                	slli	a5,a5,0x10
20001056:	83c1                	srli	a5,a5,0x10
20001058:	17fd                	addi	a5,a5,-1
2000105a:	01079693          	slli	a3,a5,0x10
2000105e:	82c1                	srli	a3,a3,0x10
20001060:	fcc45703          	lhu	a4,-52(s0)
20001064:	fce45783          	lhu	a5,-50(s0)
20001068:	85ba                	mv	a1,a4
2000106a:	853e                	mv	a0,a5
2000106c:	7b6000ef          	jal	ra,20001822 <LCD_Address_Set>
c:\Users\ql\Desktop\工作\1.28IPS电容触摸技术资料\新建文件夹\CH582M\obj/../src/lcd.c:565
        k = 0;                                                  // 重置图片数据索引
20001070:	fe042423          	sw	zero,-24(s0)
c:\Users\ql\Desktop\工作\1.28IPS电容触摸技术资料\新建文件夹\CH582M\obj/../src/lcd.c:566
        for (i = 0; i < length; i++) {
20001074:	fe041723          	sh	zero,-18(s0)
20001078:	a8b1                	j	200010d4 <LCD_SmoothSlidePic+0x18c>
c:\Users\ql\Desktop\工作\1.28IPS电容触摸技术资料\新建文件夹\CH582M\obj/../src/lcd.c:567
            for (j = 0; j < width; j++) {
2000107a:	fe041623          	sh	zero,-20(s0)
2000107e:	a081                	j	200010be <LCD_SmoothSlidePic+0x176>
c:\Users\ql\Desktop\工作\1.28IPS电容触摸技术资料\新建文件夹\CH582M\obj/../src/lcd.c:568 (discriminator 3)
                LCD_WR_DATA8 (pic[k * 2]);      // 写入数据
20001080:	fe842783          	lw	a5,-24(s0)
20001084:	0786                	slli	a5,a5,0x1
20001086:	fc042703          	lw	a4,-64(s0)
2000108a:	97ba                	add	a5,a5,a4
2000108c:	0007c783          	lbu	a5,0(a5)
20001090:	853e                	mv	a0,a5
20001092:	2d6d                	jal	2000174c <LCD_WR_DATA8>
c:\Users\ql\Desktop\工作\1.28IPS电容触摸技术资料\新建文件夹\CH582M\obj/../src/lcd.c:569 (discriminator 3)
                LCD_WR_DATA8 (pic[k * 2 + 1]);  // 写入数据
20001094:	fe842783          	lw	a5,-24(s0)
20001098:	0786                	slli	a5,a5,0x1
2000109a:	0785                	addi	a5,a5,1
2000109c:	fc042703          	lw	a4,-64(s0)
200010a0:	97ba                	add	a5,a5,a4
200010a2:	0007c783          	lbu	a5,0(a5)
200010a6:	853e                	mv	a0,a5
200010a8:	2555                	jal	2000174c <LCD_WR_DATA8>
c:\Users\ql\Desktop\工作\1.28IPS电容触摸技术资料\新建文件夹\CH582M\obj/../src/lcd.c:570 (discriminator 3)
                k++;
200010aa:	fe842783          	lw	a5,-24(s0)
200010ae:	0785                	addi	a5,a5,1
200010b0:	fef42423          	sw	a5,-24(s0)
c:\Users\ql\Desktop\工作\1.28IPS电容触摸技术资料\新建文件夹\CH582M\obj/../src/lcd.c:567 (discriminator 3)
            for (j = 0; j < width; j++) {
200010b4:	fec45783          	lhu	a5,-20(s0)
200010b8:	0785                	addi	a5,a5,1
200010ba:	fef41623          	sh	a5,-20(s0)
c:\Users\ql\Desktop\工作\1.28IPS电容触摸技术资料\新建文件夹\CH582M\obj/../src/lcd.c:567 (discriminator 1)
200010be:	fec45703          	lhu	a4,-20(s0)
200010c2:	fc445783          	lhu	a5,-60(s0)
200010c6:	faf76de3          	bltu	a4,a5,20001080 <LCD_SmoothSlidePic+0x138>
c:\Users\ql\Desktop\工作\1.28IPS电容触摸技术资料\新建文件夹\CH582M\obj/../src/lcd.c:566 (discriminator 2)
        for (i = 0; i < length; i++) {
200010ca:	fee45783          	lhu	a5,-18(s0)
200010ce:	0785                	addi	a5,a5,1
200010d0:	fef41723          	sh	a5,-18(s0)
c:\Users\ql\Desktop\工作\1.28IPS电容触摸技术资料\新建文件夹\CH582M\obj/../src/lcd.c:566 (discriminator 1)
200010d4:	fee45703          	lhu	a4,-18(s0)
200010d8:	fc645783          	lhu	a5,-58(s0)
200010dc:	f8f76fe3          	bltu	a4,a5,2000107a <LCD_SmoothSlidePic+0x132>
c:\Users\ql\Desktop\工作\1.28IPS电容触摸技术资料\新建文件夹\CH582M\obj/../src/lcd.c:575
            }
        }

        // 2. 清除走过的区域（先前的位置）
        if (x != prevX || y != prevY) {
200010e0:	fce45703          	lhu	a4,-50(s0)
200010e4:	fe645783          	lhu	a5,-26(s0)
200010e8:	00f71863          	bne	a4,a5,200010f8 <LCD_SmoothSlidePic+0x1b0>
c:\Users\ql\Desktop\工作\1.28IPS电容触摸技术资料\新建文件夹\CH582M\obj/../src/lcd.c:575 (discriminator 1)
200010ec:	fcc45703          	lhu	a4,-52(s0)
200010f0:	fe445783          	lhu	a5,-28(s0)
200010f4:	0ef70663          	beq	a4,a5,200011e0 <LCD_SmoothSlidePic+0x298>
c:\Users\ql\Desktop\工作\1.28IPS电容触摸技术资料\新建文件夹\CH582M\obj/../src/lcd.c:577
            // 横向移动
            if (prevX != x) {
200010f8:	fe645703          	lhu	a4,-26(s0)
200010fc:	fce45783          	lhu	a5,-50(s0)
20001100:	06f70663          	beq	a4,a5,2000116c <LCD_SmoothSlidePic+0x224>
c:\Users\ql\Desktop\工作\1.28IPS电容触摸技术资料\新建文件夹\CH582M\obj/../src/lcd.c:578
                if (moveRight) {
20001104:	fd842783          	lw	a5,-40(s0)
20001108:	c785                	beqz	a5,20001130 <LCD_SmoothSlidePic+0x1e8>
c:\Users\ql\Desktop\工作\1.28IPS电容触摸技术资料\新建文件夹\CH582M\obj/../src/lcd.c:579
                    LCD_Fill (prevX, prevY, x, prevY + width, 0xFFFF);                    // 清除左侧区域
2000110a:	fe445703          	lhu	a4,-28(s0)
2000110e:	fc445783          	lhu	a5,-60(s0)
20001112:	97ba                	add	a5,a5,a4
20001114:	01079693          	slli	a3,a5,0x10
20001118:	82c1                	srli	a3,a3,0x10
2000111a:	fce45603          	lhu	a2,-50(s0)
2000111e:	fe445583          	lhu	a1,-28(s0)
20001122:	fe645503          	lhu	a0,-26(s0)
20001126:	67c1                	lui	a5,0x10
20001128:	fff78713          	addi	a4,a5,-1 # ffff <gImage_8+0x1ce3>
2000112c:	365d                	jal	20000cd2 <LCD_Fill>
2000112e:	a83d                	j	2000116c <LCD_SmoothSlidePic+0x224>
c:\Users\ql\Desktop\工作\1.28IPS电容触摸技术资料\新建文件夹\CH582M\obj/../src/lcd.c:581
                } else {
                    LCD_Fill (x + length, prevY, prevX + length, prevY + width, 0xFFFF);  // 清除右侧区域
20001130:	fce45703          	lhu	a4,-50(s0)
20001134:	fc645783          	lhu	a5,-58(s0)
20001138:	97ba                	add	a5,a5,a4
2000113a:	01079513          	slli	a0,a5,0x10
2000113e:	8141                	srli	a0,a0,0x10
20001140:	fe645703          	lhu	a4,-26(s0)
20001144:	fc645783          	lhu	a5,-58(s0)
20001148:	97ba                	add	a5,a5,a4
2000114a:	01079613          	slli	a2,a5,0x10
2000114e:	8241                	srli	a2,a2,0x10
20001150:	fe445703          	lhu	a4,-28(s0)
20001154:	fc445783          	lhu	a5,-60(s0)
20001158:	97ba                	add	a5,a5,a4
2000115a:	01079693          	slli	a3,a5,0x10
2000115e:	82c1                	srli	a3,a3,0x10
20001160:	fe445583          	lhu	a1,-28(s0)
20001164:	67c1                	lui	a5,0x10
20001166:	fff78713          	addi	a4,a5,-1 # ffff <gImage_8+0x1ce3>
2000116a:	36a5                	jal	20000cd2 <LCD_Fill>
c:\Users\ql\Desktop\工作\1.28IPS电容触摸技术资料\新建文件夹\CH582M\obj/../src/lcd.c:586
                }
            }

            // 纵向移动
            if (prevY != y) {
2000116c:	fe445703          	lhu	a4,-28(s0)
20001170:	fcc45783          	lhu	a5,-52(s0)
20001174:	06f70663          	beq	a4,a5,200011e0 <LCD_SmoothSlidePic+0x298>
c:\Users\ql\Desktop\工作\1.28IPS电容触摸技术资料\新建文件夹\CH582M\obj/../src/lcd.c:587
                if (moveDown) {
20001178:	fd442783          	lw	a5,-44(s0)
2000117c:	c785                	beqz	a5,200011a4 <LCD_SmoothSlidePic+0x25c>
c:\Users\ql\Desktop\工作\1.28IPS电容触摸技术资料\新建文件夹\CH582M\obj/../src/lcd.c:588
                    LCD_Fill (prevX, prevY, prevX + length, y, 0xFFFF);                  // 清除上方区域
2000117e:	fe645703          	lhu	a4,-26(s0)
20001182:	fc645783          	lhu	a5,-58(s0)
20001186:	97ba                	add	a5,a5,a4
20001188:	01079613          	slli	a2,a5,0x10
2000118c:	8241                	srli	a2,a2,0x10
2000118e:	fcc45683          	lhu	a3,-52(s0)
20001192:	fe445583          	lhu	a1,-28(s0)
20001196:	fe645503          	lhu	a0,-26(s0)
2000119a:	67c1                	lui	a5,0x10
2000119c:	fff78713          	addi	a4,a5,-1 # ffff <gImage_8+0x1ce3>
200011a0:	3e0d                	jal	20000cd2 <LCD_Fill>
200011a2:	a83d                	j	200011e0 <LCD_SmoothSlidePic+0x298>
c:\Users\ql\Desktop\工作\1.28IPS电容触摸技术资料\新建文件夹\CH582M\obj/../src/lcd.c:590
                } else {
                    LCD_Fill (prevX, y + width, prevX + length, prevY + width, 0xFFFF);  // 清除下方区域
200011a4:	fcc45703          	lhu	a4,-52(s0)
200011a8:	fc445783          	lhu	a5,-60(s0)
200011ac:	97ba                	add	a5,a5,a4
200011ae:	01079593          	slli	a1,a5,0x10
200011b2:	81c1                	srli	a1,a1,0x10
200011b4:	fe645703          	lhu	a4,-26(s0)
200011b8:	fc645783          	lhu	a5,-58(s0)
200011bc:	97ba                	add	a5,a5,a4
200011be:	01079613          	slli	a2,a5,0x10
200011c2:	8241                	srli	a2,a2,0x10
200011c4:	fe445703          	lhu	a4,-28(s0)
200011c8:	fc445783          	lhu	a5,-60(s0)
200011cc:	97ba                	add	a5,a5,a4
200011ce:	01079693          	slli	a3,a5,0x10
200011d2:	82c1                	srli	a3,a3,0x10
200011d4:	fe645503          	lhu	a0,-26(s0)
200011d8:	67c1                	lui	a5,0x10
200011da:	fff78713          	addi	a4,a5,-1 # ffff <gImage_8+0x1ce3>
200011de:	3cd5                	jal	20000cd2 <LCD_Fill>
c:\Users\ql\Desktop\工作\1.28IPS电容触摸技术资料\新建文件夹\CH582M\obj/../src/lcd.c:596
                }
            }
        }

        // 3. 更新位置
        prevX = x;        // 更新上次的X坐标
200011e0:	fce45783          	lhu	a5,-50(s0)
200011e4:	fef41323          	sh	a5,-26(s0)
c:\Users\ql\Desktop\工作\1.28IPS电容触摸技术资料\新建文件夹\CH582M\obj/../src/lcd.c:597
        prevY = y;        // 更新上次的Y坐标
200011e8:	fcc45783          	lhu	a5,-52(s0)
200011ec:	fef41223          	sh	a5,-28(s0)
c:\Users\ql\Desktop\工作\1.28IPS电容触摸技术资料\新建文件夹\CH582M\obj/../src/lcd.c:598
        if (x != x1)
200011f0:	fce45703          	lhu	a4,-50(s0)
200011f4:	fca45783          	lhu	a5,-54(s0)
200011f8:	00f70963          	beq	a4,a5,2000120a <LCD_SmoothSlidePic+0x2c2>
c:\Users\ql\Desktop\工作\1.28IPS电容触摸技术资料\新建文件夹\CH582M\obj/../src/lcd.c:599
            x += deltaX;  // 横向移动
200011fc:	fce45703          	lhu	a4,-50(s0)
20001200:	fe045783          	lhu	a5,-32(s0)
20001204:	97ba                	add	a5,a5,a4
20001206:	fcf41723          	sh	a5,-50(s0)
c:\Users\ql\Desktop\工作\1.28IPS电容触摸技术资料\新建文件夹\CH582M\obj/../src/lcd.c:600
        if (y != y1)
2000120a:	fcc45703          	lhu	a4,-52(s0)
2000120e:	fc845783          	lhu	a5,-56(s0)
20001212:	00f70963          	beq	a4,a5,20001224 <LCD_SmoothSlidePic+0x2dc>
c:\Users\ql\Desktop\工作\1.28IPS电容触摸技术资料\新建文件夹\CH582M\obj/../src/lcd.c:601
            y += deltaY;  // 纵向移动
20001216:	fcc45703          	lhu	a4,-52(s0)
2000121a:	fde45783          	lhu	a5,-34(s0)
2000121e:	97ba                	add	a5,a5,a4
20001220:	fcf41623          	sh	a5,-52(s0)
c:\Users\ql\Desktop\工作\1.28IPS电容触摸技术资料\新建文件夹\CH582M\obj/../src/lcd.c:562
    while (x != x1 || y != y1) {
20001224:	fce45703          	lhu	a4,-50(s0)
20001228:	fca45783          	lhu	a5,-54(s0)
2000122c:	e0f714e3          	bne	a4,a5,20001034 <LCD_SmoothSlidePic+0xec>
c:\Users\ql\Desktop\工作\1.28IPS电容触摸技术资料\新建文件夹\CH582M\obj/../src/lcd.c:562 (discriminator 1)
20001230:	fcc45703          	lhu	a4,-52(s0)
20001234:	fc845783          	lhu	a5,-56(s0)
20001238:	def71ee3          	bne	a4,a5,20001034 <LCD_SmoothSlidePic+0xec>
c:\Users\ql\Desktop\工作\1.28IPS电容触摸技术资料\新建文件夹\CH582M\obj/../src/lcd.c:606

        // 延迟一定时间，控制滑动速度
        // DelayMs(ms);  // 假设 delay(ms) 是一个延迟函数，单位为毫秒
    }
}
2000123c:	0001                	nop
2000123e:	40b6                	lw	ra,76(sp)
20001240:	4426                	lw	s0,72(sp)
20001242:	6161                	addi	sp,sp,80
20001244:	8082                	ret

20001246 <LCD_SmoothChangePic>:
LCD_SmoothChangePic():
c:\Users\ql\Desktop\工作\1.28IPS电容触摸技术资料\新建文件夹\CH582M\obj/../src/lcd.c:620
                pic1[]  更换的新图片
                ms 速度控制
      返回值：  无
********************************************,n********************************/
__HIGH_CODE
void LCD_SmoothChangePic(u16 x, u16 y, u16 length, u16 width, u8 direction, const u8 pic0[], const u8 pic1[], u8 ms) {
20001246:	7139                	addi	sp,sp,-64
20001248:	de06                	sw	ra,60(sp)
2000124a:	dc22                	sw	s0,56(sp)
2000124c:	0080                	addi	s0,sp,64
2000124e:	832a                	mv	t1,a0
20001250:	852e                	mv	a0,a1
20001252:	85b2                	mv	a1,a2
20001254:	8636                	mv	a2,a3
20001256:	86ba                	mv	a3,a4
20001258:	fcf42823          	sw	a5,-48(s0)
2000125c:	fd042623          	sw	a6,-52(s0)
20001260:	8746                	mv	a4,a7
20001262:	879a                	mv	a5,t1
20001264:	fcf41f23          	sh	a5,-34(s0)
20001268:	87aa                	mv	a5,a0
2000126a:	fcf41e23          	sh	a5,-36(s0)
2000126e:	87ae                	mv	a5,a1
20001270:	fcf41d23          	sh	a5,-38(s0)
20001274:	87b2                	mv	a5,a2
20001276:	fcf41c23          	sh	a5,-40(s0)
2000127a:	87b6                	mv	a5,a3
2000127c:	fcf40ba3          	sb	a5,-41(s0)
20001280:	87ba                	mv	a5,a4
20001282:	fcf40b23          	sb	a5,-42(s0)
c:\Users\ql\Desktop\工作\1.28IPS电容触摸技术资料\新建文件夹\CH582M\obj/../src/lcd.c:621
    u16 i, j, nowDistance = 0;
20001286:	fe041523          	sh	zero,-22(s0)
c:\Users\ql\Desktop\工作\1.28IPS电容触摸技术资料\新建文件夹\CH582M\obj/../src/lcd.c:622
    u32 k = 0;
2000128a:	fe042223          	sw	zero,-28(s0)
c:\Users\ql\Desktop\工作\1.28IPS电容触摸技术资料\新建文件夹\CH582M\obj/../src/lcd.c:623
    u16 step = 20;  // 每次平移的步长
2000128e:	47d1                	li	a5,20
20001290:	fef41123          	sh	a5,-30(s0)
c:\Users\ql\Desktop\工作\1.28IPS电容触摸技术资料\新建文件夹\CH582M\obj/../src/lcd.c:626

    // 计算位移距离
    u16 moveDistance = (direction == 1 || direction == 2) ? width : length;
20001294:	fd744703          	lbu	a4,-41(s0)
20001298:	4785                	li	a5,1
2000129a:	00f70763          	beq	a4,a5,200012a8 <LCD_SmoothChangePic+0x62>
c:\Users\ql\Desktop\工作\1.28IPS电容触摸技术资料\新建文件夹\CH582M\obj/../src/lcd.c:626 (discriminator 2)
2000129e:	fd744703          	lbu	a4,-41(s0)
200012a2:	4789                	li	a5,2
200012a4:	00f71563          	bne	a4,a5,200012ae <LCD_SmoothChangePic+0x68>
c:\Users\ql\Desktop\工作\1.28IPS电容触摸技术资料\新建文件夹\CH582M\obj/../src/lcd.c:626 (discriminator 3)
200012a8:	fd845783          	lhu	a5,-40(s0)
200012ac:	a019                	j	200012b2 <LCD_SmoothChangePic+0x6c>
c:\Users\ql\Desktop\工作\1.28IPS电容触摸技术资料\新建文件夹\CH582M\obj/../src/lcd.c:626 (discriminator 4)
200012ae:	fda45783          	lhu	a5,-38(s0)
c:\Users\ql\Desktop\工作\1.28IPS电容触摸技术资料\新建文件夹\CH582M\obj/../src/lcd.c:626 (discriminator 6)
200012b2:	fef41023          	sh	a5,-32(s0)
c:\Users\ql\Desktop\工作\1.28IPS电容触摸技术资料\新建文件夹\CH582M\obj/../src/lcd.c:629 (discriminator 6)

    // 执行平移
    while (nowDistance <= moveDistance) {                       // 判断位移是否完成
200012b6:	a135                	j	200016e2 <LCD_SmoothChangePic+0x49c>
c:\Users\ql\Desktop\工作\1.28IPS电容触摸技术资料\新建文件夹\CH582M\obj/../src/lcd.c:630
        LCD_Address_Set(x, y, x + length - 1, y + width - 1);  // 设置开窗大小
200012b8:	fde45703          	lhu	a4,-34(s0)
200012bc:	fda45783          	lhu	a5,-38(s0)
200012c0:	97ba                	add	a5,a5,a4
200012c2:	07c2                	slli	a5,a5,0x10
200012c4:	83c1                	srli	a5,a5,0x10
200012c6:	17fd                	addi	a5,a5,-1
200012c8:	01079613          	slli	a2,a5,0x10
200012cc:	8241                	srli	a2,a2,0x10
200012ce:	fdc45703          	lhu	a4,-36(s0)
200012d2:	fd845783          	lhu	a5,-40(s0)
200012d6:	97ba                	add	a5,a5,a4
200012d8:	07c2                	slli	a5,a5,0x10
200012da:	83c1                	srli	a5,a5,0x10
200012dc:	17fd                	addi	a5,a5,-1
200012de:	01079693          	slli	a3,a5,0x10
200012e2:	82c1                	srli	a3,a3,0x10
200012e4:	fdc45703          	lhu	a4,-36(s0)
200012e8:	fde45783          	lhu	a5,-34(s0)
200012ec:	85ba                	mv	a1,a4
200012ee:	853e                	mv	a0,a5
200012f0:	2b0d                	jal	20001822 <LCD_Address_Set>
c:\Users\ql\Desktop\工作\1.28IPS电容触摸技术资料\新建文件夹\CH582M\obj/../src/lcd.c:632

        switch (direction) {
200012f2:	fd744783          	lbu	a5,-41(s0)
200012f6:	4709                	li	a4,2
200012f8:	10e78963          	beq	a5,a4,2000140a <LCD_SmoothChangePic+0x1c4>
200012fc:	4709                	li	a4,2
200012fe:	00f74663          	blt	a4,a5,2000130a <LCD_SmoothChangePic+0xc4>
20001302:	4705                	li	a4,1
20001304:	00e78a63          	beq	a5,a4,20001318 <LCD_SmoothChangePic+0xd2>
20001308:	ae7d                	j	200016c6 <LCD_SmoothChangePic+0x480>
2000130a:	470d                	li	a4,3
2000130c:	20e78063          	beq	a5,a4,2000150c <LCD_SmoothChangePic+0x2c6>
20001310:	4711                	li	a4,4
20001312:	2ce78963          	beq	a5,a4,200015e4 <LCD_SmoothChangePic+0x39e>
20001316:	ae45                	j	200016c6 <LCD_SmoothChangePic+0x480>
c:\Users\ql\Desktop\工作\1.28IPS电容触摸技术资料\新建文件夹\CH582M\obj/../src/lcd.c:634
            case 1:  // 旧图向上，新图从下方进入
                for (i = nowDistance; i < length; i++) {
20001318:	fea45783          	lhu	a5,-22(s0)
2000131c:	fef41723          	sh	a5,-18(s0)
20001320:	a09d                	j	20001386 <LCD_SmoothChangePic+0x140>
c:\Users\ql\Desktop\工作\1.28IPS电容触摸技术资料\新建文件夹\CH582M\obj/../src/lcd.c:635
                    for (j = 0; j < width; j++) {
20001322:	fe041623          	sh	zero,-20(s0)
20001326:	a0a9                	j	20001370 <LCD_SmoothChangePic+0x12a>
c:\Users\ql\Desktop\工作\1.28IPS电容触摸技术资料\新建文件夹\CH582M\obj/../src/lcd.c:636 (discriminator 3)
                        k = (i * width + j) * 2;
20001328:	fee45703          	lhu	a4,-18(s0)
2000132c:	fd845783          	lhu	a5,-40(s0)
20001330:	02f70733          	mul	a4,a4,a5
20001334:	fec45783          	lhu	a5,-20(s0)
20001338:	97ba                	add	a5,a5,a4
2000133a:	0786                	slli	a5,a5,0x1
2000133c:	fef42223          	sw	a5,-28(s0)
c:\Users\ql\Desktop\工作\1.28IPS电容触摸技术资料\新建文件夹\CH582M\obj/../src/lcd.c:637 (discriminator 3)
                        LCD_WR_DATA8(pic0[k]);
20001340:	fd042703          	lw	a4,-48(s0)
20001344:	fe442783          	lw	a5,-28(s0)
20001348:	97ba                	add	a5,a5,a4
2000134a:	0007c783          	lbu	a5,0(a5)
2000134e:	853e                	mv	a0,a5
20001350:	2ef5                	jal	2000174c <LCD_WR_DATA8>
c:\Users\ql\Desktop\工作\1.28IPS电容触摸技术资料\新建文件夹\CH582M\obj/../src/lcd.c:638 (discriminator 3)
                        LCD_WR_DATA8(pic0[k + 1]);
20001352:	fe442783          	lw	a5,-28(s0)
20001356:	0785                	addi	a5,a5,1
20001358:	fd042703          	lw	a4,-48(s0)
2000135c:	97ba                	add	a5,a5,a4
2000135e:	0007c783          	lbu	a5,0(a5)
20001362:	853e                	mv	a0,a5
20001364:	26e5                	jal	2000174c <LCD_WR_DATA8>
c:\Users\ql\Desktop\工作\1.28IPS电容触摸技术资料\新建文件夹\CH582M\obj/../src/lcd.c:635 (discriminator 3)
                    for (j = 0; j < width; j++) {
20001366:	fec45783          	lhu	a5,-20(s0)
2000136a:	0785                	addi	a5,a5,1
2000136c:	fef41623          	sh	a5,-20(s0)
c:\Users\ql\Desktop\工作\1.28IPS电容触摸技术资料\新建文件夹\CH582M\obj/../src/lcd.c:635 (discriminator 1)
20001370:	fec45703          	lhu	a4,-20(s0)
20001374:	fd845783          	lhu	a5,-40(s0)
20001378:	faf768e3          	bltu	a4,a5,20001328 <LCD_SmoothChangePic+0xe2>
c:\Users\ql\Desktop\工作\1.28IPS电容触摸技术资料\新建文件夹\CH582M\obj/../src/lcd.c:634 (discriminator 2)
                for (i = nowDistance; i < length; i++) {
2000137c:	fee45783          	lhu	a5,-18(s0)
20001380:	0785                	addi	a5,a5,1
20001382:	fef41723          	sh	a5,-18(s0)
c:\Users\ql\Desktop\工作\1.28IPS电容触摸技术资料\新建文件夹\CH582M\obj/../src/lcd.c:634 (discriminator 1)
20001386:	fee45703          	lhu	a4,-18(s0)
2000138a:	fda45783          	lhu	a5,-38(s0)
2000138e:	f8f76ae3          	bltu	a4,a5,20001322 <LCD_SmoothChangePic+0xdc>
c:\Users\ql\Desktop\工作\1.28IPS电容触摸技术资料\新建文件夹\CH582M\obj/../src/lcd.c:641
                    }
                }
                for (i = 0; i < nowDistance; i++) {
20001392:	fe041723          	sh	zero,-18(s0)
20001396:	a09d                	j	200013fc <LCD_SmoothChangePic+0x1b6>
c:\Users\ql\Desktop\工作\1.28IPS电容触摸技术资料\新建文件夹\CH582M\obj/../src/lcd.c:642
                    for (j = 0; j < width; j++) {
20001398:	fe041623          	sh	zero,-20(s0)
2000139c:	a0a9                	j	200013e6 <LCD_SmoothChangePic+0x1a0>
c:\Users\ql\Desktop\工作\1.28IPS电容触摸技术资料\新建文件夹\CH582M\obj/../src/lcd.c:643 (discriminator 3)
                        k = (i * width + j) * 2;
2000139e:	fee45703          	lhu	a4,-18(s0)
200013a2:	fd845783          	lhu	a5,-40(s0)
200013a6:	02f70733          	mul	a4,a4,a5
200013aa:	fec45783          	lhu	a5,-20(s0)
200013ae:	97ba                	add	a5,a5,a4
200013b0:	0786                	slli	a5,a5,0x1
200013b2:	fef42223          	sw	a5,-28(s0)
c:\Users\ql\Desktop\工作\1.28IPS电容触摸技术资料\新建文件夹\CH582M\obj/../src/lcd.c:644 (discriminator 3)
                        LCD_WR_DATA8(pic1[k]);
200013b6:	fcc42703          	lw	a4,-52(s0)
200013ba:	fe442783          	lw	a5,-28(s0)
200013be:	97ba                	add	a5,a5,a4
200013c0:	0007c783          	lbu	a5,0(a5)
200013c4:	853e                	mv	a0,a5
200013c6:	2659                	jal	2000174c <LCD_WR_DATA8>
c:\Users\ql\Desktop\工作\1.28IPS电容触摸技术资料\新建文件夹\CH582M\obj/../src/lcd.c:645 (discriminator 3)
                        LCD_WR_DATA8(pic1[k + 1]);
200013c8:	fe442783          	lw	a5,-28(s0)
200013cc:	0785                	addi	a5,a5,1
200013ce:	fcc42703          	lw	a4,-52(s0)
200013d2:	97ba                	add	a5,a5,a4
200013d4:	0007c783          	lbu	a5,0(a5)
200013d8:	853e                	mv	a0,a5
200013da:	2e8d                	jal	2000174c <LCD_WR_DATA8>
c:\Users\ql\Desktop\工作\1.28IPS电容触摸技术资料\新建文件夹\CH582M\obj/../src/lcd.c:642 (discriminator 3)
                    for (j = 0; j < width; j++) {
200013dc:	fec45783          	lhu	a5,-20(s0)
200013e0:	0785                	addi	a5,a5,1
200013e2:	fef41623          	sh	a5,-20(s0)
c:\Users\ql\Desktop\工作\1.28IPS电容触摸技术资料\新建文件夹\CH582M\obj/../src/lcd.c:642 (discriminator 1)
200013e6:	fec45703          	lhu	a4,-20(s0)
200013ea:	fd845783          	lhu	a5,-40(s0)
200013ee:	faf768e3          	bltu	a4,a5,2000139e <LCD_SmoothChangePic+0x158>
c:\Users\ql\Desktop\工作\1.28IPS电容触摸技术资料\新建文件夹\CH582M\obj/../src/lcd.c:641 (discriminator 2)
                for (i = 0; i < nowDistance; i++) {
200013f2:	fee45783          	lhu	a5,-18(s0)
200013f6:	0785                	addi	a5,a5,1
200013f8:	fef41723          	sh	a5,-18(s0)
c:\Users\ql\Desktop\工作\1.28IPS电容触摸技术资料\新建文件夹\CH582M\obj/../src/lcd.c:641 (discriminator 1)
200013fc:	fee45703          	lhu	a4,-18(s0)
20001400:	fea45783          	lhu	a5,-22(s0)
20001404:	f8f76ae3          	bltu	a4,a5,20001398 <LCD_SmoothChangePic+0x152>
c:\Users\ql\Desktop\工作\1.28IPS电容触摸技术资料\新建文件夹\CH582M\obj/../src/lcd.c:648
                    }
                }
                break;
20001408:	ac7d                	j	200016c6 <LCD_SmoothChangePic+0x480>
c:\Users\ql\Desktop\工作\1.28IPS电容触摸技术资料\新建文件夹\CH582M\obj/../src/lcd.c:651

            case 2:  // 旧图向下，新图从上方进入
                for (i = length - nowDistance; i < length; i++) {
2000140a:	fda45703          	lhu	a4,-38(s0)
2000140e:	fea45783          	lhu	a5,-22(s0)
20001412:	40f707b3          	sub	a5,a4,a5
20001416:	fef41723          	sh	a5,-18(s0)
2000141a:	a09d                	j	20001480 <LCD_SmoothChangePic+0x23a>
c:\Users\ql\Desktop\工作\1.28IPS电容触摸技术资料\新建文件夹\CH582M\obj/../src/lcd.c:652
                    for (j = 0; j < width; j++) {
2000141c:	fe041623          	sh	zero,-20(s0)
20001420:	a0a9                	j	2000146a <LCD_SmoothChangePic+0x224>
c:\Users\ql\Desktop\工作\1.28IPS电容触摸技术资料\新建文件夹\CH582M\obj/../src/lcd.c:653 (discriminator 3)
                        k = (i * width + j) * 2;
20001422:	fee45703          	lhu	a4,-18(s0)
20001426:	fd845783          	lhu	a5,-40(s0)
2000142a:	02f70733          	mul	a4,a4,a5
2000142e:	fec45783          	lhu	a5,-20(s0)
20001432:	97ba                	add	a5,a5,a4
20001434:	0786                	slli	a5,a5,0x1
20001436:	fef42223          	sw	a5,-28(s0)
c:\Users\ql\Desktop\工作\1.28IPS电容触摸技术资料\新建文件夹\CH582M\obj/../src/lcd.c:654 (discriminator 3)
                        LCD_WR_DATA8(pic1[k]);
2000143a:	fcc42703          	lw	a4,-52(s0)
2000143e:	fe442783          	lw	a5,-28(s0)
20001442:	97ba                	add	a5,a5,a4
20001444:	0007c783          	lbu	a5,0(a5)
20001448:	853e                	mv	a0,a5
2000144a:	2609                	jal	2000174c <LCD_WR_DATA8>
c:\Users\ql\Desktop\工作\1.28IPS电容触摸技术资料\新建文件夹\CH582M\obj/../src/lcd.c:655 (discriminator 3)
                        LCD_WR_DATA8(pic1[k + 1]);
2000144c:	fe442783          	lw	a5,-28(s0)
20001450:	0785                	addi	a5,a5,1
20001452:	fcc42703          	lw	a4,-52(s0)
20001456:	97ba                	add	a5,a5,a4
20001458:	0007c783          	lbu	a5,0(a5)
2000145c:	853e                	mv	a0,a5
2000145e:	24fd                	jal	2000174c <LCD_WR_DATA8>
c:\Users\ql\Desktop\工作\1.28IPS电容触摸技术资料\新建文件夹\CH582M\obj/../src/lcd.c:652 (discriminator 3)
                    for (j = 0; j < width; j++) {
20001460:	fec45783          	lhu	a5,-20(s0)
20001464:	0785                	addi	a5,a5,1
20001466:	fef41623          	sh	a5,-20(s0)
c:\Users\ql\Desktop\工作\1.28IPS电容触摸技术资料\新建文件夹\CH582M\obj/../src/lcd.c:652 (discriminator 1)
2000146a:	fec45703          	lhu	a4,-20(s0)
2000146e:	fd845783          	lhu	a5,-40(s0)
20001472:	faf768e3          	bltu	a4,a5,20001422 <LCD_SmoothChangePic+0x1dc>
c:\Users\ql\Desktop\工作\1.28IPS电容触摸技术资料\新建文件夹\CH582M\obj/../src/lcd.c:651 (discriminator 2)
                for (i = length - nowDistance; i < length; i++) {
20001476:	fee45783          	lhu	a5,-18(s0)
2000147a:	0785                	addi	a5,a5,1
2000147c:	fef41723          	sh	a5,-18(s0)
c:\Users\ql\Desktop\工作\1.28IPS电容触摸技术资料\新建文件夹\CH582M\obj/../src/lcd.c:651 (discriminator 1)
20001480:	fee45703          	lhu	a4,-18(s0)
20001484:	fda45783          	lhu	a5,-38(s0)
20001488:	f8f76ae3          	bltu	a4,a5,2000141c <LCD_SmoothChangePic+0x1d6>
c:\Users\ql\Desktop\工作\1.28IPS电容触摸技术资料\新建文件夹\CH582M\obj/../src/lcd.c:658
                    }
                }
                for (i = 0; i < length - nowDistance; i++) {
2000148c:	fe041723          	sh	zero,-18(s0)
20001490:	a09d                	j	200014f6 <LCD_SmoothChangePic+0x2b0>
c:\Users\ql\Desktop\工作\1.28IPS电容触摸技术资料\新建文件夹\CH582M\obj/../src/lcd.c:659
                    for (j = 0; j < width; j++) {
20001492:	fe041623          	sh	zero,-20(s0)
20001496:	a0a9                	j	200014e0 <LCD_SmoothChangePic+0x29a>
c:\Users\ql\Desktop\工作\1.28IPS电容触摸技术资料\新建文件夹\CH582M\obj/../src/lcd.c:660 (discriminator 3)
                        k = (i * width + j) * 2;
20001498:	fee45703          	lhu	a4,-18(s0)
2000149c:	fd845783          	lhu	a5,-40(s0)
200014a0:	02f70733          	mul	a4,a4,a5
200014a4:	fec45783          	lhu	a5,-20(s0)
200014a8:	97ba                	add	a5,a5,a4
200014aa:	0786                	slli	a5,a5,0x1
200014ac:	fef42223          	sw	a5,-28(s0)
c:\Users\ql\Desktop\工作\1.28IPS电容触摸技术资料\新建文件夹\CH582M\obj/../src/lcd.c:661 (discriminator 3)
                        LCD_WR_DATA8(pic0[k]);
200014b0:	fd042703          	lw	a4,-48(s0)
200014b4:	fe442783          	lw	a5,-28(s0)
200014b8:	97ba                	add	a5,a5,a4
200014ba:	0007c783          	lbu	a5,0(a5)
200014be:	853e                	mv	a0,a5
200014c0:	2471                	jal	2000174c <LCD_WR_DATA8>
c:\Users\ql\Desktop\工作\1.28IPS电容触摸技术资料\新建文件夹\CH582M\obj/../src/lcd.c:662 (discriminator 3)
                        LCD_WR_DATA8(pic0[k + 1]);
200014c2:	fe442783          	lw	a5,-28(s0)
200014c6:	0785                	addi	a5,a5,1
200014c8:	fd042703          	lw	a4,-48(s0)
200014cc:	97ba                	add	a5,a5,a4
200014ce:	0007c783          	lbu	a5,0(a5)
200014d2:	853e                	mv	a0,a5
200014d4:	2ca5                	jal	2000174c <LCD_WR_DATA8>
c:\Users\ql\Desktop\工作\1.28IPS电容触摸技术资料\新建文件夹\CH582M\obj/../src/lcd.c:659 (discriminator 3)
                    for (j = 0; j < width; j++) {
200014d6:	fec45783          	lhu	a5,-20(s0)
200014da:	0785                	addi	a5,a5,1
200014dc:	fef41623          	sh	a5,-20(s0)
c:\Users\ql\Desktop\工作\1.28IPS电容触摸技术资料\新建文件夹\CH582M\obj/../src/lcd.c:659 (discriminator 1)
200014e0:	fec45703          	lhu	a4,-20(s0)
200014e4:	fd845783          	lhu	a5,-40(s0)
200014e8:	faf768e3          	bltu	a4,a5,20001498 <LCD_SmoothChangePic+0x252>
c:\Users\ql\Desktop\工作\1.28IPS电容触摸技术资料\新建文件夹\CH582M\obj/../src/lcd.c:658 (discriminator 2)
                for (i = 0; i < length - nowDistance; i++) {
200014ec:	fee45783          	lhu	a5,-18(s0)
200014f0:	0785                	addi	a5,a5,1
200014f2:	fef41723          	sh	a5,-18(s0)
c:\Users\ql\Desktop\工作\1.28IPS电容触摸技术资料\新建文件夹\CH582M\obj/../src/lcd.c:658 (discriminator 1)
200014f6:	fee45703          	lhu	a4,-18(s0)
200014fa:	fda45683          	lhu	a3,-38(s0)
200014fe:	fea45783          	lhu	a5,-22(s0)
20001502:	40f687b3          	sub	a5,a3,a5
20001506:	f8f746e3          	blt	a4,a5,20001492 <LCD_SmoothChangePic+0x24c>
c:\Users\ql\Desktop\工作\1.28IPS电容触摸技术资料\新建文件夹\CH582M\obj/../src/lcd.c:665
                    }
                }
                break;
2000150a:	aa75                	j	200016c6 <LCD_SmoothChangePic+0x480>
c:\Users\ql\Desktop\工作\1.28IPS电容触摸技术资料\新建文件夹\CH582M\obj/../src/lcd.c:668

            case 3:  // 旧图向左，新图从右边进入
                for (i = 0; i < length; i++) {
2000150c:	fe041723          	sh	zero,-18(s0)
20001510:	a0d9                	j	200015d6 <LCD_SmoothChangePic+0x390>
c:\Users\ql\Desktop\工作\1.28IPS电容触摸技术资料\新建文件夹\CH582M\obj/../src/lcd.c:669
                    for (j = 0; j < width; j++) {
20001512:	fe041623          	sh	zero,-20(s0)
20001516:	a06d                	j	200015c0 <LCD_SmoothChangePic+0x37a>
c:\Users\ql\Desktop\工作\1.28IPS电容触摸技术资料\新建文件夹\CH582M\obj/../src/lcd.c:670
                        if (j < nowDistance) {
20001518:	fec45703          	lhu	a4,-20(s0)
2000151c:	fea45783          	lhu	a5,-22(s0)
20001520:	04f77863          	bgeu	a4,a5,20001570 <LCD_SmoothChangePic+0x32a>
c:\Users\ql\Desktop\工作\1.28IPS电容触摸技术资料\新建文件夹\CH582M\obj/../src/lcd.c:671
                            k = (i * width + (width - nowDistance + j)) * 2;
20001524:	fee45703          	lhu	a4,-18(s0)
20001528:	fd845783          	lhu	a5,-40(s0)
2000152c:	02f70733          	mul	a4,a4,a5
20001530:	fd845683          	lhu	a3,-40(s0)
20001534:	fea45783          	lhu	a5,-22(s0)
20001538:	8e9d                	sub	a3,a3,a5
2000153a:	fec45783          	lhu	a5,-20(s0)
2000153e:	97b6                	add	a5,a5,a3
20001540:	97ba                	add	a5,a5,a4
20001542:	0786                	slli	a5,a5,0x1
20001544:	fef42223          	sw	a5,-28(s0)
c:\Users\ql\Desktop\工作\1.28IPS电容触摸技术资料\新建文件夹\CH582M\obj/../src/lcd.c:672
                            LCD_WR_DATA8(pic1[k]);
20001548:	fcc42703          	lw	a4,-52(s0)
2000154c:	fe442783          	lw	a5,-28(s0)
20001550:	97ba                	add	a5,a5,a4
20001552:	0007c783          	lbu	a5,0(a5)
20001556:	853e                	mv	a0,a5
20001558:	2ad5                	jal	2000174c <LCD_WR_DATA8>
c:\Users\ql\Desktop\工作\1.28IPS电容触摸技术资料\新建文件夹\CH582M\obj/../src/lcd.c:673
                            LCD_WR_DATA8(pic1[k + 1]);
2000155a:	fe442783          	lw	a5,-28(s0)
2000155e:	0785                	addi	a5,a5,1
20001560:	fcc42703          	lw	a4,-52(s0)
20001564:	97ba                	add	a5,a5,a4
20001566:	0007c783          	lbu	a5,0(a5)
2000156a:	853e                	mv	a0,a5
2000156c:	22c5                	jal	2000174c <LCD_WR_DATA8>
2000156e:	a0a1                	j	200015b6 <LCD_SmoothChangePic+0x370>
c:\Users\ql\Desktop\工作\1.28IPS电容触摸技术资料\新建文件夹\CH582M\obj/../src/lcd.c:675
                        } else {
                            k = (i * width + (j - nowDistance)) * 2;
20001570:	fee45703          	lhu	a4,-18(s0)
20001574:	fd845783          	lhu	a5,-40(s0)
20001578:	02f70733          	mul	a4,a4,a5
2000157c:	fec45683          	lhu	a3,-20(s0)
20001580:	fea45783          	lhu	a5,-22(s0)
20001584:	40f687b3          	sub	a5,a3,a5
20001588:	97ba                	add	a5,a5,a4
2000158a:	0786                	slli	a5,a5,0x1
2000158c:	fef42223          	sw	a5,-28(s0)
c:\Users\ql\Desktop\工作\1.28IPS电容触摸技术资料\新建文件夹\CH582M\obj/../src/lcd.c:676
                            LCD_WR_DATA8(pic0[k]);
20001590:	fd042703          	lw	a4,-48(s0)
20001594:	fe442783          	lw	a5,-28(s0)
20001598:	97ba                	add	a5,a5,a4
2000159a:	0007c783          	lbu	a5,0(a5)
2000159e:	853e                	mv	a0,a5
200015a0:	2275                	jal	2000174c <LCD_WR_DATA8>
c:\Users\ql\Desktop\工作\1.28IPS电容触摸技术资料\新建文件夹\CH582M\obj/../src/lcd.c:677
                            LCD_WR_DATA8(pic0[k + 1]);
200015a2:	fe442783          	lw	a5,-28(s0)
200015a6:	0785                	addi	a5,a5,1
200015a8:	fd042703          	lw	a4,-48(s0)
200015ac:	97ba                	add	a5,a5,a4
200015ae:	0007c783          	lbu	a5,0(a5)
200015b2:	853e                	mv	a0,a5
200015b4:	2a61                	jal	2000174c <LCD_WR_DATA8>
c:\Users\ql\Desktop\工作\1.28IPS电容触摸技术资料\新建文件夹\CH582M\obj/../src/lcd.c:669 (discriminator 2)
                    for (j = 0; j < width; j++) {
200015b6:	fec45783          	lhu	a5,-20(s0)
200015ba:	0785                	addi	a5,a5,1
200015bc:	fef41623          	sh	a5,-20(s0)
c:\Users\ql\Desktop\工作\1.28IPS电容触摸技术资料\新建文件夹\CH582M\obj/../src/lcd.c:669 (discriminator 1)
200015c0:	fec45703          	lhu	a4,-20(s0)
200015c4:	fd845783          	lhu	a5,-40(s0)
200015c8:	f4f768e3          	bltu	a4,a5,20001518 <LCD_SmoothChangePic+0x2d2>
c:\Users\ql\Desktop\工作\1.28IPS电容触摸技术资料\新建文件夹\CH582M\obj/../src/lcd.c:668 (discriminator 2)
                for (i = 0; i < length; i++) {
200015cc:	fee45783          	lhu	a5,-18(s0)
200015d0:	0785                	addi	a5,a5,1
200015d2:	fef41723          	sh	a5,-18(s0)
c:\Users\ql\Desktop\工作\1.28IPS电容触摸技术资料\新建文件夹\CH582M\obj/../src/lcd.c:668 (discriminator 1)
200015d6:	fee45703          	lhu	a4,-18(s0)
200015da:	fda45783          	lhu	a5,-38(s0)
200015de:	f2f76ae3          	bltu	a4,a5,20001512 <LCD_SmoothChangePic+0x2cc>
c:\Users\ql\Desktop\工作\1.28IPS电容触摸技术资料\新建文件夹\CH582M\obj/../src/lcd.c:681
                        }
                    }
                }
                break;
200015e2:	a0d5                	j	200016c6 <LCD_SmoothChangePic+0x480>
c:\Users\ql\Desktop\工作\1.28IPS电容触摸技术资料\新建文件夹\CH582M\obj/../src/lcd.c:684

            case 4:  // 旧图向左移出，新图从右边进入
                for (i = 0; i < length; i++) {
200015e4:	fe041723          	sh	zero,-18(s0)
200015e8:	a8c1                	j	200016b8 <LCD_SmoothChangePic+0x472>
c:\Users\ql\Desktop\工作\1.28IPS电容触摸技术资料\新建文件夹\CH582M\obj/../src/lcd.c:685
                    for (j = 0; j < width; j++) {
200015ea:	fe041623          	sh	zero,-20(s0)
200015ee:	a855                	j	200016a2 <LCD_SmoothChangePic+0x45c>
c:\Users\ql\Desktop\工作\1.28IPS电容触摸技术资料\新建文件夹\CH582M\obj/../src/lcd.c:686
                        if (j < (width - nowDistance)) {
200015f0:	fec45703          	lhu	a4,-20(s0)
200015f4:	fd845683          	lhu	a3,-40(s0)
200015f8:	fea45783          	lhu	a5,-22(s0)
200015fc:	40f687b3          	sub	a5,a3,a5
20001600:	04f75563          	bge	a4,a5,2000164a <LCD_SmoothChangePic+0x404>
c:\Users\ql\Desktop\工作\1.28IPS电容触摸技术资料\新建文件夹\CH582M\obj/../src/lcd.c:687
                            k = (i * width + j + nowDistance) * 2;
20001604:	fee45703          	lhu	a4,-18(s0)
20001608:	fd845783          	lhu	a5,-40(s0)
2000160c:	02f70733          	mul	a4,a4,a5
20001610:	fec45783          	lhu	a5,-20(s0)
20001614:	973e                	add	a4,a4,a5
20001616:	fea45783          	lhu	a5,-22(s0)
2000161a:	97ba                	add	a5,a5,a4
2000161c:	0786                	slli	a5,a5,0x1
2000161e:	fef42223          	sw	a5,-28(s0)
c:\Users\ql\Desktop\工作\1.28IPS电容触摸技术资料\新建文件夹\CH582M\obj/../src/lcd.c:688
                            LCD_WR_DATA8(pic0[k]);
20001622:	fd042703          	lw	a4,-48(s0)
20001626:	fe442783          	lw	a5,-28(s0)
2000162a:	97ba                	add	a5,a5,a4
2000162c:	0007c783          	lbu	a5,0(a5)
20001630:	853e                	mv	a0,a5
20001632:	2a29                	jal	2000174c <LCD_WR_DATA8>
c:\Users\ql\Desktop\工作\1.28IPS电容触摸技术资料\新建文件夹\CH582M\obj/../src/lcd.c:689
                            LCD_WR_DATA8(pic0[k + 1]);
20001634:	fe442783          	lw	a5,-28(s0)
20001638:	0785                	addi	a5,a5,1
2000163a:	fd042703          	lw	a4,-48(s0)
2000163e:	97ba                	add	a5,a5,a4
20001640:	0007c783          	lbu	a5,0(a5)
20001644:	853e                	mv	a0,a5
20001646:	2219                	jal	2000174c <LCD_WR_DATA8>
20001648:	a881                	j	20001698 <LCD_SmoothChangePic+0x452>
c:\Users\ql\Desktop\工作\1.28IPS电容触摸技术资料\新建文件夹\CH582M\obj/../src/lcd.c:691
                        } else {
                            k = (i * width + (j - (width - nowDistance))) * 2;
2000164a:	fee45703          	lhu	a4,-18(s0)
2000164e:	fd845783          	lhu	a5,-40(s0)
20001652:	02f70733          	mul	a4,a4,a5
20001656:	fec45683          	lhu	a3,-20(s0)
2000165a:	fd845603          	lhu	a2,-40(s0)
2000165e:	fea45783          	lhu	a5,-22(s0)
20001662:	40f607b3          	sub	a5,a2,a5
20001666:	40f687b3          	sub	a5,a3,a5
2000166a:	97ba                	add	a5,a5,a4
2000166c:	0786                	slli	a5,a5,0x1
2000166e:	fef42223          	sw	a5,-28(s0)
c:\Users\ql\Desktop\工作\1.28IPS电容触摸技术资料\新建文件夹\CH582M\obj/../src/lcd.c:692
                            LCD_WR_DATA8(pic1[k]);
20001672:	fcc42703          	lw	a4,-52(s0)
20001676:	fe442783          	lw	a5,-28(s0)
2000167a:	97ba                	add	a5,a5,a4
2000167c:	0007c783          	lbu	a5,0(a5)
20001680:	853e                	mv	a0,a5
20001682:	20e9                	jal	2000174c <LCD_WR_DATA8>
c:\Users\ql\Desktop\工作\1.28IPS电容触摸技术资料\新建文件夹\CH582M\obj/../src/lcd.c:693
                            LCD_WR_DATA8(pic1[k + 1]);
20001684:	fe442783          	lw	a5,-28(s0)
20001688:	0785                	addi	a5,a5,1
2000168a:	fcc42703          	lw	a4,-52(s0)
2000168e:	97ba                	add	a5,a5,a4
20001690:	0007c783          	lbu	a5,0(a5)
20001694:	853e                	mv	a0,a5
20001696:	285d                	jal	2000174c <LCD_WR_DATA8>
c:\Users\ql\Desktop\工作\1.28IPS电容触摸技术资料\新建文件夹\CH582M\obj/../src/lcd.c:685 (discriminator 2)
                    for (j = 0; j < width; j++) {
20001698:	fec45783          	lhu	a5,-20(s0)
2000169c:	0785                	addi	a5,a5,1
2000169e:	fef41623          	sh	a5,-20(s0)
c:\Users\ql\Desktop\工作\1.28IPS电容触摸技术资料\新建文件夹\CH582M\obj/../src/lcd.c:685 (discriminator 1)
200016a2:	fec45703          	lhu	a4,-20(s0)
200016a6:	fd845783          	lhu	a5,-40(s0)
200016aa:	f4f763e3          	bltu	a4,a5,200015f0 <LCD_SmoothChangePic+0x3aa>
c:\Users\ql\Desktop\工作\1.28IPS电容触摸技术资料\新建文件夹\CH582M\obj/../src/lcd.c:684 (discriminator 2)
                for (i = 0; i < length; i++) {
200016ae:	fee45783          	lhu	a5,-18(s0)
200016b2:	0785                	addi	a5,a5,1
200016b4:	fef41723          	sh	a5,-18(s0)
c:\Users\ql\Desktop\工作\1.28IPS电容触摸技术资料\新建文件夹\CH582M\obj/../src/lcd.c:684 (discriminator 1)
200016b8:	fee45703          	lhu	a4,-18(s0)
200016bc:	fda45783          	lhu	a5,-38(s0)
200016c0:	f2f765e3          	bltu	a4,a5,200015ea <LCD_SmoothChangePic+0x3a4>
c:\Users\ql\Desktop\工作\1.28IPS电容触摸技术资料\新建文件夹\CH582M\obj/../src/lcd.c:697
                        }
                    }
                }
                break;
200016c4:	0001                	nop
c:\Users\ql\Desktop\工作\1.28IPS电容触摸技术资料\新建文件夹\CH582M\obj/../src/lcd.c:701
        }

        // 更新步进量
        nowDistance += step;
200016c6:	fea45703          	lhu	a4,-22(s0)
200016ca:	fe245783          	lhu	a5,-30(s0)
200016ce:	97ba                	add	a5,a5,a4
200016d0:	fef41523          	sh	a5,-22(s0)
c:\Users\ql\Desktop\工作\1.28IPS电容触摸技术资料\新建文件夹\CH582M\obj/../src/lcd.c:704

        // 延迟一定时间，控制滑动速度
        DelayMs(ms);  // 假设 delay(ms) 是一个延迟函数，单位为毫秒
200016d4:	fd644783          	lbu	a5,-42(s0)
200016d8:	07c2                	slli	a5,a5,0x10
200016da:	83c1                	srli	a5,a5,0x10
200016dc:	853e                	mv	a0,a5
200016de:	327000ef          	jal	ra,20002204 <mDelaymS>
c:\Users\ql\Desktop\工作\1.28IPS电容触摸技术资料\新建文件夹\CH582M\obj/../src/lcd.c:629
    while (nowDistance <= moveDistance) {                       // 判断位移是否完成
200016e2:	fea45703          	lhu	a4,-22(s0)
200016e6:	fe045783          	lhu	a5,-32(s0)
200016ea:	bce7f7e3          	bgeu	a5,a4,200012b8 <LCD_SmoothChangePic+0x72>
c:\Users\ql\Desktop\工作\1.28IPS电容触摸技术资料\新建文件夹\CH582M\obj/../src/lcd.c:706
    }
}
200016ee:	0001                	nop
200016f0:	50f2                	lw	ra,60(sp)
200016f2:	5462                	lw	s0,56(sp)
200016f4:	6121                	addi	sp,sp,64
200016f6:	8082                	ret

200016f8 <LCD_Writ_Bus>:
LCD_Writ_Bus():
c:\Users\ql\Desktop\工作\1.28IPS电容触摸技术资料\新建文件夹\CH582M\obj/../src/lcd_init.c:41
      函数说明：LCD串行数据写入函数
      入口数据：dat  要写入的串行数据
      返回值：  无
******************************************************************************/
__HIGH_CODE
void LCD_Writ_Bus (u8 dat) {
200016f8:	1101                	addi	sp,sp,-32
200016fa:	ce22                	sw	s0,28(sp)
200016fc:	1000                	addi	s0,sp,32
200016fe:	87aa                	mv	a5,a0
20001700:	fef407a3          	sb	a5,-17(s0)
c:\Users\ql\Desktop\工作\1.28IPS电容触摸技术资料\新建文件夹\CH582M\obj/../src/lcd_init.c:42
    DATAOUT (dat);
20001704:	400017b7          	lui	a5,0x40001
20001708:	0c878793          	addi	a5,a5,200 # 400010c8 <_eusrstack+0x1fff90c8>
2000170c:	fef44703          	lbu	a4,-17(s0)
20001710:	00e78023          	sb	a4,0(a5)
c:\Users\ql\Desktop\工作\1.28IPS电容触摸技术资料\新建文件夹\CH582M\obj/../src/lcd_init.c:43
    LCD_WR_Clr();
20001714:	400017b7          	lui	a5,0x40001
20001718:	0ac78793          	addi	a5,a5,172 # 400010ac <_eusrstack+0x1fff90ac>
2000171c:	4394                	lw	a3,0(a5)
2000171e:	400017b7          	lui	a5,0x40001
20001722:	0ac78793          	addi	a5,a5,172 # 400010ac <_eusrstack+0x1fff90ac>
20001726:	6711                	lui	a4,0x4
20001728:	8f55                	or	a4,a4,a3
2000172a:	c398                	sw	a4,0(a5)
c:\Users\ql\Desktop\工作\1.28IPS电容触摸技术资料\新建文件夹\CH582M\obj/../src/lcd_init.c:44
    LCD_WR_Set();
2000172c:	400017b7          	lui	a5,0x40001
20001730:	0a878793          	addi	a5,a5,168 # 400010a8 <_eusrstack+0x1fff90a8>
20001734:	4394                	lw	a3,0(a5)
20001736:	400017b7          	lui	a5,0x40001
2000173a:	0a878793          	addi	a5,a5,168 # 400010a8 <_eusrstack+0x1fff90a8>
2000173e:	6711                	lui	a4,0x4
20001740:	8f55                	or	a4,a4,a3
20001742:	c398                	sw	a4,0(a5)
c:\Users\ql\Desktop\工作\1.28IPS电容触摸技术资料\新建文件夹\CH582M\obj/../src/lcd_init.c:45
}
20001744:	0001                	nop
20001746:	4472                	lw	s0,28(sp)
20001748:	6105                	addi	sp,sp,32
2000174a:	8082                	ret

2000174c <LCD_WR_DATA8>:
LCD_WR_DATA8():
c:\Users\ql\Desktop\工作\1.28IPS电容触摸技术资料\新建文件夹\CH582M\obj/../src/lcd_init.c:53
      函数说明：LCD写入数据
      入口数据：dat 写入的数据
      返回值：  无
******************************************************************************/
__HIGH_CODE
void LCD_WR_DATA8 (u8 dat) {
2000174c:	1101                	addi	sp,sp,-32
2000174e:	ce06                	sw	ra,28(sp)
20001750:	cc22                	sw	s0,24(sp)
20001752:	1000                	addi	s0,sp,32
20001754:	87aa                	mv	a5,a0
20001756:	fef407a3          	sb	a5,-17(s0)
c:\Users\ql\Desktop\工作\1.28IPS电容触摸技术资料\新建文件夹\CH582M\obj/../src/lcd_init.c:54
    LCD_DC_Set();
2000175a:	400017b7          	lui	a5,0x40001
2000175e:	0a878793          	addi	a5,a5,168 # 400010a8 <_eusrstack+0x1fff90a8>
20001762:	4398                	lw	a4,0(a5)
20001764:	400017b7          	lui	a5,0x40001
20001768:	0a878793          	addi	a5,a5,168 # 400010a8 <_eusrstack+0x1fff90a8>
2000176c:	40076713          	ori	a4,a4,1024
20001770:	c398                	sw	a4,0(a5)
c:\Users\ql\Desktop\工作\1.28IPS电容触摸技术资料\新建文件夹\CH582M\obj/../src/lcd_init.c:55
    LCD_Writ_Bus (dat);
20001772:	fef44783          	lbu	a5,-17(s0)
20001776:	853e                	mv	a0,a5
20001778:	3741                	jal	200016f8 <LCD_Writ_Bus>
c:\Users\ql\Desktop\工作\1.28IPS电容触摸技术资料\新建文件夹\CH582M\obj/../src/lcd_init.c:56
}
2000177a:	0001                	nop
2000177c:	40f2                	lw	ra,28(sp)
2000177e:	4462                	lw	s0,24(sp)
20001780:	6105                	addi	sp,sp,32
20001782:	8082                	ret

20001784 <LCD_WR_DATA>:
LCD_WR_DATA():
c:\Users\ql\Desktop\工作\1.28IPS电容触摸技术资料\新建文件夹\CH582M\obj/../src/lcd_init.c:64
      函数说明：LCD写入数据
      入口数据：dat 写入的数据
      返回值：  无
******************************************************************************/
__HIGH_CODE
void LCD_WR_DATA (u16 dat) {
20001784:	1101                	addi	sp,sp,-32
20001786:	ce06                	sw	ra,28(sp)
20001788:	cc22                	sw	s0,24(sp)
2000178a:	1000                	addi	s0,sp,32
2000178c:	87aa                	mv	a5,a0
2000178e:	fef41723          	sh	a5,-18(s0)
c:\Users\ql\Desktop\工作\1.28IPS电容触摸技术资料\新建文件夹\CH582M\obj/../src/lcd_init.c:65
    LCD_DC_Set();
20001792:	400017b7          	lui	a5,0x40001
20001796:	0a878793          	addi	a5,a5,168 # 400010a8 <_eusrstack+0x1fff90a8>
2000179a:	4398                	lw	a4,0(a5)
2000179c:	400017b7          	lui	a5,0x40001
200017a0:	0a878793          	addi	a5,a5,168 # 400010a8 <_eusrstack+0x1fff90a8>
200017a4:	40076713          	ori	a4,a4,1024
200017a8:	c398                	sw	a4,0(a5)
c:\Users\ql\Desktop\工作\1.28IPS电容触摸技术资料\新建文件夹\CH582M\obj/../src/lcd_init.c:66
    LCD_Writ_Bus (dat >> 8);
200017aa:	fee45783          	lhu	a5,-18(s0)
200017ae:	83a1                	srli	a5,a5,0x8
200017b0:	07c2                	slli	a5,a5,0x10
200017b2:	83c1                	srli	a5,a5,0x10
200017b4:	0ff7f793          	andi	a5,a5,255
200017b8:	853e                	mv	a0,a5
200017ba:	3f3d                	jal	200016f8 <LCD_Writ_Bus>
c:\Users\ql\Desktop\工作\1.28IPS电容触摸技术资料\新建文件夹\CH582M\obj/../src/lcd_init.c:67
    LCD_Writ_Bus (dat);
200017bc:	fee45783          	lhu	a5,-18(s0)
200017c0:	0ff7f793          	andi	a5,a5,255
200017c4:	853e                	mv	a0,a5
200017c6:	3f0d                	jal	200016f8 <LCD_Writ_Bus>
c:\Users\ql\Desktop\工作\1.28IPS电容触摸技术资料\新建文件夹\CH582M\obj/../src/lcd_init.c:68
}
200017c8:	0001                	nop
200017ca:	40f2                	lw	ra,28(sp)
200017cc:	4462                	lw	s0,24(sp)
200017ce:	6105                	addi	sp,sp,32
200017d0:	8082                	ret

200017d2 <LCD_WR_REG>:
LCD_WR_REG():
c:\Users\ql\Desktop\工作\1.28IPS电容触摸技术资料\新建文件夹\CH582M\obj/../src/lcd_init.c:76
      函数说明：LCD写入命令
      入口数据：dat 写入的命令
      返回值：  无
******************************************************************************/
__HIGH_CODE
void LCD_WR_REG (u8 dat) {
200017d2:	1101                	addi	sp,sp,-32
200017d4:	ce06                	sw	ra,28(sp)
200017d6:	cc22                	sw	s0,24(sp)
200017d8:	1000                	addi	s0,sp,32
200017da:	87aa                	mv	a5,a0
200017dc:	fef407a3          	sb	a5,-17(s0)
c:\Users\ql\Desktop\工作\1.28IPS电容触摸技术资料\新建文件夹\CH582M\obj/../src/lcd_init.c:77
    LCD_DC_Clr();  // 写命令
200017e0:	400017b7          	lui	a5,0x40001
200017e4:	0ac78793          	addi	a5,a5,172 # 400010ac <_eusrstack+0x1fff90ac>
200017e8:	4398                	lw	a4,0(a5)
200017ea:	400017b7          	lui	a5,0x40001
200017ee:	0ac78793          	addi	a5,a5,172 # 400010ac <_eusrstack+0x1fff90ac>
200017f2:	40076713          	ori	a4,a4,1024
200017f6:	c398                	sw	a4,0(a5)
c:\Users\ql\Desktop\工作\1.28IPS电容触摸技术资料\新建文件夹\CH582M\obj/../src/lcd_init.c:78
    LCD_Writ_Bus (dat);
200017f8:	fef44783          	lbu	a5,-17(s0)
200017fc:	853e                	mv	a0,a5
200017fe:	3ded                	jal	200016f8 <LCD_Writ_Bus>
c:\Users\ql\Desktop\工作\1.28IPS电容触摸技术资料\新建文件夹\CH582M\obj/../src/lcd_init.c:79
    LCD_DC_Set();  // 写数据
20001800:	400017b7          	lui	a5,0x40001
20001804:	0a878793          	addi	a5,a5,168 # 400010a8 <_eusrstack+0x1fff90a8>
20001808:	4398                	lw	a4,0(a5)
2000180a:	400017b7          	lui	a5,0x40001
2000180e:	0a878793          	addi	a5,a5,168 # 400010a8 <_eusrstack+0x1fff90a8>
20001812:	40076713          	ori	a4,a4,1024
20001816:	c398                	sw	a4,0(a5)
c:\Users\ql\Desktop\工作\1.28IPS电容触摸技术资料\新建文件夹\CH582M\obj/../src/lcd_init.c:80
}
20001818:	0001                	nop
2000181a:	40f2                	lw	ra,28(sp)
2000181c:	4462                	lw	s0,24(sp)
2000181e:	6105                	addi	sp,sp,32
20001820:	8082                	ret

20001822 <LCD_Address_Set>:
LCD_Address_Set():
c:\Users\ql\Desktop\工作\1.28IPS电容触摸技术资料\新建文件夹\CH582M\obj/../src/lcd_init.c:89
      入口数据：x1,x2 设置列的起始和结束地址
                y1,y2 设置行的起始和结束地址
      返回值：  无
******************************************************************************/
__HIGH_CODE
void LCD_Address_Set (u16 x1, u16 y1, u16 x2, u16 y2) {
20001822:	1101                	addi	sp,sp,-32
20001824:	ce06                	sw	ra,28(sp)
20001826:	cc22                	sw	s0,24(sp)
20001828:	1000                	addi	s0,sp,32
2000182a:	87aa                	mv	a5,a0
2000182c:	8736                	mv	a4,a3
2000182e:	fef41723          	sh	a5,-18(s0)
20001832:	87ae                	mv	a5,a1
20001834:	fef41623          	sh	a5,-20(s0)
20001838:	87b2                	mv	a5,a2
2000183a:	fef41523          	sh	a5,-22(s0)
2000183e:	87ba                	mv	a5,a4
20001840:	fef41423          	sh	a5,-24(s0)
c:\Users\ql\Desktop\工作\1.28IPS电容触摸技术资料\新建文件夹\CH582M\obj/../src/lcd_init.c:90
    LCD_WR_REG (0x2a);  // 列地址设置
20001844:	02a00513          	li	a0,42
20001848:	3769                	jal	200017d2 <LCD_WR_REG>
c:\Users\ql\Desktop\工作\1.28IPS电容触摸技术资料\新建文件夹\CH582M\obj/../src/lcd_init.c:91
    LCD_WR_DATA (x1);
2000184a:	fee45783          	lhu	a5,-18(s0)
2000184e:	853e                	mv	a0,a5
20001850:	3f15                	jal	20001784 <LCD_WR_DATA>
c:\Users\ql\Desktop\工作\1.28IPS电容触摸技术资料\新建文件夹\CH582M\obj/../src/lcd_init.c:92
    LCD_WR_DATA (x2);
20001852:	fea45783          	lhu	a5,-22(s0)
20001856:	853e                	mv	a0,a5
20001858:	3735                	jal	20001784 <LCD_WR_DATA>
c:\Users\ql\Desktop\工作\1.28IPS电容触摸技术资料\新建文件夹\CH582M\obj/../src/lcd_init.c:93
    LCD_WR_REG (0x2b);  // 行地址设置
2000185a:	02b00513          	li	a0,43
2000185e:	3f95                	jal	200017d2 <LCD_WR_REG>
c:\Users\ql\Desktop\工作\1.28IPS电容触摸技术资料\新建文件夹\CH582M\obj/../src/lcd_init.c:94
    LCD_WR_DATA (y1);
20001860:	fec45783          	lhu	a5,-20(s0)
20001864:	853e                	mv	a0,a5
20001866:	3f39                	jal	20001784 <LCD_WR_DATA>
c:\Users\ql\Desktop\工作\1.28IPS电容触摸技术资料\新建文件夹\CH582M\obj/../src/lcd_init.c:95
    LCD_WR_DATA (y2);
20001868:	fe845783          	lhu	a5,-24(s0)
2000186c:	853e                	mv	a0,a5
2000186e:	3f19                	jal	20001784 <LCD_WR_DATA>
c:\Users\ql\Desktop\工作\1.28IPS电容触摸技术资料\新建文件夹\CH582M\obj/../src/lcd_init.c:96
    LCD_WR_REG (0x2c);  // 储存器写
20001870:	02c00513          	li	a0,44
20001874:	3fb9                	jal	200017d2 <LCD_WR_REG>
c:\Users\ql\Desktop\工作\1.28IPS电容触摸技术资料\新建文件夹\CH582M\obj/../src/lcd_init.c:97
}
20001876:	0001                	nop
20001878:	40f2                	lw	ra,28(sp)
2000187a:	4462                	lw	s0,24(sp)
2000187c:	6105                	addi	sp,sp,32
2000187e:	8082                	ret

20001880 <user>:
user():
c:\Users\ql\Desktop\工作\1.28IPS电容触摸技术资料\新建文件夹\CH582M\obj/../src/user.c:10

u8 imagestatue = 1;
u8 gesturesta = 0;

__HIGH_CODE
int user() {
20001880:	1101                	addi	sp,sp,-32
20001882:	ce06                	sw	ra,28(sp)
20001884:	cc22                	sw	s0,24(sp)
20001886:	1000                	addi	s0,sp,32
c:\Users\ql\Desktop\工作\1.28IPS电容触摸技术资料\新建文件夹\CH582M\obj/../src/user.c:13

    u8 i, j;
    float t = 0;
20001888:	00000793          	li	a5,0
2000188c:	fef42623          	sw	a5,-20(s0)
c:\Users\ql\Desktop\工作\1.28IPS电容触摸技术资料\新建文件夹\CH582M\obj/../src/user.c:54 (discriminator 1)

        /*按键控制平滑切换图片 240*240*/
        // show_key_changepic_240();

        /* 手势控制平滑切换图片 100*100 */
        show_gesture_changepic_100();
20001890:	e0002097          	auipc	ra,0xe0002
20001894:	8f0080e7          	jalr	-1808(ra) # 3180 <show_gesture_changepic_100>
20001898:	bfe5                	j	20001890 <user+0x10>

2000189a <SetSysClock>:
SetSysClock():
c:\Users\ql\Desktop\工作\1.28IPS电容触摸技术资料\新建文件夹\CH582M\obj/../StdPeriphDriver/CH58x_sys.c:27
 *
 * @return  none
 */
__HIGH_CODE
void SetSysClock(SYS_CLKTypeDef sc)
{
2000189a:	7135                	addi	sp,sp,-160
2000189c:	cf22                	sw	s0,156(sp)
2000189e:	1100                	addi	s0,sp,160
200018a0:	f6a42623          	sw	a0,-148(s0)
sys_safe_access_enable():
c:\Users\ql\Desktop\工作\1.28IPS电容触摸技术资料\新建文件夹\CH582M\StdPeriphDriver\inc/CH58x_sys.h:182
 * within the valid period. The safe mode will be automatically 
 * terminated after the above validity period is exceeded.
 */
 __attribute__((always_inline)) static inline void sys_safe_access_enable(void)
{
   if(read_csr(0x800)&0x08)
200018a4:	800027f3          	csrr	a5,0x800
200018a8:	fef42223          	sw	a5,-28(s0)
200018ac:	fe442783          	lw	a5,-28(s0)
200018b0:	8ba1                	andi	a5,a5,8
200018b2:	c385                	beqz	a5,200018d2 <SetSysClock+0x38>
c:\Users\ql\Desktop\工作\1.28IPS电容触摸技术资料\新建文件夹\CH582M\StdPeriphDriver\inc/CH58x_sys.h:184
   {
       IRQ_STA = read_csr(0x800);
200018b4:	800027f3          	csrr	a5,0x800
200018b8:	fef42023          	sw	a5,-32(s0)
200018bc:	fe042703          	lw	a4,-32(s0)
200018c0:	80c18793          	addi	a5,gp,-2036 # 20002684 <IRQ_STA>
200018c4:	c398                	sw	a4,0(a5)
c:\Users\ql\Desktop\工作\1.28IPS电容触摸技术资料\新建文件夹\CH582M\StdPeriphDriver\inc/CH58x_sys.h:185
       write_csr(0x800, (IRQ_STA&(~0x08)));
200018c6:	80c18793          	addi	a5,gp,-2036 # 20002684 <IRQ_STA>
200018ca:	439c                	lw	a5,0(a5)
200018cc:	9bdd                	andi	a5,a5,-9
200018ce:	80079073          	csrw	0x800,a5
c:\Users\ql\Desktop\工作\1.28IPS电容触摸技术资料\新建文件夹\CH582M\StdPeriphDriver\inc/CH58x_sys.h:187
   }
   SAFEOPERATE;
200018d2:	0001                	nop
200018d4:	0001                	nop
c:\Users\ql\Desktop\工作\1.28IPS电容触摸技术资料\新建文件夹\CH582M\StdPeriphDriver\inc/CH58x_sys.h:188
   R8_SAFE_ACCESS_SIG = SAFE_ACCESS_SIG1;
200018d6:	400017b7          	lui	a5,0x40001
200018da:	04078793          	addi	a5,a5,64 # 40001040 <_eusrstack+0x1fff9040>
200018de:	05700713          	li	a4,87
200018e2:	00e78023          	sb	a4,0(a5)
c:\Users\ql\Desktop\工作\1.28IPS电容触摸技术资料\新建文件夹\CH582M\StdPeriphDriver\inc/CH58x_sys.h:189
   R8_SAFE_ACCESS_SIG = SAFE_ACCESS_SIG2;
200018e6:	400017b7          	lui	a5,0x40001
200018ea:	04078793          	addi	a5,a5,64 # 40001040 <_eusrstack+0x1fff9040>
200018ee:	fa800713          	li	a4,-88
200018f2:	00e78023          	sb	a4,0(a5)
c:\Users\ql\Desktop\工作\1.28IPS电容触摸技术资料\新建文件夹\CH582M\StdPeriphDriver\inc/CH58x_sys.h:190
   SAFEOPERATE;
200018f6:	0001                	nop
200018f8:	0001                	nop
SetSysClock():
c:\Users\ql\Desktop\工作\1.28IPS电容触摸技术资料\新建文件夹\CH582M\obj/../StdPeriphDriver/CH58x_sys.c:30
    uint32_t i;
    sys_safe_access_enable();
    R8_PLL_CONFIG &= ~(1 << 5); //
200018fa:	400017b7          	lui	a5,0x40001
200018fe:	04b78793          	addi	a5,a5,75 # 4000104b <_eusrstack+0x1fff904b>
20001902:	0007c783          	lbu	a5,0(a5)
20001906:	0ff7f713          	andi	a4,a5,255
2000190a:	400017b7          	lui	a5,0x40001
2000190e:	04b78793          	addi	a5,a5,75 # 4000104b <_eusrstack+0x1fff904b>
20001912:	fdf77713          	andi	a4,a4,-33
20001916:	0ff77713          	andi	a4,a4,255
2000191a:	00e78023          	sb	a4,0(a5)
sys_safe_access_disable():
c:\Users\ql\Desktop\工作\1.28IPS电容触摸技术资料\新建文件夹\CH582M\StdPeriphDriver\inc/CH58x_sys.h:195
}

__attribute__((always_inline)) static inline void sys_safe_access_disable(void)
{
   R8_SAFE_ACCESS_SIG = 0;
2000191e:	400017b7          	lui	a5,0x40001
20001922:	04078793          	addi	a5,a5,64 # 40001040 <_eusrstack+0x1fff9040>
20001926:	00078023          	sb	zero,0(a5)
c:\Users\ql\Desktop\工作\1.28IPS电容触摸技术资料\新建文件夹\CH582M\StdPeriphDriver\inc/CH58x_sys.h:196
   write_csr(0x800, read_csr(0x800)|(IRQ_STA&0x08));
2000192a:	800027f3          	csrr	a5,0x800
2000192e:	fef42423          	sw	a5,-24(s0)
20001932:	fe842703          	lw	a4,-24(s0)
20001936:	80c18793          	addi	a5,gp,-2036 # 20002684 <IRQ_STA>
2000193a:	439c                	lw	a5,0(a5)
2000193c:	8ba1                	andi	a5,a5,8
2000193e:	8fd9                	or	a5,a5,a4
20001940:	80079073          	csrw	0x800,a5
c:\Users\ql\Desktop\工作\1.28IPS电容触摸技术资料\新建文件夹\CH582M\StdPeriphDriver\inc/CH58x_sys.h:197
   IRQ_STA = 0;
20001944:	80c18793          	addi	a5,gp,-2036 # 20002684 <IRQ_STA>
20001948:	0007a023          	sw	zero,0(a5)
c:\Users\ql\Desktop\工作\1.28IPS电容触摸技术资料\新建文件夹\CH582M\StdPeriphDriver\inc/CH58x_sys.h:198
   SAFEOPERATE;
2000194c:	0001                	nop
2000194e:	0001                	nop
SetSysClock():
c:\Users\ql\Desktop\工作\1.28IPS电容触摸技术资料\新建文件夹\CH582M\obj/../StdPeriphDriver/CH58x_sys.c:32
    sys_safe_access_disable();
    if(sc & 0x20)
20001950:	f6c42783          	lw	a5,-148(s0)
20001954:	0207f793          	andi	a5,a5,32
20001958:	22078363          	beqz	a5,20001b7e <SetSysClock+0x2e4>
c:\Users\ql\Desktop\工作\1.28IPS电容触摸技术资料\新建文件夹\CH582M\obj/../StdPeriphDriver/CH58x_sys.c:34
    { // HSE div
        if(!(R8_HFCK_PWR_CTRL & RB_CLK_XT32M_PON))
2000195c:	400017b7          	lui	a5,0x40001
20001960:	07a9                	addi	a5,a5,10
20001962:	0007c783          	lbu	a5,0(a5) # 40001000 <_eusrstack+0x1fff9000>
20001966:	0ff7f793          	andi	a5,a5,255
2000196a:	8b91                	andi	a5,a5,4
2000196c:	e7e9                	bnez	a5,20001a36 <SetSysClock+0x19c>
sys_safe_access_enable():
c:\Users\ql\Desktop\工作\1.28IPS电容触摸技术资料\新建文件夹\CH582M\StdPeriphDriver\inc/CH58x_sys.h:182
   if(read_csr(0x800)&0x08)
2000196e:	800027f3          	csrr	a5,0x800
20001972:	fcf42c23          	sw	a5,-40(s0)
20001976:	fd842783          	lw	a5,-40(s0)
2000197a:	8ba1                	andi	a5,a5,8
2000197c:	c385                	beqz	a5,2000199c <SetSysClock+0x102>
c:\Users\ql\Desktop\工作\1.28IPS电容触摸技术资料\新建文件夹\CH582M\StdPeriphDriver\inc/CH58x_sys.h:184
       IRQ_STA = read_csr(0x800);
2000197e:	800027f3          	csrr	a5,0x800
20001982:	fcf42a23          	sw	a5,-44(s0)
20001986:	fd442703          	lw	a4,-44(s0)
2000198a:	80c18793          	addi	a5,gp,-2036 # 20002684 <IRQ_STA>
2000198e:	c398                	sw	a4,0(a5)
c:\Users\ql\Desktop\工作\1.28IPS电容触摸技术资料\新建文件夹\CH582M\StdPeriphDriver\inc/CH58x_sys.h:185
       write_csr(0x800, (IRQ_STA&(~0x08)));
20001990:	80c18793          	addi	a5,gp,-2036 # 20002684 <IRQ_STA>
20001994:	439c                	lw	a5,0(a5)
20001996:	9bdd                	andi	a5,a5,-9
20001998:	80079073          	csrw	0x800,a5
c:\Users\ql\Desktop\工作\1.28IPS电容触摸技术资料\新建文件夹\CH582M\StdPeriphDriver\inc/CH58x_sys.h:187
   SAFEOPERATE;
2000199c:	0001                	nop
2000199e:	0001                	nop
c:\Users\ql\Desktop\工作\1.28IPS电容触摸技术资料\新建文件夹\CH582M\StdPeriphDriver\inc/CH58x_sys.h:188
   R8_SAFE_ACCESS_SIG = SAFE_ACCESS_SIG1;
200019a0:	400017b7          	lui	a5,0x40001
200019a4:	04078793          	addi	a5,a5,64 # 40001040 <_eusrstack+0x1fff9040>
200019a8:	05700713          	li	a4,87
200019ac:	00e78023          	sb	a4,0(a5)
c:\Users\ql\Desktop\工作\1.28IPS电容触摸技术资料\新建文件夹\CH582M\StdPeriphDriver\inc/CH58x_sys.h:189
   R8_SAFE_ACCESS_SIG = SAFE_ACCESS_SIG2;
200019b0:	400017b7          	lui	a5,0x40001
200019b4:	04078793          	addi	a5,a5,64 # 40001040 <_eusrstack+0x1fff9040>
200019b8:	fa800713          	li	a4,-88
200019bc:	00e78023          	sb	a4,0(a5)
c:\Users\ql\Desktop\工作\1.28IPS电容触摸技术资料\新建文件夹\CH582M\StdPeriphDriver\inc/CH58x_sys.h:190
   SAFEOPERATE;
200019c0:	0001                	nop
200019c2:	0001                	nop
SetSysClock():
c:\Users\ql\Desktop\工作\1.28IPS电容触摸技术资料\新建文件夹\CH582M\obj/../StdPeriphDriver/CH58x_sys.c:37
        {
            sys_safe_access_enable();
            R8_HFCK_PWR_CTRL |= RB_CLK_XT32M_PON; // HSE power on
200019c4:	400017b7          	lui	a5,0x40001
200019c8:	07a9                	addi	a5,a5,10
200019ca:	0007c783          	lbu	a5,0(a5) # 40001000 <_eusrstack+0x1fff9000>
200019ce:	0ff7f713          	andi	a4,a5,255
200019d2:	400017b7          	lui	a5,0x40001
200019d6:	07a9                	addi	a5,a5,10
200019d8:	00476713          	ori	a4,a4,4
200019dc:	0ff77713          	andi	a4,a4,255
200019e0:	00e78023          	sb	a4,0(a5) # 40001000 <_eusrstack+0x1fff9000>
sys_safe_access_disable():
c:\Users\ql\Desktop\工作\1.28IPS电容触摸技术资料\新建文件夹\CH582M\StdPeriphDriver\inc/CH58x_sys.h:195
   R8_SAFE_ACCESS_SIG = 0;
200019e4:	400017b7          	lui	a5,0x40001
200019e8:	04078793          	addi	a5,a5,64 # 40001040 <_eusrstack+0x1fff9040>
200019ec:	00078023          	sb	zero,0(a5)
c:\Users\ql\Desktop\工作\1.28IPS电容触摸技术资料\新建文件夹\CH582M\StdPeriphDriver\inc/CH58x_sys.h:196
   write_csr(0x800, read_csr(0x800)|(IRQ_STA&0x08));
200019f0:	800027f3          	csrr	a5,0x800
200019f4:	fcf42e23          	sw	a5,-36(s0)
200019f8:	fdc42703          	lw	a4,-36(s0)
200019fc:	80c18793          	addi	a5,gp,-2036 # 20002684 <IRQ_STA>
20001a00:	439c                	lw	a5,0(a5)
20001a02:	8ba1                	andi	a5,a5,8
20001a04:	8fd9                	or	a5,a5,a4
20001a06:	80079073          	csrw	0x800,a5
c:\Users\ql\Desktop\工作\1.28IPS电容触摸技术资料\新建文件夹\CH582M\StdPeriphDriver\inc/CH58x_sys.h:197
   IRQ_STA = 0;
20001a0a:	80c18793          	addi	a5,gp,-2036 # 20002684 <IRQ_STA>
20001a0e:	0007a023          	sw	zero,0(a5)
c:\Users\ql\Desktop\工作\1.28IPS电容触摸技术资料\新建文件夹\CH582M\StdPeriphDriver\inc/CH58x_sys.h:198
   SAFEOPERATE;
20001a12:	0001                	nop
20001a14:	0001                	nop
SetSysClock():
c:\Users\ql\Desktop\工作\1.28IPS电容触摸技术资料\新建文件夹\CH582M\obj/../StdPeriphDriver/CH58x_sys.c:39
            sys_safe_access_disable();
            for(i = 0; i < 1200; i++)
20001a16:	fe042623          	sw	zero,-20(s0)
20001a1a:	a801                	j	20001a2a <SetSysClock+0x190>
c:\Users\ql\Desktop\工作\1.28IPS电容触摸技术资料\新建文件夹\CH582M\obj/../StdPeriphDriver/CH58x_sys.c:41 (discriminator 3)
            {
                __nop();
20001a1c:	0001                	nop
c:\Users\ql\Desktop\工作\1.28IPS电容触摸技术资料\新建文件夹\CH582M\obj/../StdPeriphDriver/CH58x_sys.c:42 (discriminator 3)
                __nop();
20001a1e:	0001                	nop
c:\Users\ql\Desktop\工作\1.28IPS电容触摸技术资料\新建文件夹\CH582M\obj/../StdPeriphDriver/CH58x_sys.c:39 (discriminator 3)
            for(i = 0; i < 1200; i++)
20001a20:	fec42783          	lw	a5,-20(s0)
20001a24:	0785                	addi	a5,a5,1
20001a26:	fef42623          	sw	a5,-20(s0)
c:\Users\ql\Desktop\工作\1.28IPS电容触摸技术资料\新建文件夹\CH582M\obj/../StdPeriphDriver/CH58x_sys.c:39 (discriminator 1)
20001a2a:	fec42703          	lw	a4,-20(s0)
20001a2e:	4af00793          	li	a5,1199
20001a32:	fee7f5e3          	bgeu	a5,a4,20001a1c <SetSysClock+0x182>
sys_safe_access_enable():
c:\Users\ql\Desktop\工作\1.28IPS电容触摸技术资料\新建文件夹\CH582M\StdPeriphDriver\inc/CH58x_sys.h:182
   if(read_csr(0x800)&0x08)
20001a36:	800027f3          	csrr	a5,0x800
20001a3a:	fcf42023          	sw	a5,-64(s0)
20001a3e:	fc042783          	lw	a5,-64(s0)
20001a42:	8ba1                	andi	a5,a5,8
20001a44:	c385                	beqz	a5,20001a64 <SetSysClock+0x1ca>
c:\Users\ql\Desktop\工作\1.28IPS电容触摸技术资料\新建文件夹\CH582M\StdPeriphDriver\inc/CH58x_sys.h:184
       IRQ_STA = read_csr(0x800);
20001a46:	800027f3          	csrr	a5,0x800
20001a4a:	faf42e23          	sw	a5,-68(s0)
20001a4e:	fbc42703          	lw	a4,-68(s0)
20001a52:	80c18793          	addi	a5,gp,-2036 # 20002684 <IRQ_STA>
20001a56:	c398                	sw	a4,0(a5)
c:\Users\ql\Desktop\工作\1.28IPS电容触摸技术资料\新建文件夹\CH582M\StdPeriphDriver\inc/CH58x_sys.h:185
       write_csr(0x800, (IRQ_STA&(~0x08)));
20001a58:	80c18793          	addi	a5,gp,-2036 # 20002684 <IRQ_STA>
20001a5c:	439c                	lw	a5,0(a5)
20001a5e:	9bdd                	andi	a5,a5,-9
20001a60:	80079073          	csrw	0x800,a5
c:\Users\ql\Desktop\工作\1.28IPS电容触摸技术资料\新建文件夹\CH582M\StdPeriphDriver\inc/CH58x_sys.h:187
   SAFEOPERATE;
20001a64:	0001                	nop
20001a66:	0001                	nop
c:\Users\ql\Desktop\工作\1.28IPS电容触摸技术资料\新建文件夹\CH582M\StdPeriphDriver\inc/CH58x_sys.h:188
   R8_SAFE_ACCESS_SIG = SAFE_ACCESS_SIG1;
20001a68:	400017b7          	lui	a5,0x40001
20001a6c:	04078793          	addi	a5,a5,64 # 40001040 <_eusrstack+0x1fff9040>
20001a70:	05700713          	li	a4,87
20001a74:	00e78023          	sb	a4,0(a5)
c:\Users\ql\Desktop\工作\1.28IPS电容触摸技术资料\新建文件夹\CH582M\StdPeriphDriver\inc/CH58x_sys.h:189
   R8_SAFE_ACCESS_SIG = SAFE_ACCESS_SIG2;
20001a78:	400017b7          	lui	a5,0x40001
20001a7c:	04078793          	addi	a5,a5,64 # 40001040 <_eusrstack+0x1fff9040>
20001a80:	fa800713          	li	a4,-88
20001a84:	00e78023          	sb	a4,0(a5)
c:\Users\ql\Desktop\工作\1.28IPS电容触摸技术资料\新建文件夹\CH582M\StdPeriphDriver\inc/CH58x_sys.h:190
   SAFEOPERATE;
20001a88:	0001                	nop
20001a8a:	0001                	nop
SetSysClock():
c:\Users\ql\Desktop\工作\1.28IPS电容触摸技术资料\新建文件夹\CH582M\obj/../StdPeriphDriver/CH58x_sys.c:47
            }
        }

        sys_safe_access_enable();
        R16_CLK_SYS_CFG = (0 << 6) | (sc & 0x1f);
20001a8c:	f6c42783          	lw	a5,-148(s0)
20001a90:	01079713          	slli	a4,a5,0x10
20001a94:	8341                	srli	a4,a4,0x10
20001a96:	400017b7          	lui	a5,0x40001
20001a9a:	07a1                	addi	a5,a5,8
20001a9c:	8b7d                	andi	a4,a4,31
20001a9e:	0742                	slli	a4,a4,0x10
20001aa0:	8341                	srli	a4,a4,0x10
20001aa2:	00e79023          	sh	a4,0(a5) # 40001000 <_eusrstack+0x1fff9000>
c:\Users\ql\Desktop\工作\1.28IPS电容触摸技术资料\新建文件夹\CH582M\obj/../StdPeriphDriver/CH58x_sys.c:48
        __nop();
20001aa6:	0001                	nop
c:\Users\ql\Desktop\工作\1.28IPS电容触摸技术资料\新建文件夹\CH582M\obj/../StdPeriphDriver/CH58x_sys.c:49
        __nop();
20001aa8:	0001                	nop
c:\Users\ql\Desktop\工作\1.28IPS电容触摸技术资料\新建文件夹\CH582M\obj/../StdPeriphDriver/CH58x_sys.c:50
        __nop();
20001aaa:	0001                	nop
c:\Users\ql\Desktop\工作\1.28IPS电容触摸技术资料\新建文件夹\CH582M\obj/../StdPeriphDriver/CH58x_sys.c:51
        __nop();
20001aac:	0001                	nop
sys_safe_access_disable():
c:\Users\ql\Desktop\工作\1.28IPS电容触摸技术资料\新建文件夹\CH582M\StdPeriphDriver\inc/CH58x_sys.h:195
   R8_SAFE_ACCESS_SIG = 0;
20001aae:	400017b7          	lui	a5,0x40001
20001ab2:	04078793          	addi	a5,a5,64 # 40001040 <_eusrstack+0x1fff9040>
20001ab6:	00078023          	sb	zero,0(a5)
c:\Users\ql\Desktop\工作\1.28IPS电容触摸技术资料\新建文件夹\CH582M\StdPeriphDriver\inc/CH58x_sys.h:196
   write_csr(0x800, read_csr(0x800)|(IRQ_STA&0x08));
20001aba:	800027f3          	csrr	a5,0x800
20001abe:	fcf42223          	sw	a5,-60(s0)
20001ac2:	fc442703          	lw	a4,-60(s0)
20001ac6:	80c18793          	addi	a5,gp,-2036 # 20002684 <IRQ_STA>
20001aca:	439c                	lw	a5,0(a5)
20001acc:	8ba1                	andi	a5,a5,8
20001ace:	8fd9                	or	a5,a5,a4
20001ad0:	80079073          	csrw	0x800,a5
c:\Users\ql\Desktop\工作\1.28IPS电容触摸技术资料\新建文件夹\CH582M\StdPeriphDriver\inc/CH58x_sys.h:197
   IRQ_STA = 0;
20001ad4:	80c18793          	addi	a5,gp,-2036 # 20002684 <IRQ_STA>
20001ad8:	0007a023          	sw	zero,0(a5)
c:\Users\ql\Desktop\工作\1.28IPS电容触摸技术资料\新建文件夹\CH582M\StdPeriphDriver\inc/CH58x_sys.h:198
   SAFEOPERATE;
20001adc:	0001                	nop
20001ade:	0001                	nop
sys_safe_access_enable():
c:\Users\ql\Desktop\工作\1.28IPS电容触摸技术资料\新建文件夹\CH582M\StdPeriphDriver\inc/CH58x_sys.h:182
   if(read_csr(0x800)&0x08)
20001ae0:	800027f3          	csrr	a5,0x800
20001ae4:	fcf42623          	sw	a5,-52(s0)
20001ae8:	fcc42783          	lw	a5,-52(s0)
20001aec:	8ba1                	andi	a5,a5,8
20001aee:	c385                	beqz	a5,20001b0e <SetSysClock+0x274>
c:\Users\ql\Desktop\工作\1.28IPS电容触摸技术资料\新建文件夹\CH582M\StdPeriphDriver\inc/CH58x_sys.h:184
       IRQ_STA = read_csr(0x800);
20001af0:	800027f3          	csrr	a5,0x800
20001af4:	fcf42423          	sw	a5,-56(s0)
20001af8:	fc842703          	lw	a4,-56(s0)
20001afc:	80c18793          	addi	a5,gp,-2036 # 20002684 <IRQ_STA>
20001b00:	c398                	sw	a4,0(a5)
c:\Users\ql\Desktop\工作\1.28IPS电容触摸技术资料\新建文件夹\CH582M\StdPeriphDriver\inc/CH58x_sys.h:185
       write_csr(0x800, (IRQ_STA&(~0x08)));
20001b02:	80c18793          	addi	a5,gp,-2036 # 20002684 <IRQ_STA>
20001b06:	439c                	lw	a5,0(a5)
20001b08:	9bdd                	andi	a5,a5,-9
20001b0a:	80079073          	csrw	0x800,a5
c:\Users\ql\Desktop\工作\1.28IPS电容触摸技术资料\新建文件夹\CH582M\StdPeriphDriver\inc/CH58x_sys.h:187
   SAFEOPERATE;
20001b0e:	0001                	nop
20001b10:	0001                	nop
c:\Users\ql\Desktop\工作\1.28IPS电容触摸技术资料\新建文件夹\CH582M\StdPeriphDriver\inc/CH58x_sys.h:188
   R8_SAFE_ACCESS_SIG = SAFE_ACCESS_SIG1;
20001b12:	400017b7          	lui	a5,0x40001
20001b16:	04078793          	addi	a5,a5,64 # 40001040 <_eusrstack+0x1fff9040>
20001b1a:	05700713          	li	a4,87
20001b1e:	00e78023          	sb	a4,0(a5)
c:\Users\ql\Desktop\工作\1.28IPS电容触摸技术资料\新建文件夹\CH582M\StdPeriphDriver\inc/CH58x_sys.h:189
   R8_SAFE_ACCESS_SIG = SAFE_ACCESS_SIG2;
20001b22:	400017b7          	lui	a5,0x40001
20001b26:	04078793          	addi	a5,a5,64 # 40001040 <_eusrstack+0x1fff9040>
20001b2a:	fa800713          	li	a4,-88
20001b2e:	00e78023          	sb	a4,0(a5)
c:\Users\ql\Desktop\工作\1.28IPS电容触摸技术资料\新建文件夹\CH582M\StdPeriphDriver\inc/CH58x_sys.h:190
   SAFEOPERATE;
20001b32:	0001                	nop
20001b34:	0001                	nop
SetSysClock():
c:\Users\ql\Desktop\工作\1.28IPS电容触摸技术资料\新建文件夹\CH582M\obj/../StdPeriphDriver/CH58x_sys.c:54
        sys_safe_access_disable();
        sys_safe_access_enable();
        SAFEOPERATE;
20001b36:	0001                	nop
20001b38:	0001                	nop
c:\Users\ql\Desktop\工作\1.28IPS电容触摸技术资料\新建文件夹\CH582M\obj/../StdPeriphDriver/CH58x_sys.c:55
        R8_FLASH_CFG = 0X51;
20001b3a:	400027b7          	lui	a5,0x40002
20001b3e:	80778793          	addi	a5,a5,-2041 # 40001807 <_eusrstack+0x1fff9807>
20001b42:	05100713          	li	a4,81
20001b46:	00e78023          	sb	a4,0(a5)
sys_safe_access_disable():
c:\Users\ql\Desktop\工作\1.28IPS电容触摸技术资料\新建文件夹\CH582M\StdPeriphDriver\inc/CH58x_sys.h:195
   R8_SAFE_ACCESS_SIG = 0;
20001b4a:	400017b7          	lui	a5,0x40001
20001b4e:	04078793          	addi	a5,a5,64 # 40001040 <_eusrstack+0x1fff9040>
20001b52:	00078023          	sb	zero,0(a5)
c:\Users\ql\Desktop\工作\1.28IPS电容触摸技术资料\新建文件夹\CH582M\StdPeriphDriver\inc/CH58x_sys.h:196
   write_csr(0x800, read_csr(0x800)|(IRQ_STA&0x08));
20001b56:	800027f3          	csrr	a5,0x800
20001b5a:	fcf42823          	sw	a5,-48(s0)
20001b5e:	fd042703          	lw	a4,-48(s0)
20001b62:	80c18793          	addi	a5,gp,-2036 # 20002684 <IRQ_STA>
20001b66:	439c                	lw	a5,0(a5)
20001b68:	8ba1                	andi	a5,a5,8
20001b6a:	8fd9                	or	a5,a5,a4
20001b6c:	80079073          	csrw	0x800,a5
c:\Users\ql\Desktop\工作\1.28IPS电容触摸技术资料\新建文件夹\CH582M\StdPeriphDriver\inc/CH58x_sys.h:197
   IRQ_STA = 0;
20001b70:	80c18793          	addi	a5,gp,-2036 # 20002684 <IRQ_STA>
20001b74:	0007a023          	sw	zero,0(a5)
c:\Users\ql\Desktop\工作\1.28IPS电容触摸技术资料\新建文件夹\CH582M\StdPeriphDriver\inc/CH58x_sys.h:198
   SAFEOPERATE;
20001b78:	0001                	nop
20001b7a:	0001                	nop
SetSysClock():
c:\Users\ql\Desktop\工作\1.28IPS电容触摸技术资料\新建文件夹\CH582M\StdPeriphDriver\inc/CH58x_sys.h:198
20001b7c:	a649                	j	20001efe <SetSysClock+0x664>
c:\Users\ql\Desktop\工作\1.28IPS电容触摸技术资料\新建文件夹\CH582M\obj/../StdPeriphDriver/CH58x_sys.c:59
        sys_safe_access_disable();
    }

    else if(sc & 0x40)
20001b7e:	f6c42783          	lw	a5,-148(s0)
20001b82:	0407f793          	andi	a5,a5,64
20001b86:	2c078763          	beqz	a5,20001e54 <SetSysClock+0x5ba>
c:\Users\ql\Desktop\工作\1.28IPS电容触摸技术资料\新建文件夹\CH582M\obj/../StdPeriphDriver/CH58x_sys.c:61
    { // PLL div
        if(!(R8_HFCK_PWR_CTRL & RB_CLK_PLL_PON))
20001b8a:	400017b7          	lui	a5,0x40001
20001b8e:	07a9                	addi	a5,a5,10
20001b90:	0007c783          	lbu	a5,0(a5) # 40001000 <_eusrstack+0x1fff9000>
20001b94:	0ff7f793          	andi	a5,a5,255
20001b98:	8bc1                	andi	a5,a5,16
20001b9a:	e7e9                	bnez	a5,20001c64 <SetSysClock+0x3ca>
sys_safe_access_enable():
c:\Users\ql\Desktop\工作\1.28IPS电容触摸技术资料\新建文件夹\CH582M\StdPeriphDriver\inc/CH58x_sys.h:182
   if(read_csr(0x800)&0x08)
20001b9c:	800027f3          	csrr	a5,0x800
20001ba0:	faf42a23          	sw	a5,-76(s0)
20001ba4:	fb442783          	lw	a5,-76(s0)
20001ba8:	8ba1                	andi	a5,a5,8
20001baa:	c385                	beqz	a5,20001bca <SetSysClock+0x330>
c:\Users\ql\Desktop\工作\1.28IPS电容触摸技术资料\新建文件夹\CH582M\StdPeriphDriver\inc/CH58x_sys.h:184
       IRQ_STA = read_csr(0x800);
20001bac:	800027f3          	csrr	a5,0x800
20001bb0:	faf42823          	sw	a5,-80(s0)
20001bb4:	fb042703          	lw	a4,-80(s0)
20001bb8:	80c18793          	addi	a5,gp,-2036 # 20002684 <IRQ_STA>
20001bbc:	c398                	sw	a4,0(a5)
c:\Users\ql\Desktop\工作\1.28IPS电容触摸技术资料\新建文件夹\CH582M\StdPeriphDriver\inc/CH58x_sys.h:185
       write_csr(0x800, (IRQ_STA&(~0x08)));
20001bbe:	80c18793          	addi	a5,gp,-2036 # 20002684 <IRQ_STA>
20001bc2:	439c                	lw	a5,0(a5)
20001bc4:	9bdd                	andi	a5,a5,-9
20001bc6:	80079073          	csrw	0x800,a5
c:\Users\ql\Desktop\工作\1.28IPS电容触摸技术资料\新建文件夹\CH582M\StdPeriphDriver\inc/CH58x_sys.h:187
   SAFEOPERATE;
20001bca:	0001                	nop
20001bcc:	0001                	nop
c:\Users\ql\Desktop\工作\1.28IPS电容触摸技术资料\新建文件夹\CH582M\StdPeriphDriver\inc/CH58x_sys.h:188
   R8_SAFE_ACCESS_SIG = SAFE_ACCESS_SIG1;
20001bce:	400017b7          	lui	a5,0x40001
20001bd2:	04078793          	addi	a5,a5,64 # 40001040 <_eusrstack+0x1fff9040>
20001bd6:	05700713          	li	a4,87
20001bda:	00e78023          	sb	a4,0(a5)
c:\Users\ql\Desktop\工作\1.28IPS电容触摸技术资料\新建文件夹\CH582M\StdPeriphDriver\inc/CH58x_sys.h:189
   R8_SAFE_ACCESS_SIG = SAFE_ACCESS_SIG2;
20001bde:	400017b7          	lui	a5,0x40001
20001be2:	04078793          	addi	a5,a5,64 # 40001040 <_eusrstack+0x1fff9040>
20001be6:	fa800713          	li	a4,-88
20001bea:	00e78023          	sb	a4,0(a5)
c:\Users\ql\Desktop\工作\1.28IPS电容触摸技术资料\新建文件夹\CH582M\StdPeriphDriver\inc/CH58x_sys.h:190
   SAFEOPERATE;
20001bee:	0001                	nop
20001bf0:	0001                	nop
SetSysClock():
c:\Users\ql\Desktop\工作\1.28IPS电容触摸技术资料\新建文件夹\CH582M\obj/../StdPeriphDriver/CH58x_sys.c:64
        {
            sys_safe_access_enable();
            R8_HFCK_PWR_CTRL |= RB_CLK_PLL_PON; // PLL power on
20001bf2:	400017b7          	lui	a5,0x40001
20001bf6:	07a9                	addi	a5,a5,10
20001bf8:	0007c783          	lbu	a5,0(a5) # 40001000 <_eusrstack+0x1fff9000>
20001bfc:	0ff7f713          	andi	a4,a5,255
20001c00:	400017b7          	lui	a5,0x40001
20001c04:	07a9                	addi	a5,a5,10
20001c06:	01076713          	ori	a4,a4,16
20001c0a:	0ff77713          	andi	a4,a4,255
20001c0e:	00e78023          	sb	a4,0(a5) # 40001000 <_eusrstack+0x1fff9000>
sys_safe_access_disable():
c:\Users\ql\Desktop\工作\1.28IPS电容触摸技术资料\新建文件夹\CH582M\StdPeriphDriver\inc/CH58x_sys.h:195
   R8_SAFE_ACCESS_SIG = 0;
20001c12:	400017b7          	lui	a5,0x40001
20001c16:	04078793          	addi	a5,a5,64 # 40001040 <_eusrstack+0x1fff9040>
20001c1a:	00078023          	sb	zero,0(a5)
c:\Users\ql\Desktop\工作\1.28IPS电容触摸技术资料\新建文件夹\CH582M\StdPeriphDriver\inc/CH58x_sys.h:196
   write_csr(0x800, read_csr(0x800)|(IRQ_STA&0x08));
20001c1e:	800027f3          	csrr	a5,0x800
20001c22:	faf42c23          	sw	a5,-72(s0)
20001c26:	fb842703          	lw	a4,-72(s0)
20001c2a:	80c18793          	addi	a5,gp,-2036 # 20002684 <IRQ_STA>
20001c2e:	439c                	lw	a5,0(a5)
20001c30:	8ba1                	andi	a5,a5,8
20001c32:	8fd9                	or	a5,a5,a4
20001c34:	80079073          	csrw	0x800,a5
c:\Users\ql\Desktop\工作\1.28IPS电容触摸技术资料\新建文件夹\CH582M\StdPeriphDriver\inc/CH58x_sys.h:197
   IRQ_STA = 0;
20001c38:	80c18793          	addi	a5,gp,-2036 # 20002684 <IRQ_STA>
20001c3c:	0007a023          	sw	zero,0(a5)
c:\Users\ql\Desktop\工作\1.28IPS电容触摸技术资料\新建文件夹\CH582M\StdPeriphDriver\inc/CH58x_sys.h:198
   SAFEOPERATE;
20001c40:	0001                	nop
20001c42:	0001                	nop
SetSysClock():
c:\Users\ql\Desktop\工作\1.28IPS电容触摸技术资料\新建文件夹\CH582M\obj/../StdPeriphDriver/CH58x_sys.c:66
            sys_safe_access_disable();
            for(i = 0; i < 2000; i++)
20001c44:	fe042623          	sw	zero,-20(s0)
20001c48:	a801                	j	20001c58 <SetSysClock+0x3be>
c:\Users\ql\Desktop\工作\1.28IPS电容触摸技术资料\新建文件夹\CH582M\obj/../StdPeriphDriver/CH58x_sys.c:68 (discriminator 3)
            {
                __nop();
20001c4a:	0001                	nop
c:\Users\ql\Desktop\工作\1.28IPS电容触摸技术资料\新建文件夹\CH582M\obj/../StdPeriphDriver/CH58x_sys.c:69 (discriminator 3)
                __nop();
20001c4c:	0001                	nop
c:\Users\ql\Desktop\工作\1.28IPS电容触摸技术资料\新建文件夹\CH582M\obj/../StdPeriphDriver/CH58x_sys.c:66 (discriminator 3)
            for(i = 0; i < 2000; i++)
20001c4e:	fec42783          	lw	a5,-20(s0)
20001c52:	0785                	addi	a5,a5,1
20001c54:	fef42623          	sw	a5,-20(s0)
c:\Users\ql\Desktop\工作\1.28IPS电容触摸技术资料\新建文件夹\CH582M\obj/../StdPeriphDriver/CH58x_sys.c:66 (discriminator 1)
20001c58:	fec42703          	lw	a4,-20(s0)
20001c5c:	7cf00793          	li	a5,1999
20001c60:	fee7f5e3          	bgeu	a5,a4,20001c4a <SetSysClock+0x3b0>
sys_safe_access_enable():
c:\Users\ql\Desktop\工作\1.28IPS电容触摸技术资料\新建文件夹\CH582M\StdPeriphDriver\inc/CH58x_sys.h:182
   if(read_csr(0x800)&0x08)
20001c64:	800027f3          	csrr	a5,0x800
20001c68:	faf42423          	sw	a5,-88(s0)
20001c6c:	fa842783          	lw	a5,-88(s0)
20001c70:	8ba1                	andi	a5,a5,8
20001c72:	c385                	beqz	a5,20001c92 <SetSysClock+0x3f8>
c:\Users\ql\Desktop\工作\1.28IPS电容触摸技术资料\新建文件夹\CH582M\StdPeriphDriver\inc/CH58x_sys.h:184
       IRQ_STA = read_csr(0x800);
20001c74:	800027f3          	csrr	a5,0x800
20001c78:	faf42223          	sw	a5,-92(s0)
20001c7c:	fa442703          	lw	a4,-92(s0)
20001c80:	80c18793          	addi	a5,gp,-2036 # 20002684 <IRQ_STA>
20001c84:	c398                	sw	a4,0(a5)
c:\Users\ql\Desktop\工作\1.28IPS电容触摸技术资料\新建文件夹\CH582M\StdPeriphDriver\inc/CH58x_sys.h:185
       write_csr(0x800, (IRQ_STA&(~0x08)));
20001c86:	80c18793          	addi	a5,gp,-2036 # 20002684 <IRQ_STA>
20001c8a:	439c                	lw	a5,0(a5)
20001c8c:	9bdd                	andi	a5,a5,-9
20001c8e:	80079073          	csrw	0x800,a5
c:\Users\ql\Desktop\工作\1.28IPS电容触摸技术资料\新建文件夹\CH582M\StdPeriphDriver\inc/CH58x_sys.h:187
   SAFEOPERATE;
20001c92:	0001                	nop
20001c94:	0001                	nop
c:\Users\ql\Desktop\工作\1.28IPS电容触摸技术资料\新建文件夹\CH582M\StdPeriphDriver\inc/CH58x_sys.h:188
   R8_SAFE_ACCESS_SIG = SAFE_ACCESS_SIG1;
20001c96:	400017b7          	lui	a5,0x40001
20001c9a:	04078793          	addi	a5,a5,64 # 40001040 <_eusrstack+0x1fff9040>
20001c9e:	05700713          	li	a4,87
20001ca2:	00e78023          	sb	a4,0(a5)
c:\Users\ql\Desktop\工作\1.28IPS电容触摸技术资料\新建文件夹\CH582M\StdPeriphDriver\inc/CH58x_sys.h:189
   R8_SAFE_ACCESS_SIG = SAFE_ACCESS_SIG2;
20001ca6:	400017b7          	lui	a5,0x40001
20001caa:	04078793          	addi	a5,a5,64 # 40001040 <_eusrstack+0x1fff9040>
20001cae:	fa800713          	li	a4,-88
20001cb2:	00e78023          	sb	a4,0(a5)
c:\Users\ql\Desktop\工作\1.28IPS电容触摸技术资料\新建文件夹\CH582M\StdPeriphDriver\inc/CH58x_sys.h:190
   SAFEOPERATE;
20001cb6:	0001                	nop
20001cb8:	0001                	nop
SetSysClock():
c:\Users\ql\Desktop\工作\1.28IPS电容触摸技术资料\新建文件夹\CH582M\obj/../StdPeriphDriver/CH58x_sys.c:73
            }
        }
        sys_safe_access_enable();
        R16_CLK_SYS_CFG = (1 << 6) | (sc & 0x1f);
20001cba:	f6c42783          	lw	a5,-148(s0)
20001cbe:	07c2                	slli	a5,a5,0x10
20001cc0:	83c1                	srli	a5,a5,0x10
20001cc2:	8bfd                	andi	a5,a5,31
20001cc4:	01079713          	slli	a4,a5,0x10
20001cc8:	8341                	srli	a4,a4,0x10
20001cca:	400017b7          	lui	a5,0x40001
20001cce:	07a1                	addi	a5,a5,8
20001cd0:	04076713          	ori	a4,a4,64
20001cd4:	0742                	slli	a4,a4,0x10
20001cd6:	8341                	srli	a4,a4,0x10
20001cd8:	00e79023          	sh	a4,0(a5) # 40001000 <_eusrstack+0x1fff9000>
c:\Users\ql\Desktop\工作\1.28IPS电容触摸技术资料\新建文件夹\CH582M\obj/../StdPeriphDriver/CH58x_sys.c:74
        __nop();
20001cdc:	0001                	nop
c:\Users\ql\Desktop\工作\1.28IPS电容触摸技术资料\新建文件夹\CH582M\obj/../StdPeriphDriver/CH58x_sys.c:75
        __nop();
20001cde:	0001                	nop
c:\Users\ql\Desktop\工作\1.28IPS电容触摸技术资料\新建文件夹\CH582M\obj/../StdPeriphDriver/CH58x_sys.c:76
        __nop();
20001ce0:	0001                	nop
c:\Users\ql\Desktop\工作\1.28IPS电容触摸技术资料\新建文件夹\CH582M\obj/../StdPeriphDriver/CH58x_sys.c:77
        __nop();
20001ce2:	0001                	nop
sys_safe_access_disable():
c:\Users\ql\Desktop\工作\1.28IPS电容触摸技术资料\新建文件夹\CH582M\StdPeriphDriver\inc/CH58x_sys.h:195
   R8_SAFE_ACCESS_SIG = 0;
20001ce4:	400017b7          	lui	a5,0x40001
20001ce8:	04078793          	addi	a5,a5,64 # 40001040 <_eusrstack+0x1fff9040>
20001cec:	00078023          	sb	zero,0(a5)
c:\Users\ql\Desktop\工作\1.28IPS电容触摸技术资料\新建文件夹\CH582M\StdPeriphDriver\inc/CH58x_sys.h:196
   write_csr(0x800, read_csr(0x800)|(IRQ_STA&0x08));
20001cf0:	800027f3          	csrr	a5,0x800
20001cf4:	faf42623          	sw	a5,-84(s0)
20001cf8:	fac42703          	lw	a4,-84(s0)
20001cfc:	80c18793          	addi	a5,gp,-2036 # 20002684 <IRQ_STA>
20001d00:	439c                	lw	a5,0(a5)
20001d02:	8ba1                	andi	a5,a5,8
20001d04:	8fd9                	or	a5,a5,a4
20001d06:	80079073          	csrw	0x800,a5
c:\Users\ql\Desktop\工作\1.28IPS电容触摸技术资料\新建文件夹\CH582M\StdPeriphDriver\inc/CH58x_sys.h:197
   IRQ_STA = 0;
20001d0a:	80c18793          	addi	a5,gp,-2036 # 20002684 <IRQ_STA>
20001d0e:	0007a023          	sw	zero,0(a5)
c:\Users\ql\Desktop\工作\1.28IPS电容触摸技术资料\新建文件夹\CH582M\StdPeriphDriver\inc/CH58x_sys.h:198
   SAFEOPERATE;
20001d12:	0001                	nop
20001d14:	0001                	nop
SetSysClock():
c:\Users\ql\Desktop\工作\1.28IPS电容触摸技术资料\新建文件夹\CH582M\obj/../StdPeriphDriver/CH58x_sys.c:79
        sys_safe_access_disable();
        if(sc == CLK_SOURCE_PLL_80MHz)
20001d16:	f6c42703          	lw	a4,-148(s0)
20001d1a:	04600793          	li	a5,70
20001d1e:	08f71e63          	bne	a4,a5,20001dba <SetSysClock+0x520>
sys_safe_access_enable():
c:\Users\ql\Desktop\工作\1.28IPS电容触摸技术资料\新建文件夹\CH582M\StdPeriphDriver\inc/CH58x_sys.h:182
   if(read_csr(0x800)&0x08)
20001d22:	800027f3          	csrr	a5,0x800
20001d26:	f8f42e23          	sw	a5,-100(s0)
20001d2a:	f9c42783          	lw	a5,-100(s0)
20001d2e:	8ba1                	andi	a5,a5,8
20001d30:	c385                	beqz	a5,20001d50 <SetSysClock+0x4b6>
c:\Users\ql\Desktop\工作\1.28IPS电容触摸技术资料\新建文件夹\CH582M\StdPeriphDriver\inc/CH58x_sys.h:184
       IRQ_STA = read_csr(0x800);
20001d32:	800027f3          	csrr	a5,0x800
20001d36:	f8f42c23          	sw	a5,-104(s0)
20001d3a:	f9842703          	lw	a4,-104(s0)
20001d3e:	80c18793          	addi	a5,gp,-2036 # 20002684 <IRQ_STA>
20001d42:	c398                	sw	a4,0(a5)
c:\Users\ql\Desktop\工作\1.28IPS电容触摸技术资料\新建文件夹\CH582M\StdPeriphDriver\inc/CH58x_sys.h:185
       write_csr(0x800, (IRQ_STA&(~0x08)));
20001d44:	80c18793          	addi	a5,gp,-2036 # 20002684 <IRQ_STA>
20001d48:	439c                	lw	a5,0(a5)
20001d4a:	9bdd                	andi	a5,a5,-9
20001d4c:	80079073          	csrw	0x800,a5
c:\Users\ql\Desktop\工作\1.28IPS电容触摸技术资料\新建文件夹\CH582M\StdPeriphDriver\inc/CH58x_sys.h:187
   SAFEOPERATE;
20001d50:	0001                	nop
20001d52:	0001                	nop
c:\Users\ql\Desktop\工作\1.28IPS电容触摸技术资料\新建文件夹\CH582M\StdPeriphDriver\inc/CH58x_sys.h:188
   R8_SAFE_ACCESS_SIG = SAFE_ACCESS_SIG1;
20001d54:	400017b7          	lui	a5,0x40001
20001d58:	04078793          	addi	a5,a5,64 # 40001040 <_eusrstack+0x1fff9040>
20001d5c:	05700713          	li	a4,87
20001d60:	00e78023          	sb	a4,0(a5)
c:\Users\ql\Desktop\工作\1.28IPS电容触摸技术资料\新建文件夹\CH582M\StdPeriphDriver\inc/CH58x_sys.h:189
   R8_SAFE_ACCESS_SIG = SAFE_ACCESS_SIG2;
20001d64:	400017b7          	lui	a5,0x40001
20001d68:	04078793          	addi	a5,a5,64 # 40001040 <_eusrstack+0x1fff9040>
20001d6c:	fa800713          	li	a4,-88
20001d70:	00e78023          	sb	a4,0(a5)
c:\Users\ql\Desktop\工作\1.28IPS电容触摸技术资料\新建文件夹\CH582M\StdPeriphDriver\inc/CH58x_sys.h:190
   SAFEOPERATE;
20001d74:	0001                	nop
20001d76:	0001                	nop
SetSysClock():
c:\Users\ql\Desktop\工作\1.28IPS电容触摸技术资料\新建文件夹\CH582M\obj/../StdPeriphDriver/CH58x_sys.c:82
        {
            sys_safe_access_enable();
            R8_FLASH_CFG = 0X02;
20001d78:	400027b7          	lui	a5,0x40002
20001d7c:	80778793          	addi	a5,a5,-2041 # 40001807 <_eusrstack+0x1fff9807>
20001d80:	4709                	li	a4,2
20001d82:	00e78023          	sb	a4,0(a5)
sys_safe_access_disable():
c:\Users\ql\Desktop\工作\1.28IPS电容触摸技术资料\新建文件夹\CH582M\StdPeriphDriver\inc/CH58x_sys.h:195
   R8_SAFE_ACCESS_SIG = 0;
20001d86:	400017b7          	lui	a5,0x40001
20001d8a:	04078793          	addi	a5,a5,64 # 40001040 <_eusrstack+0x1fff9040>
20001d8e:	00078023          	sb	zero,0(a5)
c:\Users\ql\Desktop\工作\1.28IPS电容触摸技术资料\新建文件夹\CH582M\StdPeriphDriver\inc/CH58x_sys.h:196
   write_csr(0x800, read_csr(0x800)|(IRQ_STA&0x08));
20001d92:	800027f3          	csrr	a5,0x800
20001d96:	faf42023          	sw	a5,-96(s0)
20001d9a:	fa042703          	lw	a4,-96(s0)
20001d9e:	80c18793          	addi	a5,gp,-2036 # 20002684 <IRQ_STA>
20001da2:	439c                	lw	a5,0(a5)
20001da4:	8ba1                	andi	a5,a5,8
20001da6:	8fd9                	or	a5,a5,a4
20001da8:	80079073          	csrw	0x800,a5
c:\Users\ql\Desktop\工作\1.28IPS电容触摸技术资料\新建文件夹\CH582M\StdPeriphDriver\inc/CH58x_sys.h:197
   IRQ_STA = 0;
20001dac:	80c18793          	addi	a5,gp,-2036 # 20002684 <IRQ_STA>
20001db0:	0007a023          	sw	zero,0(a5)
c:\Users\ql\Desktop\工作\1.28IPS电容触摸技术资料\新建文件夹\CH582M\StdPeriphDriver\inc/CH58x_sys.h:198
   SAFEOPERATE;
20001db4:	0001                	nop
20001db6:	0001                	nop
SetSysClock():
c:\Users\ql\Desktop\工作\1.28IPS电容触摸技术资料\新建文件夹\CH582M\StdPeriphDriver\inc/CH58x_sys.h:198
20001db8:	a299                	j	20001efe <SetSysClock+0x664>
sys_safe_access_enable():
c:\Users\ql\Desktop\工作\1.28IPS电容触摸技术资料\新建文件夹\CH582M\StdPeriphDriver\inc/CH58x_sys.h:182
   if(read_csr(0x800)&0x08)
20001dba:	800027f3          	csrr	a5,0x800
20001dbe:	f8f42823          	sw	a5,-112(s0)
20001dc2:	f9042783          	lw	a5,-112(s0)
20001dc6:	8ba1                	andi	a5,a5,8
20001dc8:	c385                	beqz	a5,20001de8 <SetSysClock+0x54e>
c:\Users\ql\Desktop\工作\1.28IPS电容触摸技术资料\新建文件夹\CH582M\StdPeriphDriver\inc/CH58x_sys.h:184
       IRQ_STA = read_csr(0x800);
20001dca:	800027f3          	csrr	a5,0x800
20001dce:	f8f42623          	sw	a5,-116(s0)
20001dd2:	f8c42703          	lw	a4,-116(s0)
20001dd6:	80c18793          	addi	a5,gp,-2036 # 20002684 <IRQ_STA>
20001dda:	c398                	sw	a4,0(a5)
c:\Users\ql\Desktop\工作\1.28IPS电容触摸技术资料\新建文件夹\CH582M\StdPeriphDriver\inc/CH58x_sys.h:185
       write_csr(0x800, (IRQ_STA&(~0x08)));
20001ddc:	80c18793          	addi	a5,gp,-2036 # 20002684 <IRQ_STA>
20001de0:	439c                	lw	a5,0(a5)
20001de2:	9bdd                	andi	a5,a5,-9
20001de4:	80079073          	csrw	0x800,a5
c:\Users\ql\Desktop\工作\1.28IPS电容触摸技术资料\新建文件夹\CH582M\StdPeriphDriver\inc/CH58x_sys.h:187
   SAFEOPERATE;
20001de8:	0001                	nop
20001dea:	0001                	nop
c:\Users\ql\Desktop\工作\1.28IPS电容触摸技术资料\新建文件夹\CH582M\StdPeriphDriver\inc/CH58x_sys.h:188
   R8_SAFE_ACCESS_SIG = SAFE_ACCESS_SIG1;
20001dec:	400017b7          	lui	a5,0x40001
20001df0:	04078793          	addi	a5,a5,64 # 40001040 <_eusrstack+0x1fff9040>
20001df4:	05700713          	li	a4,87
20001df8:	00e78023          	sb	a4,0(a5)
c:\Users\ql\Desktop\工作\1.28IPS电容触摸技术资料\新建文件夹\CH582M\StdPeriphDriver\inc/CH58x_sys.h:189
   R8_SAFE_ACCESS_SIG = SAFE_ACCESS_SIG2;
20001dfc:	400017b7          	lui	a5,0x40001
20001e00:	04078793          	addi	a5,a5,64 # 40001040 <_eusrstack+0x1fff9040>
20001e04:	fa800713          	li	a4,-88
20001e08:	00e78023          	sb	a4,0(a5)
c:\Users\ql\Desktop\工作\1.28IPS电容触摸技术资料\新建文件夹\CH582M\StdPeriphDriver\inc/CH58x_sys.h:190
   SAFEOPERATE;
20001e0c:	0001                	nop
20001e0e:	0001                	nop
SetSysClock():
c:\Users\ql\Desktop\工作\1.28IPS电容触摸技术资料\新建文件夹\CH582M\obj/../StdPeriphDriver/CH58x_sys.c:88
            sys_safe_access_disable();
        }
        else
        {
            sys_safe_access_enable();
            R8_FLASH_CFG = 0X52;
20001e10:	400027b7          	lui	a5,0x40002
20001e14:	80778793          	addi	a5,a5,-2041 # 40001807 <_eusrstack+0x1fff9807>
20001e18:	05200713          	li	a4,82
20001e1c:	00e78023          	sb	a4,0(a5)
sys_safe_access_disable():
c:\Users\ql\Desktop\工作\1.28IPS电容触摸技术资料\新建文件夹\CH582M\StdPeriphDriver\inc/CH58x_sys.h:195
   R8_SAFE_ACCESS_SIG = 0;
20001e20:	400017b7          	lui	a5,0x40001
20001e24:	04078793          	addi	a5,a5,64 # 40001040 <_eusrstack+0x1fff9040>
20001e28:	00078023          	sb	zero,0(a5)
c:\Users\ql\Desktop\工作\1.28IPS电容触摸技术资料\新建文件夹\CH582M\StdPeriphDriver\inc/CH58x_sys.h:196
   write_csr(0x800, read_csr(0x800)|(IRQ_STA&0x08));
20001e2c:	800027f3          	csrr	a5,0x800
20001e30:	f8f42a23          	sw	a5,-108(s0)
20001e34:	f9442703          	lw	a4,-108(s0)
20001e38:	80c18793          	addi	a5,gp,-2036 # 20002684 <IRQ_STA>
20001e3c:	439c                	lw	a5,0(a5)
20001e3e:	8ba1                	andi	a5,a5,8
20001e40:	8fd9                	or	a5,a5,a4
20001e42:	80079073          	csrw	0x800,a5
c:\Users\ql\Desktop\工作\1.28IPS电容触摸技术资料\新建文件夹\CH582M\StdPeriphDriver\inc/CH58x_sys.h:197
   IRQ_STA = 0;
20001e46:	80c18793          	addi	a5,gp,-2036 # 20002684 <IRQ_STA>
20001e4a:	0007a023          	sw	zero,0(a5)
c:\Users\ql\Desktop\工作\1.28IPS电容触摸技术资料\新建文件夹\CH582M\StdPeriphDriver\inc/CH58x_sys.h:198
   SAFEOPERATE;
20001e4e:	0001                	nop
20001e50:	0001                	nop
20001e52:	a075                	j	20001efe <SetSysClock+0x664>
sys_safe_access_enable():
c:\Users\ql\Desktop\工作\1.28IPS电容触摸技术资料\新建文件夹\CH582M\StdPeriphDriver\inc/CH58x_sys.h:182
   if(read_csr(0x800)&0x08)
20001e54:	800027f3          	csrr	a5,0x800
20001e58:	f8f42223          	sw	a5,-124(s0)
20001e5c:	f8442783          	lw	a5,-124(s0)
20001e60:	8ba1                	andi	a5,a5,8
20001e62:	c385                	beqz	a5,20001e82 <SetSysClock+0x5e8>
c:\Users\ql\Desktop\工作\1.28IPS电容触摸技术资料\新建文件夹\CH582M\StdPeriphDriver\inc/CH58x_sys.h:184
       IRQ_STA = read_csr(0x800);
20001e64:	800027f3          	csrr	a5,0x800
20001e68:	f8f42023          	sw	a5,-128(s0)
20001e6c:	f8042703          	lw	a4,-128(s0)
20001e70:	80c18793          	addi	a5,gp,-2036 # 20002684 <IRQ_STA>
20001e74:	c398                	sw	a4,0(a5)
c:\Users\ql\Desktop\工作\1.28IPS电容触摸技术资料\新建文件夹\CH582M\StdPeriphDriver\inc/CH58x_sys.h:185
       write_csr(0x800, (IRQ_STA&(~0x08)));
20001e76:	80c18793          	addi	a5,gp,-2036 # 20002684 <IRQ_STA>
20001e7a:	439c                	lw	a5,0(a5)
20001e7c:	9bdd                	andi	a5,a5,-9
20001e7e:	80079073          	csrw	0x800,a5
c:\Users\ql\Desktop\工作\1.28IPS电容触摸技术资料\新建文件夹\CH582M\StdPeriphDriver\inc/CH58x_sys.h:187
   SAFEOPERATE;
20001e82:	0001                	nop
20001e84:	0001                	nop
c:\Users\ql\Desktop\工作\1.28IPS电容触摸技术资料\新建文件夹\CH582M\StdPeriphDriver\inc/CH58x_sys.h:188
   R8_SAFE_ACCESS_SIG = SAFE_ACCESS_SIG1;
20001e86:	400017b7          	lui	a5,0x40001
20001e8a:	04078793          	addi	a5,a5,64 # 40001040 <_eusrstack+0x1fff9040>
20001e8e:	05700713          	li	a4,87
20001e92:	00e78023          	sb	a4,0(a5)
c:\Users\ql\Desktop\工作\1.28IPS电容触摸技术资料\新建文件夹\CH582M\StdPeriphDriver\inc/CH58x_sys.h:189
   R8_SAFE_ACCESS_SIG = SAFE_ACCESS_SIG2;
20001e96:	400017b7          	lui	a5,0x40001
20001e9a:	04078793          	addi	a5,a5,64 # 40001040 <_eusrstack+0x1fff9040>
20001e9e:	fa800713          	li	a4,-88
20001ea2:	00e78023          	sb	a4,0(a5)
c:\Users\ql\Desktop\工作\1.28IPS电容触摸技术资料\新建文件夹\CH582M\StdPeriphDriver\inc/CH58x_sys.h:190
   SAFEOPERATE;
20001ea6:	0001                	nop
20001ea8:	0001                	nop
SetSysClock():
c:\Users\ql\Desktop\工作\1.28IPS电容触摸技术资料\新建文件夹\CH582M\obj/../StdPeriphDriver/CH58x_sys.c:95
        }
    }
    else
    {
        sys_safe_access_enable();
        R16_CLK_SYS_CFG |= RB_CLK_SYS_MOD;
20001eaa:	400017b7          	lui	a5,0x40001
20001eae:	07a1                	addi	a5,a5,8
20001eb0:	0007d783          	lhu	a5,0(a5) # 40001000 <_eusrstack+0x1fff9000>
20001eb4:	01079713          	slli	a4,a5,0x10
20001eb8:	8341                	srli	a4,a4,0x10
20001eba:	400017b7          	lui	a5,0x40001
20001ebe:	07a1                	addi	a5,a5,8
20001ec0:	0c076713          	ori	a4,a4,192
20001ec4:	0742                	slli	a4,a4,0x10
20001ec6:	8341                	srli	a4,a4,0x10
20001ec8:	00e79023          	sh	a4,0(a5) # 40001000 <_eusrstack+0x1fff9000>
sys_safe_access_disable():
c:\Users\ql\Desktop\工作\1.28IPS电容触摸技术资料\新建文件夹\CH582M\StdPeriphDriver\inc/CH58x_sys.h:195
   R8_SAFE_ACCESS_SIG = 0;
20001ecc:	400017b7          	lui	a5,0x40001
20001ed0:	04078793          	addi	a5,a5,64 # 40001040 <_eusrstack+0x1fff9040>
20001ed4:	00078023          	sb	zero,0(a5)
c:\Users\ql\Desktop\工作\1.28IPS电容触摸技术资料\新建文件夹\CH582M\StdPeriphDriver\inc/CH58x_sys.h:196
   write_csr(0x800, read_csr(0x800)|(IRQ_STA&0x08));
20001ed8:	800027f3          	csrr	a5,0x800
20001edc:	f8f42423          	sw	a5,-120(s0)
20001ee0:	f8842703          	lw	a4,-120(s0)
20001ee4:	80c18793          	addi	a5,gp,-2036 # 20002684 <IRQ_STA>
20001ee8:	439c                	lw	a5,0(a5)
20001eea:	8ba1                	andi	a5,a5,8
20001eec:	8fd9                	or	a5,a5,a4
20001eee:	80079073          	csrw	0x800,a5
c:\Users\ql\Desktop\工作\1.28IPS电容触摸技术资料\新建文件夹\CH582M\StdPeriphDriver\inc/CH58x_sys.h:197
   IRQ_STA = 0;
20001ef2:	80c18793          	addi	a5,gp,-2036 # 20002684 <IRQ_STA>
20001ef6:	0007a023          	sw	zero,0(a5)
c:\Users\ql\Desktop\工作\1.28IPS电容触摸技术资料\新建文件夹\CH582M\StdPeriphDriver\inc/CH58x_sys.h:198
   SAFEOPERATE;
20001efa:	0001                	nop
20001efc:	0001                	nop
sys_safe_access_enable():
c:\Users\ql\Desktop\工作\1.28IPS电容触摸技术资料\新建文件夹\CH582M\StdPeriphDriver\inc/CH58x_sys.h:182
   if(read_csr(0x800)&0x08)
20001efe:	800027f3          	csrr	a5,0x800
20001f02:	f6f42c23          	sw	a5,-136(s0)
20001f06:	f7842783          	lw	a5,-136(s0)
20001f0a:	8ba1                	andi	a5,a5,8
20001f0c:	c385                	beqz	a5,20001f2c <SetSysClock+0x692>
c:\Users\ql\Desktop\工作\1.28IPS电容触摸技术资料\新建文件夹\CH582M\StdPeriphDriver\inc/CH58x_sys.h:184
       IRQ_STA = read_csr(0x800);
20001f0e:	800027f3          	csrr	a5,0x800
20001f12:	f6f42a23          	sw	a5,-140(s0)
20001f16:	f7442703          	lw	a4,-140(s0)
20001f1a:	80c18793          	addi	a5,gp,-2036 # 20002684 <IRQ_STA>
20001f1e:	c398                	sw	a4,0(a5)
c:\Users\ql\Desktop\工作\1.28IPS电容触摸技术资料\新建文件夹\CH582M\StdPeriphDriver\inc/CH58x_sys.h:185
       write_csr(0x800, (IRQ_STA&(~0x08)));
20001f20:	80c18793          	addi	a5,gp,-2036 # 20002684 <IRQ_STA>
20001f24:	439c                	lw	a5,0(a5)
20001f26:	9bdd                	andi	a5,a5,-9
20001f28:	80079073          	csrw	0x800,a5
c:\Users\ql\Desktop\工作\1.28IPS电容触摸技术资料\新建文件夹\CH582M\StdPeriphDriver\inc/CH58x_sys.h:187
   SAFEOPERATE;
20001f2c:	0001                	nop
20001f2e:	0001                	nop
c:\Users\ql\Desktop\工作\1.28IPS电容触摸技术资料\新建文件夹\CH582M\StdPeriphDriver\inc/CH58x_sys.h:188
   R8_SAFE_ACCESS_SIG = SAFE_ACCESS_SIG1;
20001f30:	400017b7          	lui	a5,0x40001
20001f34:	04078793          	addi	a5,a5,64 # 40001040 <_eusrstack+0x1fff9040>
20001f38:	05700713          	li	a4,87
20001f3c:	00e78023          	sb	a4,0(a5)
c:\Users\ql\Desktop\工作\1.28IPS电容触摸技术资料\新建文件夹\CH582M\StdPeriphDriver\inc/CH58x_sys.h:189
   R8_SAFE_ACCESS_SIG = SAFE_ACCESS_SIG2;
20001f40:	400017b7          	lui	a5,0x40001
20001f44:	04078793          	addi	a5,a5,64 # 40001040 <_eusrstack+0x1fff9040>
20001f48:	fa800713          	li	a4,-88
20001f4c:	00e78023          	sb	a4,0(a5)
c:\Users\ql\Desktop\工作\1.28IPS电容触摸技术资料\新建文件夹\CH582M\StdPeriphDriver\inc/CH58x_sys.h:190
   SAFEOPERATE;
20001f50:	0001                	nop
20001f52:	0001                	nop
SetSysClock():
c:\Users\ql\Desktop\工作\1.28IPS电容触摸技术资料\新建文件夹\CH582M\obj/../StdPeriphDriver/CH58x_sys.c:100
        sys_safe_access_disable();
    }
    //更改FLASH clk的驱动能力
    sys_safe_access_enable();
    R8_PLL_CONFIG |= 1 << 7;
20001f54:	400017b7          	lui	a5,0x40001
20001f58:	04b78793          	addi	a5,a5,75 # 4000104b <_eusrstack+0x1fff904b>
20001f5c:	0007c783          	lbu	a5,0(a5)
20001f60:	0ff7f713          	andi	a4,a5,255
20001f64:	400017b7          	lui	a5,0x40001
20001f68:	04b78793          	addi	a5,a5,75 # 4000104b <_eusrstack+0x1fff904b>
20001f6c:	f8076713          	ori	a4,a4,-128
20001f70:	0ff77713          	andi	a4,a4,255
20001f74:	00e78023          	sb	a4,0(a5)
sys_safe_access_disable():
c:\Users\ql\Desktop\工作\1.28IPS电容触摸技术资料\新建文件夹\CH582M\StdPeriphDriver\inc/CH58x_sys.h:195
   R8_SAFE_ACCESS_SIG = 0;
20001f78:	400017b7          	lui	a5,0x40001
20001f7c:	04078793          	addi	a5,a5,64 # 40001040 <_eusrstack+0x1fff9040>
20001f80:	00078023          	sb	zero,0(a5)
c:\Users\ql\Desktop\工作\1.28IPS电容触摸技术资料\新建文件夹\CH582M\StdPeriphDriver\inc/CH58x_sys.h:196
   write_csr(0x800, read_csr(0x800)|(IRQ_STA&0x08));
20001f84:	800027f3          	csrr	a5,0x800
20001f88:	f6f42e23          	sw	a5,-132(s0)
20001f8c:	f7c42703          	lw	a4,-132(s0)
20001f90:	80c18793          	addi	a5,gp,-2036 # 20002684 <IRQ_STA>
20001f94:	439c                	lw	a5,0(a5)
20001f96:	8ba1                	andi	a5,a5,8
20001f98:	8fd9                	or	a5,a5,a4
20001f9a:	80079073          	csrw	0x800,a5
c:\Users\ql\Desktop\工作\1.28IPS电容触摸技术资料\新建文件夹\CH582M\StdPeriphDriver\inc/CH58x_sys.h:197
   IRQ_STA = 0;
20001f9e:	80c18793          	addi	a5,gp,-2036 # 20002684 <IRQ_STA>
20001fa2:	0007a023          	sw	zero,0(a5)
c:\Users\ql\Desktop\工作\1.28IPS电容触摸技术资料\新建文件夹\CH582M\StdPeriphDriver\inc/CH58x_sys.h:198
   SAFEOPERATE;
20001fa6:	0001                	nop
20001fa8:	0001                	nop
SetSysClock():
c:\Users\ql\Desktop\工作\1.28IPS电容触摸技术资料\新建文件夹\CH582M\obj/../StdPeriphDriver/CH58x_sys.c:102
    sys_safe_access_disable();
}
20001faa:	0001                	nop
20001fac:	447a                	lw	s0,156(sp)
20001fae:	610d                	addi	sp,sp,160
20001fb0:	8082                	ret

20001fb2 <SYS_ResetExecute>:
SYS_ResetExecute():
c:\Users\ql\Desktop\工作\1.28IPS电容触摸技术资料\新建文件夹\CH582M\obj/../StdPeriphDriver/CH58x_sys.c:164
 *
 * @return  none
 */
__HIGH_CODE
void SYS_ResetExecute(void)
{
20001fb2:	1101                	addi	sp,sp,-32
20001fb4:	ce06                	sw	ra,28(sp)
20001fb6:	cc22                	sw	s0,24(sp)
20001fb8:	1000                	addi	s0,sp,32
c:\Users\ql\Desktop\工作\1.28IPS电容触摸技术资料\新建文件夹\CH582M\obj/../StdPeriphDriver/CH58x_sys.c:165
    FLASH_ROM_SW_RESET();
20001fba:	4681                	li	a3,0
20001fbc:	4601                	li	a2,0
20001fbe:	4581                	li	a1,0
20001fc0:	4511                	li	a0,4
20001fc2:	2e25                	jal	200022fa <FLASH_EEPROM_CMD>
sys_safe_access_enable():
c:\Users\ql\Desktop\工作\1.28IPS电容触摸技术资料\新建文件夹\CH582M\StdPeriphDriver\inc/CH58x_sys.h:182
   if(read_csr(0x800)&0x08)
20001fc4:	800027f3          	csrr	a5,0x800
20001fc8:	fef42423          	sw	a5,-24(s0)
20001fcc:	fe842783          	lw	a5,-24(s0)
20001fd0:	8ba1                	andi	a5,a5,8
20001fd2:	c385                	beqz	a5,20001ff2 <SYS_ResetExecute+0x40>
c:\Users\ql\Desktop\工作\1.28IPS电容触摸技术资料\新建文件夹\CH582M\StdPeriphDriver\inc/CH58x_sys.h:184
       IRQ_STA = read_csr(0x800);
20001fd4:	800027f3          	csrr	a5,0x800
20001fd8:	fef42223          	sw	a5,-28(s0)
20001fdc:	fe442703          	lw	a4,-28(s0)
20001fe0:	80c18793          	addi	a5,gp,-2036 # 20002684 <IRQ_STA>
20001fe4:	c398                	sw	a4,0(a5)
c:\Users\ql\Desktop\工作\1.28IPS电容触摸技术资料\新建文件夹\CH582M\StdPeriphDriver\inc/CH58x_sys.h:185
       write_csr(0x800, (IRQ_STA&(~0x08)));
20001fe6:	80c18793          	addi	a5,gp,-2036 # 20002684 <IRQ_STA>
20001fea:	439c                	lw	a5,0(a5)
20001fec:	9bdd                	andi	a5,a5,-9
20001fee:	80079073          	csrw	0x800,a5
c:\Users\ql\Desktop\工作\1.28IPS电容触摸技术资料\新建文件夹\CH582M\StdPeriphDriver\inc/CH58x_sys.h:187
   SAFEOPERATE;
20001ff2:	0001                	nop
20001ff4:	0001                	nop
c:\Users\ql\Desktop\工作\1.28IPS电容触摸技术资料\新建文件夹\CH582M\StdPeriphDriver\inc/CH58x_sys.h:188
   R8_SAFE_ACCESS_SIG = SAFE_ACCESS_SIG1;
20001ff6:	400017b7          	lui	a5,0x40001
20001ffa:	04078793          	addi	a5,a5,64 # 40001040 <_eusrstack+0x1fff9040>
20001ffe:	05700713          	li	a4,87
20002002:	00e78023          	sb	a4,0(a5)
c:\Users\ql\Desktop\工作\1.28IPS电容触摸技术资料\新建文件夹\CH582M\StdPeriphDriver\inc/CH58x_sys.h:189
   R8_SAFE_ACCESS_SIG = SAFE_ACCESS_SIG2;
20002006:	400017b7          	lui	a5,0x40001
2000200a:	04078793          	addi	a5,a5,64 # 40001040 <_eusrstack+0x1fff9040>
2000200e:	fa800713          	li	a4,-88
20002012:	00e78023          	sb	a4,0(a5)
c:\Users\ql\Desktop\工作\1.28IPS电容触摸技术资料\新建文件夹\CH582M\StdPeriphDriver\inc/CH58x_sys.h:190
   SAFEOPERATE;
20002016:	0001                	nop
20002018:	0001                	nop
SYS_ResetExecute():
c:\Users\ql\Desktop\工作\1.28IPS电容触摸技术资料\新建文件夹\CH582M\obj/../StdPeriphDriver/CH58x_sys.c:167
    sys_safe_access_enable();
    R8_RST_WDOG_CTRL |= RB_SOFTWARE_RESET;
2000201a:	400017b7          	lui	a5,0x40001
2000201e:	04678793          	addi	a5,a5,70 # 40001046 <_eusrstack+0x1fff9046>
20002022:	0007c783          	lbu	a5,0(a5)
20002026:	0ff7f713          	andi	a4,a5,255
2000202a:	400017b7          	lui	a5,0x40001
2000202e:	04678793          	addi	a5,a5,70 # 40001046 <_eusrstack+0x1fff9046>
20002032:	00176713          	ori	a4,a4,1
20002036:	0ff77713          	andi	a4,a4,255
2000203a:	00e78023          	sb	a4,0(a5)
sys_safe_access_disable():
c:\Users\ql\Desktop\工作\1.28IPS电容触摸技术资料\新建文件夹\CH582M\StdPeriphDriver\inc/CH58x_sys.h:195
   R8_SAFE_ACCESS_SIG = 0;
2000203e:	400017b7          	lui	a5,0x40001
20002042:	04078793          	addi	a5,a5,64 # 40001040 <_eusrstack+0x1fff9040>
20002046:	00078023          	sb	zero,0(a5)
c:\Users\ql\Desktop\工作\1.28IPS电容触摸技术资料\新建文件夹\CH582M\StdPeriphDriver\inc/CH58x_sys.h:196
   write_csr(0x800, read_csr(0x800)|(IRQ_STA&0x08));
2000204a:	800027f3          	csrr	a5,0x800
2000204e:	fef42623          	sw	a5,-20(s0)
20002052:	fec42703          	lw	a4,-20(s0)
20002056:	80c18793          	addi	a5,gp,-2036 # 20002684 <IRQ_STA>
2000205a:	439c                	lw	a5,0(a5)
2000205c:	8ba1                	andi	a5,a5,8
2000205e:	8fd9                	or	a5,a5,a4
20002060:	80079073          	csrw	0x800,a5
c:\Users\ql\Desktop\工作\1.28IPS电容触摸技术资料\新建文件夹\CH582M\StdPeriphDriver\inc/CH58x_sys.h:197
   IRQ_STA = 0;
20002064:	80c18793          	addi	a5,gp,-2036 # 20002684 <IRQ_STA>
20002068:	0007a023          	sw	zero,0(a5)
c:\Users\ql\Desktop\工作\1.28IPS电容触摸技术资料\新建文件夹\CH582M\StdPeriphDriver\inc/CH58x_sys.h:198
   SAFEOPERATE;
2000206c:	0001                	nop
2000206e:	0001                	nop
SYS_ResetExecute():
c:\Users\ql\Desktop\工作\1.28IPS电容触摸技术资料\新建文件夹\CH582M\obj/../StdPeriphDriver/CH58x_sys.c:169
    sys_safe_access_disable();
}
20002070:	0001                	nop
20002072:	40f2                	lw	ra,28(sp)
20002074:	4462                	lw	s0,24(sp)
20002076:	6105                	addi	sp,sp,32
20002078:	8082                	ret

2000207a <HardFault_Handler>:
HardFault_Handler():
c:\Users\ql\Desktop\工作\1.28IPS电容触摸技术资料\新建文件夹\CH582M\obj/../StdPeriphDriver/CH58x_sys.c:302
 */
__INTERRUPT
__HIGH_CODE
__attribute__((weak))
void HardFault_Handler(void)
{
2000207a:	7179                	addi	sp,sp,-48
2000207c:	d622                	sw	s0,44(sp)
2000207e:	1800                	addi	s0,sp,48
c:\Users\ql\Desktop\工作\1.28IPS电容触摸技术资料\新建文件夹\CH582M\obj/../StdPeriphDriver/CH58x_sys.c:303
    FLASH_ROM_SW_RESET();
20002080:	4681                	li	a3,0
20002082:	4601                	li	a2,0
20002084:	4581                	li	a1,0
20002086:	4511                	li	a0,4
20002088:	2c8d                	jal	200022fa <FLASH_EEPROM_CMD>
sys_safe_access_enable():
c:\Users\ql\Desktop\工作\1.28IPS电容触摸技术资料\新建文件夹\CH582M\StdPeriphDriver\inc/CH58x_sys.h:182
   if(read_csr(0x800)&0x08)
2000208a:	800027f3          	csrr	a5,0x800
2000208e:	fcf42e23          	sw	a5,-36(s0)
20002092:	fdc42783          	lw	a5,-36(s0)
20002096:	8ba1                	andi	a5,a5,8
20002098:	c385                	beqz	a5,200020b8 <HardFault_Handler+0x3e>
c:\Users\ql\Desktop\工作\1.28IPS电容触摸技术资料\新建文件夹\CH582M\StdPeriphDriver\inc/CH58x_sys.h:184
       IRQ_STA = read_csr(0x800);
2000209a:	800027f3          	csrr	a5,0x800
2000209e:	fcf42c23          	sw	a5,-40(s0)
200020a2:	fd842703          	lw	a4,-40(s0)
200020a6:	80c18793          	addi	a5,gp,-2036 # 20002684 <IRQ_STA>
200020aa:	c398                	sw	a4,0(a5)
c:\Users\ql\Desktop\工作\1.28IPS电容触摸技术资料\新建文件夹\CH582M\StdPeriphDriver\inc/CH58x_sys.h:185
       write_csr(0x800, (IRQ_STA&(~0x08)));
200020ac:	80c18793          	addi	a5,gp,-2036 # 20002684 <IRQ_STA>
200020b0:	439c                	lw	a5,0(a5)
200020b2:	9bdd                	andi	a5,a5,-9
200020b4:	80079073          	csrw	0x800,a5
c:\Users\ql\Desktop\工作\1.28IPS电容触摸技术资料\新建文件夹\CH582M\StdPeriphDriver\inc/CH58x_sys.h:187
   SAFEOPERATE;
200020b8:	0001                	nop
200020ba:	0001                	nop
c:\Users\ql\Desktop\工作\1.28IPS电容触摸技术资料\新建文件夹\CH582M\StdPeriphDriver\inc/CH58x_sys.h:188
   R8_SAFE_ACCESS_SIG = SAFE_ACCESS_SIG1;
200020bc:	400017b7          	lui	a5,0x40001
200020c0:	04078793          	addi	a5,a5,64 # 40001040 <_eusrstack+0x1fff9040>
200020c4:	05700713          	li	a4,87
200020c8:	00e78023          	sb	a4,0(a5)
c:\Users\ql\Desktop\工作\1.28IPS电容触摸技术资料\新建文件夹\CH582M\StdPeriphDriver\inc/CH58x_sys.h:189
   R8_SAFE_ACCESS_SIG = SAFE_ACCESS_SIG2;
200020cc:	400017b7          	lui	a5,0x40001
200020d0:	04078793          	addi	a5,a5,64 # 40001040 <_eusrstack+0x1fff9040>
200020d4:	fa800713          	li	a4,-88
200020d8:	00e78023          	sb	a4,0(a5)
c:\Users\ql\Desktop\工作\1.28IPS电容触摸技术资料\新建文件夹\CH582M\StdPeriphDriver\inc/CH58x_sys.h:190
   SAFEOPERATE;
200020dc:	0001                	nop
200020de:	0001                	nop
HardFault_Handler():
c:\Users\ql\Desktop\工作\1.28IPS电容触摸技术资料\新建文件夹\CH582M\obj/../StdPeriphDriver/CH58x_sys.c:305
    sys_safe_access_enable();
    R16_INT32K_TUNE = 0xFFFF;
200020e0:	400017b7          	lui	a5,0x40001
200020e4:	02c78793          	addi	a5,a5,44 # 4000102c <_eusrstack+0x1fff902c>
200020e8:	577d                	li	a4,-1
200020ea:	00e79023          	sh	a4,0(a5)
sys_safe_access_disable():
c:\Users\ql\Desktop\工作\1.28IPS电容触摸技术资料\新建文件夹\CH582M\StdPeriphDriver\inc/CH58x_sys.h:195
   R8_SAFE_ACCESS_SIG = 0;
200020ee:	400017b7          	lui	a5,0x40001
200020f2:	04078793          	addi	a5,a5,64 # 40001040 <_eusrstack+0x1fff9040>
200020f6:	00078023          	sb	zero,0(a5)
c:\Users\ql\Desktop\工作\1.28IPS电容触摸技术资料\新建文件夹\CH582M\StdPeriphDriver\inc/CH58x_sys.h:196
   write_csr(0x800, read_csr(0x800)|(IRQ_STA&0x08));
200020fa:	800027f3          	csrr	a5,0x800
200020fe:	fef42023          	sw	a5,-32(s0)
20002102:	fe042703          	lw	a4,-32(s0)
20002106:	80c18793          	addi	a5,gp,-2036 # 20002684 <IRQ_STA>
2000210a:	439c                	lw	a5,0(a5)
2000210c:	8ba1                	andi	a5,a5,8
2000210e:	8fd9                	or	a5,a5,a4
20002110:	80079073          	csrw	0x800,a5
c:\Users\ql\Desktop\工作\1.28IPS电容触摸技术资料\新建文件夹\CH582M\StdPeriphDriver\inc/CH58x_sys.h:197
   IRQ_STA = 0;
20002114:	80c18793          	addi	a5,gp,-2036 # 20002684 <IRQ_STA>
20002118:	0007a023          	sw	zero,0(a5)
c:\Users\ql\Desktop\工作\1.28IPS电容触摸技术资料\新建文件夹\CH582M\StdPeriphDriver\inc/CH58x_sys.h:198
   SAFEOPERATE;
2000211c:	0001                	nop
2000211e:	0001                	nop
sys_safe_access_enable():
c:\Users\ql\Desktop\工作\1.28IPS电容触摸技术资料\新建文件夹\CH582M\StdPeriphDriver\inc/CH58x_sys.h:182
   if(read_csr(0x800)&0x08)
20002120:	800027f3          	csrr	a5,0x800
20002124:	fef42423          	sw	a5,-24(s0)
20002128:	fe842783          	lw	a5,-24(s0)
2000212c:	8ba1                	andi	a5,a5,8
2000212e:	c385                	beqz	a5,2000214e <HardFault_Handler+0xd4>
c:\Users\ql\Desktop\工作\1.28IPS电容触摸技术资料\新建文件夹\CH582M\StdPeriphDriver\inc/CH58x_sys.h:184
       IRQ_STA = read_csr(0x800);
20002130:	800027f3          	csrr	a5,0x800
20002134:	fef42223          	sw	a5,-28(s0)
20002138:	fe442703          	lw	a4,-28(s0)
2000213c:	80c18793          	addi	a5,gp,-2036 # 20002684 <IRQ_STA>
20002140:	c398                	sw	a4,0(a5)
c:\Users\ql\Desktop\工作\1.28IPS电容触摸技术资料\新建文件夹\CH582M\StdPeriphDriver\inc/CH58x_sys.h:185
       write_csr(0x800, (IRQ_STA&(~0x08)));
20002142:	80c18793          	addi	a5,gp,-2036 # 20002684 <IRQ_STA>
20002146:	439c                	lw	a5,0(a5)
20002148:	9bdd                	andi	a5,a5,-9
2000214a:	80079073          	csrw	0x800,a5
c:\Users\ql\Desktop\工作\1.28IPS电容触摸技术资料\新建文件夹\CH582M\StdPeriphDriver\inc/CH58x_sys.h:187
   SAFEOPERATE;
2000214e:	0001                	nop
20002150:	0001                	nop
c:\Users\ql\Desktop\工作\1.28IPS电容触摸技术资料\新建文件夹\CH582M\StdPeriphDriver\inc/CH58x_sys.h:188
   R8_SAFE_ACCESS_SIG = SAFE_ACCESS_SIG1;
20002152:	400017b7          	lui	a5,0x40001
20002156:	04078793          	addi	a5,a5,64 # 40001040 <_eusrstack+0x1fff9040>
2000215a:	05700713          	li	a4,87
2000215e:	00e78023          	sb	a4,0(a5)
c:\Users\ql\Desktop\工作\1.28IPS电容触摸技术资料\新建文件夹\CH582M\StdPeriphDriver\inc/CH58x_sys.h:189
   R8_SAFE_ACCESS_SIG = SAFE_ACCESS_SIG2;
20002162:	400017b7          	lui	a5,0x40001
20002166:	04078793          	addi	a5,a5,64 # 40001040 <_eusrstack+0x1fff9040>
2000216a:	fa800713          	li	a4,-88
2000216e:	00e78023          	sb	a4,0(a5)
c:\Users\ql\Desktop\工作\1.28IPS电容触摸技术资料\新建文件夹\CH582M\StdPeriphDriver\inc/CH58x_sys.h:190
   SAFEOPERATE;
20002172:	0001                	nop
20002174:	0001                	nop
HardFault_Handler():
c:\Users\ql\Desktop\工作\1.28IPS电容触摸技术资料\新建文件夹\CH582M\obj/../StdPeriphDriver/CH58x_sys.c:308
	sys_safe_access_disable();
    sys_safe_access_enable();
    R8_RST_WDOG_CTRL |= RB_SOFTWARE_RESET;
20002176:	400017b7          	lui	a5,0x40001
2000217a:	04678793          	addi	a5,a5,70 # 40001046 <_eusrstack+0x1fff9046>
2000217e:	0007c783          	lbu	a5,0(a5)
20002182:	0ff7f713          	andi	a4,a5,255
20002186:	400017b7          	lui	a5,0x40001
2000218a:	04678793          	addi	a5,a5,70 # 40001046 <_eusrstack+0x1fff9046>
2000218e:	00176713          	ori	a4,a4,1
20002192:	0ff77713          	andi	a4,a4,255
20002196:	00e78023          	sb	a4,0(a5)
sys_safe_access_disable():
c:\Users\ql\Desktop\工作\1.28IPS电容触摸技术资料\新建文件夹\CH582M\StdPeriphDriver\inc/CH58x_sys.h:195
   R8_SAFE_ACCESS_SIG = 0;
2000219a:	400017b7          	lui	a5,0x40001
2000219e:	04078793          	addi	a5,a5,64 # 40001040 <_eusrstack+0x1fff9040>
200021a2:	00078023          	sb	zero,0(a5)
c:\Users\ql\Desktop\工作\1.28IPS电容触摸技术资料\新建文件夹\CH582M\StdPeriphDriver\inc/CH58x_sys.h:196
   write_csr(0x800, read_csr(0x800)|(IRQ_STA&0x08));
200021a6:	800027f3          	csrr	a5,0x800
200021aa:	fef42623          	sw	a5,-20(s0)
200021ae:	fec42703          	lw	a4,-20(s0)
200021b2:	80c18793          	addi	a5,gp,-2036 # 20002684 <IRQ_STA>
200021b6:	439c                	lw	a5,0(a5)
200021b8:	8ba1                	andi	a5,a5,8
200021ba:	8fd9                	or	a5,a5,a4
200021bc:	80079073          	csrw	0x800,a5
c:\Users\ql\Desktop\工作\1.28IPS电容触摸技术资料\新建文件夹\CH582M\StdPeriphDriver\inc/CH58x_sys.h:197
   IRQ_STA = 0;
200021c0:	80c18793          	addi	a5,gp,-2036 # 20002684 <IRQ_STA>
200021c4:	0007a023          	sw	zero,0(a5)
c:\Users\ql\Desktop\工作\1.28IPS电容触摸技术资料\新建文件夹\CH582M\StdPeriphDriver\inc/CH58x_sys.h:198
   SAFEOPERATE;
200021c8:	0001                	nop
200021ca:	0001                	nop
HardFault_Handler():
c:\Users\ql\Desktop\工作\1.28IPS电容触摸技术资料\新建文件夹\CH582M\obj/../StdPeriphDriver/CH58x_sys.c:310 (discriminator 1)
    sys_safe_access_disable();
    while(1);
200021cc:	a001                	j	200021cc <HardFault_Handler+0x152>

200021ce <mDelayuS>:
mDelayuS():
c:\Users\ql\Desktop\工作\1.28IPS电容触摸技术资料\新建文件夹\CH582M\obj/../StdPeriphDriver/CH58x_sys.c:324
 *
 * @return  none
 */
__HIGH_CODE
void mDelayuS(uint16_t t)
{
200021ce:	7179                	addi	sp,sp,-48
200021d0:	d622                	sw	s0,44(sp)
200021d2:	1800                	addi	s0,sp,48
200021d4:	87aa                	mv	a5,a0
200021d6:	fcf41f23          	sh	a5,-34(s0)
c:\Users\ql\Desktop\工作\1.28IPS电容触摸技术资料\新建文件夹\CH582M\obj/../StdPeriphDriver/CH58x_sys.c:327
    uint32_t i;
#if(FREQ_SYS == 80000000)
    i = t * 20;
200021da:	fde45703          	lhu	a4,-34(s0)
200021de:	87ba                	mv	a5,a4
200021e0:	078a                	slli	a5,a5,0x2
200021e2:	97ba                	add	a5,a5,a4
200021e4:	078a                	slli	a5,a5,0x2
200021e6:	fef42623          	sw	a5,-20(s0)
c:\Users\ql\Desktop\工作\1.28IPS电容触摸技术资料\新建文件夹\CH582M\obj/../StdPeriphDriver/CH58x_sys.c:353 (discriminator 1)
#else
    i = t << 1;
#endif
    do
    {
        __nop();
200021ea:	0001                	nop
c:\Users\ql\Desktop\工作\1.28IPS电容触摸技术资料\新建文件夹\CH582M\obj/../StdPeriphDriver/CH58x_sys.c:354 (discriminator 1)
    } while(--i);
200021ec:	fec42783          	lw	a5,-20(s0)
200021f0:	17fd                	addi	a5,a5,-1
200021f2:	fef42623          	sw	a5,-20(s0)
200021f6:	fec42783          	lw	a5,-20(s0)
200021fa:	fbe5                	bnez	a5,200021ea <mDelayuS+0x1c>
c:\Users\ql\Desktop\工作\1.28IPS电容触摸技术资料\新建文件夹\CH582M\obj/../StdPeriphDriver/CH58x_sys.c:355
}
200021fc:	0001                	nop
200021fe:	5432                	lw	s0,44(sp)
20002200:	6145                	addi	sp,sp,48
20002202:	8082                	ret

20002204 <mDelaymS>:
mDelaymS():
c:\Users\ql\Desktop\工作\1.28IPS电容触摸技术资料\新建文件夹\CH582M\obj/../StdPeriphDriver/CH58x_sys.c:368
 *
 * @return  none
 */
__HIGH_CODE
void mDelaymS(uint16_t t)
{
20002204:	7179                	addi	sp,sp,-48
20002206:	d606                	sw	ra,44(sp)
20002208:	d422                	sw	s0,40(sp)
2000220a:	1800                	addi	s0,sp,48
2000220c:	87aa                	mv	a5,a0
2000220e:	fcf41f23          	sh	a5,-34(s0)
c:\Users\ql\Desktop\工作\1.28IPS电容触摸技术资料\新建文件夹\CH582M\obj/../StdPeriphDriver/CH58x_sys.c:371
    uint16_t i;

    for(i = 0; i < t; i++)
20002212:	fe041723          	sh	zero,-18(s0)
20002216:	a809                	j	20002228 <mDelaymS+0x24>
c:\Users\ql\Desktop\工作\1.28IPS电容触摸技术资料\新建文件夹\CH582M\obj/../StdPeriphDriver/CH58x_sys.c:373 (discriminator 3)
    {
        mDelayuS(1000);
20002218:	3e800513          	li	a0,1000
2000221c:	3f4d                	jal	200021ce <mDelayuS>
c:\Users\ql\Desktop\工作\1.28IPS电容触摸技术资料\新建文件夹\CH582M\obj/../StdPeriphDriver/CH58x_sys.c:371 (discriminator 3)
    for(i = 0; i < t; i++)
2000221e:	fee45783          	lhu	a5,-18(s0)
20002222:	0785                	addi	a5,a5,1
20002224:	fef41723          	sh	a5,-18(s0)
c:\Users\ql\Desktop\工作\1.28IPS电容触摸技术资料\新建文件夹\CH582M\obj/../StdPeriphDriver/CH58x_sys.c:371 (discriminator 1)
20002228:	fee45703          	lhu	a4,-18(s0)
2000222c:	fde45783          	lhu	a5,-34(s0)
20002230:	fef764e3          	bltu	a4,a5,20002218 <mDelaymS+0x14>
c:\Users\ql\Desktop\工作\1.28IPS电容触摸技术资料\新建文件夹\CH582M\obj/../StdPeriphDriver/CH58x_sys.c:375
    }
}
20002234:	0001                	nop
20002236:	50b2                	lw	ra,44(sp)
20002238:	5422                	lw	s0,40(sp)
2000223a:	6145                	addi	sp,sp,48
2000223c:	8082                	ret

2000223e <FLASH_ROM_BEG>:
FLASH_ROM_BEG():
2000223e:	80040323          	sb	zero,-2042(s0)
20002242:	4715                	li	a4,5
20002244:	80e40323          	sb	a4,-2042(s0)
20002248:	0001                	nop
2000224a:	80a40223          	sb	a0,-2044(s0)
2000224e:	8082                	ret

20002250 <FLASH_ROM_END>:
FLASH_ROM_END():
20002250:	80640783          	lb	a5,-2042(s0)
20002254:	fe07cee3          	bltz	a5,20002250 <FLASH_ROM_END>
20002258:	80040323          	sb	zero,-2042(s0)
2000225c:	8082                	ret

2000225e <FLASH_ROM_IN>:
FLASH_ROM_IN():
2000225e:	80640783          	lb	a5,-2042(s0)
20002262:	fe07cee3          	bltz	a5,2000225e <FLASH_ROM_IN>
20002266:	80444503          	lbu	a0,-2044(s0)
2000226a:	8082                	ret

2000226c <FLASH_ROM_OUT>:
FLASH_ROM_OUT():
2000226c:	80640783          	lb	a5,-2042(s0)
20002270:	fe07cee3          	bltz	a5,2000226c <FLASH_ROM_OUT>
20002274:	80a40223          	sb	a0,-2044(s0)
20002278:	8082                	ret

2000227a <FLASH_ROM_ADDR>:
FLASH_ROM_ADDR():
2000227a:	1141                	addi	sp,sp,-16
2000227c:	c426                	sw	s1,8(sp)
2000227e:	c24a                	sw	s2,4(sp)
20002280:	c04e                	sw	s3,0(sp)
20002282:	c606                	sw	ra,12(sp)
20002284:	0bf57713          	andi	a4,a0,191
20002288:	47ad                	li	a5,11
2000228a:	89aa                	mv	s3,a0
2000228c:	892e                	mv	s2,a1
2000228e:	4495                	li	s1,5
20002290:	00f70663          	beq	a4,a5,2000229c <FLASH_ROM_ADDR+0x22>
20002294:	4519                	li	a0,6
20002296:	3765                	jal	2000223e <FLASH_ROM_BEG>
20002298:	3f65                	jal	20002250 <FLASH_ROM_END>
2000229a:	448d                	li	s1,3
2000229c:	854e                	mv	a0,s3
2000229e:	3745                	jal	2000223e <FLASH_ROM_BEG>
200022a0:	59fd                	li	s3,-1
200022a2:	14fd                	addi	s1,s1,-1
200022a4:	01349863          	bne	s1,s3,200022b4 <FLASH_ROM_ADDR+0x3a>
200022a8:	40b2                	lw	ra,12(sp)
200022aa:	44a2                	lw	s1,8(sp)
200022ac:	4912                	lw	s2,4(sp)
200022ae:	4982                	lw	s3,0(sp)
200022b0:	0141                	addi	sp,sp,16
200022b2:	8082                	ret
200022b4:	01095513          	srli	a0,s2,0x10
200022b8:	0ff57513          	andi	a0,a0,255
200022bc:	3f45                	jal	2000226c <FLASH_ROM_OUT>
200022be:	0922                	slli	s2,s2,0x8
200022c0:	b7cd                	j	200022a2 <FLASH_ROM_ADDR+0x28>

200022c2 <FLASH_ROM_WAIT>:
FLASH_ROM_WAIT():
200022c2:	1101                	addi	sp,sp,-32
200022c4:	cc26                	sw	s1,24(sp)
200022c6:	ce06                	sw	ra,28(sp)
200022c8:	000804b7          	lui	s1,0x80
200022cc:	3751                	jal	20002250 <FLASH_ROM_END>
200022ce:	4515                	li	a0,5
200022d0:	37bd                	jal	2000223e <FLASH_ROM_BEG>
200022d2:	3771                	jal	2000225e <FLASH_ROM_IN>
200022d4:	3769                	jal	2000225e <FLASH_ROM_IN>
200022d6:	c62a                	sw	a0,12(sp)
200022d8:	3fa5                	jal	20002250 <FLASH_ROM_END>
200022da:	4532                	lw	a0,12(sp)
200022dc:	00157793          	andi	a5,a0,1
200022e0:	eb89                	bnez	a5,200022f2 <FLASH_ROM_WAIT+0x30>
200022e2:	00156513          	ori	a0,a0,1
200022e6:	0ff57513          	andi	a0,a0,255
200022ea:	40f2                	lw	ra,28(sp)
200022ec:	44e2                	lw	s1,24(sp)
200022ee:	6105                	addi	sp,sp,32
200022f0:	8082                	ret
200022f2:	14fd                	addi	s1,s1,-1
200022f4:	fce9                	bnez	s1,200022ce <FLASH_ROM_WAIT+0xc>
200022f6:	4501                	li	a0,0
200022f8:	bfcd                	j	200022ea <FLASH_ROM_WAIT+0x28>

200022fa <FLASH_EEPROM_CMD>:
FLASH_EEPROM_CMD():
200022fa:	7139                	addi	sp,sp,-64
200022fc:	dc26                	sw	s1,56(sp)
200022fe:	da4a                	sw	s2,52(sp)
20002300:	d84e                	sw	s3,48(sp)
20002302:	d652                	sw	s4,44(sp)
20002304:	d456                	sw	s5,40(sp)
20002306:	d25a                	sw	s6,36(sp)
20002308:	d05e                	sw	s7,32(sp)
2000230a:	de06                	sw	ra,60(sp)
2000230c:	ce62                	sw	s8,28(sp)
2000230e:	cc66                	sw	s9,24(sp)
20002310:	e000e7b7          	lui	a5,0xe000e
20002314:	577d                	li	a4,-1
20002316:	0007aa83          	lw	s5,0(a5) # e000e000 <_eusrstack+0xc0006000>
2000231a:	c622                	sw	s0,12(sp)
2000231c:	0047aa03          	lw	s4,4(a5)
20002320:	18e7a023          	sw	a4,384(a5)
20002324:	18e7a223          	sw	a4,388(a5)
20002328:	400017b7          	lui	a5,0x40001
2000232c:	05700713          	li	a4,87
20002330:	04e78023          	sb	a4,64(a5) # 40001040 <_eusrstack+0x1fff9040>
20002334:	fa800713          	li	a4,-88
20002338:	04e78023          	sb	a4,64(a5)
2000233c:	0447c783          	lbu	a5,68(a5)
20002340:	ff750b93          	addi	s7,a0,-9 # ff7 <__stack_size+0xdf7>
20002344:	84b6                	mv	s1,a3
20002346:	07e2                	slli	a5,a5,0x18
20002348:	0ffbfb93          	andi	s7,s7,255
2000234c:	4685                	li	a3,1
2000234e:	89aa                	mv	s3,a0
20002350:	8b2e                	mv	s6,a1
20002352:	8932                	mv	s2,a2
20002354:	40002437          	lui	s0,0x40002
20002358:	87e1                	srai	a5,a5,0x18
2000235a:	5701                	li	a4,-32
2000235c:	0176fa63          	bgeu	a3,s7,20002370 <FLASH_EEPROM_CMD+0x76>
20002360:	00d50863          	beq	a0,a3,20002370 <FLASH_EEPROM_CMD+0x76>
20002364:	4689                	li	a3,2
20002366:	02000713          	li	a4,32
2000236a:	00d51363          	bne	a0,a3,20002370 <FLASH_EEPROM_CMD+0x76>
2000236e:	5701                	li	a4,-32
20002370:	8fd9                	or	a5,a5,a4
20002372:	0ff7f793          	andi	a5,a5,255
20002376:	40001cb7          	lui	s9,0x40001
2000237a:	04fc8223          	sb	a5,68(s9) # 40001044 <_eusrstack+0x1fff9044>
2000237e:	4711                	li	a4,4
20002380:	80e40323          	sb	a4,-2042(s0) # 40001806 <_eusrstack+0x1fff9806>
20002384:	0ff00513          	li	a0,255
20002388:	3d5d                	jal	2000223e <FLASH_ROM_BEG>
2000238a:	4c09                	li	s8,2
2000238c:	35d1                	jal	20002250 <FLASH_ROM_END>
2000238e:	117c6d63          	bltu	s8,s7,200024a8 <FLASH_EEPROM_CMD+0x1ae>
20002392:	000705b7          	lui	a1,0x70
20002396:	95da                	add	a1,a1,s6
20002398:	00078737          	lui	a4,0x78
2000239c:	5579                	li	a0,-2
2000239e:	04e5f263          	bgeu	a1,a4,200023e2 <FLASH_EEPROM_CMD+0xe8>
200023a2:	009587b3          	add	a5,a1,s1
200023a6:	02f76e63          	bltu	a4,a5,200023e2 <FLASH_EEPROM_CMD+0xe8>
200023aa:	00080b37          	lui	s6,0x80
200023ae:	47a9                	li	a5,10
200023b0:	0165eb33          	or	s6,a1,s6
200023b4:	06f99963          	bne	s3,a5,20002426 <FLASH_EEPROM_CMD+0x12c>
200023b8:	e489                	bnez	s1,200023c2 <FLASH_EEPROM_CMD+0xc8>
200023ba:	4481                	li	s1,0
200023bc:	3d51                	jal	20002250 <FLASH_ROM_END>
200023be:	8526                	mv	a0,s1
200023c0:	a00d                	j	200023e2 <FLASH_EEPROM_CMD+0xe8>
200023c2:	85da                	mv	a1,s6
200023c4:	4509                	li	a0,2
200023c6:	3d55                	jal	2000227a <FLASH_ROM_ADDR>
200023c8:	0905                	addi	s2,s2,1
200023ca:	fff94503          	lbu	a0,-1(s2)
200023ce:	14fd                	addi	s1,s1,-1
200023d0:	0b05                	addi	s6,s6,1
200023d2:	3d69                	jal	2000226c <FLASH_ROM_OUT>
200023d4:	c481                	beqz	s1,200023dc <FLASH_EEPROM_CMD+0xe2>
200023d6:	0ffb7793          	andi	a5,s6,255
200023da:	f7fd                	bnez	a5,200023c8 <FLASH_EEPROM_CMD+0xce>
200023dc:	35dd                	jal	200022c2 <FLASH_ROM_WAIT>
200023de:	fd69                	bnez	a0,200023b8 <FLASH_EEPROM_CMD+0xbe>
200023e0:	557d                	li	a0,-1
200023e2:	400017b7          	lui	a5,0x40001
200023e6:	05700713          	li	a4,87
200023ea:	04e78023          	sb	a4,64(a5) # 40001040 <_eusrstack+0x1fff9040>
200023ee:	fa800713          	li	a4,-88
200023f2:	04e78023          	sb	a4,64(a5)
200023f6:	0447c703          	lbu	a4,68(a5)
200023fa:	8b41                	andi	a4,a4,16
200023fc:	04e78223          	sb	a4,68(a5)
20002400:	50f2                	lw	ra,60(sp)
20002402:	e000e7b7          	lui	a5,0xe000e
20002406:	1157a023          	sw	s5,256(a5) # e000e100 <_eusrstack+0xc0006100>
2000240a:	1147a223          	sw	s4,260(a5)
2000240e:	54e2                	lw	s1,56(sp)
20002410:	4432                	lw	s0,12(sp)
20002412:	5952                	lw	s2,52(sp)
20002414:	59c2                	lw	s3,48(sp)
20002416:	5a32                	lw	s4,44(sp)
20002418:	5aa2                	lw	s5,40(sp)
2000241a:	5b12                	lw	s6,36(sp)
2000241c:	5b82                	lw	s7,32(sp)
2000241e:	4c72                	lw	s8,28(sp)
20002420:	4ce2                	lw	s9,24(sp)
20002422:	6121                	addi	sp,sp,64
20002424:	8082                	ret
20002426:	47a5                	li	a5,9
20002428:	06f99563          	bne	s3,a5,20002492 <FLASH_EEPROM_CMD+0x198>
2000242c:	6985                	lui	s3,0x1
2000242e:	0ff00913          	li	s2,255
20002432:	009906b3          	add	a3,s2,s1
20002436:	012b74b3          	and	s1,s6,s2
2000243a:	94b6                	add	s1,s1,a3
2000243c:	fff94913          	not	s2,s2
20002440:	009974b3          	and	s1,s2,s1
20002444:	6b85                	lui	s7,0x1
20002446:	01697933          	and	s2,s2,s6
2000244a:	6b41                	lui	s6,0x10
2000244c:	fff98793          	addi	a5,s3,-1 # fff <__stack_size+0xdff>
20002450:	0127f7b3          	and	a5,a5,s2
20002454:	e399                	bnez	a5,2000245a <FLASH_EEPROM_CMD+0x160>
20002456:	0134fc63          	bgeu	s1,s3,2000246e <FLASH_EEPROM_CMD+0x174>
2000245a:	0049d993          	srli	s3,s3,0x4
2000245e:	47c1                	li	a5,16
20002460:	ff37e6e3          	bltu	a5,s3,2000244c <FLASH_EEPROM_CMD+0x152>
20002464:	bf99                	j	200023ba <FLASH_EEPROM_CMD+0xc0>
20002466:	6905                	lui	s2,0x1
20002468:	69c1                	lui	s3,0x10
2000246a:	197d                	addi	s2,s2,-1
2000246c:	b7d9                	j	20002432 <FLASH_EEPROM_CMD+0x138>
2000246e:	0d800513          	li	a0,216
20002472:	01698863          	beq	s3,s6,20002482 <FLASH_EEPROM_CMD+0x188>
20002476:	02000513          	li	a0,32
2000247a:	01798463          	beq	s3,s7,20002482 <FLASH_EEPROM_CMD+0x188>
2000247e:	08100513          	li	a0,129
20002482:	85ca                	mv	a1,s2
20002484:	3bdd                	jal	2000227a <FLASH_ROM_ADDR>
20002486:	3d35                	jal	200022c2 <FLASH_ROM_WAIT>
20002488:	dd21                	beqz	a0,200023e0 <FLASH_EEPROM_CMD+0xe6>
2000248a:	994e                	add	s2,s2,s3
2000248c:	413484b3          	sub	s1,s1,s3
20002490:	b7d9                	j	20002456 <FLASH_EEPROM_CMD+0x15c>
20002492:	85da                	mv	a1,s6
20002494:	452d                	li	a0,11
20002496:	33d5                	jal	2000227a <FLASH_ROM_ADDR>
20002498:	94ca                	add	s1,s1,s2
2000249a:	f29900e3          	beq	s2,s1,200023ba <FLASH_EEPROM_CMD+0xc0>
2000249e:	0905                	addi	s2,s2,1
200024a0:	3b7d                	jal	2000225e <FLASH_ROM_IN>
200024a2:	fea90fa3          	sb	a0,-1(s2) # fff <__stack_size+0xdff>
200024a6:	bfd5                	j	2000249a <FLASH_EEPROM_CMD+0x1a0>
200024a8:	fff98793          	addi	a5,s3,-1 # ffff <gImage_8+0x1ce3>
200024ac:	0ff7f793          	andi	a5,a5,255
200024b0:	0cfc6163          	bltu	s8,a5,20002572 <.loop402+0x7a>
200024b4:	041cc783          	lbu	a5,65(s9)
200024b8:	08300713          	li	a4,131
200024bc:	04f71f63          	bne	a4,a5,2000251a <.loop402+0x22>
200024c0:	00080737          	lui	a4,0x80
200024c4:	04eb6b63          	bltu	s6,a4,2000251a <.loop402+0x22>
200024c8:	009b07b3          	add	a5,s6,s1
200024cc:	001006b7          	lui	a3,0x100
200024d0:	04d7f563          	bgeu	a5,a3,2000251a <.loop402+0x22>
200024d4:	00eb4b33          	xor	s6,s6,a4
200024d8:	4789                	li	a5,2
200024da:	06f99363          	bne	s3,a5,20002540 <.loop402+0x48>
200024de:	8089                	srli	s1,s1,0x2
200024e0:	49d5                	li	s3,21
200024e2:	ec048ce3          	beqz	s1,200023ba <FLASH_EEPROM_CMD+0xc0>
200024e6:	85da                	mv	a1,s6
200024e8:	4509                	li	a0,2
200024ea:	3b41                	jal	2000227a <FLASH_ROM_ADDR>
200024ec:	0911                	addi	s2,s2,4
200024ee:	ffc92703          	lw	a4,-4(s2)
200024f2:	4791                	li	a5,4
200024f4:	80e42023          	sw	a4,-2048(s0)

200024f8 <.loop402>:
200024f8:	80640703          	lb	a4,-2042(s0)
200024fc:	fe074ee3          	bltz	a4,200024f8 <.loop402>
20002500:	81340323          	sb	s3,-2042(s0)
20002504:	17fd                	addi	a5,a5,-1
20002506:	fbed                	bnez	a5,200024f8 <.loop402>
20002508:	14fd                	addi	s1,s1,-1
2000250a:	0b11                	addi	s6,s6,4
2000250c:	c481                	beqz	s1,20002514 <.loop402+0x1c>
2000250e:	0ffb7793          	andi	a5,s6,255
20002512:	ffe9                	bnez	a5,200024ec <FLASH_EEPROM_CMD+0x1f2>
20002514:	337d                	jal	200022c2 <FLASH_ROM_WAIT>
20002516:	f571                	bnez	a0,200024e2 <FLASH_EEPROM_CMD+0x1e8>
20002518:	b5e1                	j	200023e0 <FLASH_EEPROM_CMD+0xe6>
2000251a:	400017b7          	lui	a5,0x40001
2000251e:	0457c703          	lbu	a4,69(a5) # 40001045 <_eusrstack+0x1fff9045>
20002522:	000807b7          	lui	a5,0x80
20002526:	02077713          	andi	a4,a4,32
2000252a:	e319                	bnez	a4,20002530 <.loop402+0x38>
2000252c:	000787b7          	lui	a5,0x78
20002530:	5579                	li	a0,-2
20002532:	eafb78e3          	bgeu	s6,a5,200023e2 <FLASH_EEPROM_CMD+0xe8>
20002536:	009b0733          	add	a4,s6,s1
2000253a:	f8e7ffe3          	bgeu	a5,a4,200024d8 <FLASH_EEPROM_CMD+0x1de>
2000253e:	b555                	j	200023e2 <FLASH_EEPROM_CMD+0xe8>
20002540:	4785                	li	a5,1
20002542:	f2f982e3          	beq	s3,a5,20002466 <FLASH_EEPROM_CMD+0x16c>
20002546:	85da                	mv	a1,s6
20002548:	452d                	li	a0,11
2000254a:	3b05                	jal	2000227a <FLASH_ROM_ADDR>
2000254c:	fff48993          	addi	s3,s1,-1 # 7ffff <_data_lma+0x6ce97>
20002550:	e60485e3          	beqz	s1,200023ba <FLASH_EEPROM_CMD+0xc0>
20002554:	3329                	jal	2000225e <FLASH_ROM_IN>
20002556:	0039f793          	andi	a5,s3,3
2000255a:	eb91                	bnez	a5,2000256e <.loop402+0x76>
2000255c:	80042683          	lw	a3,-2048(s0)
20002560:	00092703          	lw	a4,0(s2)
20002564:	00490793          	addi	a5,s2,4
20002568:	e4e69ae3          	bne	a3,a4,200023bc <FLASH_EEPROM_CMD+0xc2>
2000256c:	893e                	mv	s2,a5
2000256e:	84ce                	mv	s1,s3
20002570:	bff1                	j	2000254c <.loop402+0x54>
20002572:	47b5                	li	a5,13
20002574:	00f99663          	bne	s3,a5,20002580 <.loop402+0x88>
20002578:	0b900513          	li	a0,185
2000257c:	31c9                	jal	2000223e <FLASH_ROM_BEG>
2000257e:	bd35                	j	200023ba <FLASH_EEPROM_CMD+0xc0>
20002580:	47b1                	li	a5,12
20002582:	0ab00513          	li	a0,171
20002586:	fef98be3          	beq	s3,a5,2000257c <.loop402+0x84>
2000258a:	4799                	li	a5,6
2000258c:	04f99163          	bne	s3,a5,200025ce <.loop402+0xd6>
20002590:	000805b7          	lui	a1,0x80
20002594:	00bb65b3          	or	a1,s6,a1
20002598:	452d                	li	a0,11
2000259a:	31c5                	jal	2000227a <FLASH_ROM_ADDR>
2000259c:	4481                	li	s1,0
2000259e:	4b8d                	li	s7,3
200025a0:	49a1                	li	s3,8
200025a2:	3975                	jal	2000225e <FLASH_ROM_IN>
200025a4:	01749663          	bne	s1,s7,200025b0 <.loop402+0xb8>
200025a8:	80042783          	lw	a5,-2048(s0)
200025ac:	00f92023          	sw	a5,0(s2)
200025b0:	0485                	addi	s1,s1,1
200025b2:	ff3498e3          	bne	s1,s3,200025a2 <.loop402+0xaa>
200025b6:	80042783          	lw	a5,-2048(s0)
200025ba:	012b1713          	slli	a4,s6,0x12
200025be:	00075563          	bgez	a4,200025c8 <.loop402+0xd0>
200025c2:	00f91223          	sh	a5,4(s2)
200025c6:	bbd5                	j	200023ba <FLASH_EEPROM_CMD+0xc0>
200025c8:	00f92223          	sw	a5,4(s2)
200025cc:	b3fd                	j	200023ba <FLASH_EEPROM_CMD+0xc0>
200025ce:	479d                	li	a5,7
200025d0:	02f99963          	bne	s3,a5,20002602 <.loop402+0x10a>
200025d4:	4581                	li	a1,0
200025d6:	04b00513          	li	a0,75
200025da:	3145                	jal	2000227a <FLASH_ROM_ADDR>
200025dc:	44bd                	li	s1,15
200025de:	00092023          	sw	zero,0(s2)
200025e2:	00092223          	sw	zero,4(s2)
200025e6:	59fd                	li	s3,-1
200025e8:	399d                	jal	2000225e <FLASH_ROM_IN>
200025ea:	0074f793          	andi	a5,s1,7
200025ee:	97ca                	add	a5,a5,s2
200025f0:	0007c703          	lbu	a4,0(a5) # 78000 <_data_lma+0x64e98>
200025f4:	14fd                	addi	s1,s1,-1
200025f6:	8d39                	xor	a0,a0,a4
200025f8:	00a78023          	sb	a0,0(a5)
200025fc:	ff3496e3          	bne	s1,s3,200025e8 <.loop402+0xf0>
20002600:	bb6d                	j	200023ba <FLASH_EEPROM_CMD+0xc0>
20002602:	47a1                	li	a5,8
20002604:	04f99263          	bne	s3,a5,20002648 <.loop402+0x150>
20002608:	396d                	jal	200022c2 <FLASH_ROM_WAIT>
2000260a:	4481                	li	s1,0
2000260c:	000b0d63          	beqz	s6,20002626 <.loop402+0x12e>
20002610:	478d                	li	a5,3
20002612:	03c00493          	li	s1,60
20002616:	00fb0863          	beq	s6,a5,20002626 <.loop402+0x12e>
2000261a:	05000493          	li	s1,80
2000261e:	018b0463          	beq	s6,s8,20002626 <.loop402+0x12e>
20002622:	04400493          	li	s1,68
20002626:	07c57513          	andi	a0,a0,124
2000262a:	d89508e3          	beq	a0,s1,200023ba <FLASH_EEPROM_CMD+0xc0>
2000262e:	4519                	li	a0,6
20002630:	3139                	jal	2000223e <FLASH_ROM_BEG>
20002632:	3939                	jal	20002250 <FLASH_ROM_END>
20002634:	4505                	li	a0,1
20002636:	3121                	jal	2000223e <FLASH_ROM_BEG>
20002638:	8526                	mv	a0,s1
2000263a:	390d                	jal	2000226c <FLASH_ROM_OUT>
2000263c:	4509                	li	a0,2
2000263e:	313d                	jal	2000226c <FLASH_ROM_OUT>
20002640:	3149                	jal	200022c2 <FLASH_ROM_WAIT>
20002642:	d6051ce3          	bnez	a0,200023ba <FLASH_EEPROM_CMD+0xc0>
20002646:	bb69                	j	200023e0 <FLASH_EEPROM_CMD+0xe6>
20002648:	4791                	li	a5,4
2000264a:	00f99963          	bne	s3,a5,2000265c <.loop402+0x164>
2000264e:	06600513          	li	a0,102
20002652:	36f5                	jal	2000223e <FLASH_ROM_BEG>
20002654:	3ef5                	jal	20002250 <FLASH_ROM_END>
20002656:	09900513          	li	a0,153
2000265a:	b70d                	j	2000257c <.loop402+0x84>
2000265c:	d4098fe3          	beqz	s3,200023ba <FLASH_EEPROM_CMD+0xc0>
20002660:	54f1                	li	s1,-4
20002662:	bba9                	j	200023bc <FLASH_EEPROM_CMD+0xc2>

Disassembly of section .text:

00002668 <handle_reset>:
handle_reset():
c:\Users\ql\Desktop\工作\1.28IPS电容触摸技术资料\新建文件夹\CH582M\obj/../Startup/startup_CH583.S:129
	.weak	handle_reset
	.align	1
handle_reset:
.option push 
.option	norelax 
	la gp, __global_pointer$
    2668:	20001197          	auipc	gp,0x20001
    266c:	81018193          	addi	gp,gp,-2032 # 20002e78 <__global_pointer$>
c:\Users\ql\Desktop\工作\1.28IPS电容触摸技术资料\新建文件夹\CH582M\obj/../Startup/startup_CH583.S:132
.option	pop 
1:
	la sp, _eusrstack 
    2670:	20006117          	auipc	sp,0x20006
    2674:	99010113          	addi	sp,sp,-1648 # 20008000 <_eusrstack>
c:\Users\ql\Desktop\工作\1.28IPS电容触摸技术资料\新建文件夹\CH582M\obj/../Startup/startup_CH583.S:136

/* Load highcode code  section from flash to RAM */
2:
    la a0, _highcode_lma
    2678:	00400513          	li	a0,4
c:\Users\ql\Desktop\工作\1.28IPS电容触摸技术资料\新建文件夹\CH582M\obj/../Startup/startup_CH583.S:137
    la a1, _highcode_vma_start
    267c:	1fffe597          	auipc	a1,0x1fffe
    2680:	98458593          	addi	a1,a1,-1660 # 20000000 <_highcode_vma_start>
c:\Users\ql\Desktop\工作\1.28IPS电容触摸技术资料\新建文件夹\CH582M\obj/../Startup/startup_CH583.S:138
    la a2, _highcode_vma_end
    2684:	20000617          	auipc	a2,0x20000
    2688:	fe060613          	addi	a2,a2,-32 # 20002664 <_highcode_vma_end>
c:\Users\ql\Desktop\工作\1.28IPS电容触摸技术资料\新建文件夹\CH582M\obj/../Startup/startup_CH583.S:139
    bgeu a1, a2, 2f
    268c:	00c5fa63          	bgeu	a1,a2,26a0 <handle_reset+0x38>
c:\Users\ql\Desktop\工作\1.28IPS电容触摸技术资料\新建文件夹\CH582M\obj/../Startup/startup_CH583.S:141
1:
    lw t0, (a0)
    2690:	00052283          	lw	t0,0(a0)
c:\Users\ql\Desktop\工作\1.28IPS电容触摸技术资料\新建文件夹\CH582M\obj/../Startup/startup_CH583.S:142
    sw t0, (a1)
    2694:	0055a023          	sw	t0,0(a1)
c:\Users\ql\Desktop\工作\1.28IPS电容触摸技术资料\新建文件夹\CH582M\obj/../Startup/startup_CH583.S:143
    addi a0, a0, 4
    2698:	0511                	addi	a0,a0,4
c:\Users\ql\Desktop\工作\1.28IPS电容触摸技术资料\新建文件夹\CH582M\obj/../Startup/startup_CH583.S:144
    addi a1, a1, 4
    269a:	0591                	addi	a1,a1,4
c:\Users\ql\Desktop\工作\1.28IPS电容触摸技术资料\新建文件夹\CH582M\obj/../Startup/startup_CH583.S:145
    bltu a1, a2, 1b
    269c:	fec5eae3          	bltu	a1,a2,2690 <handle_reset+0x28>
c:\Users\ql\Desktop\工作\1.28IPS电容触摸技术资料\新建文件夹\CH582M\obj/../Startup/startup_CH583.S:149

/* Load data section from flash to RAM */
2:
	la a0, _data_lma
    26a0:	00011517          	auipc	a0,0x11
    26a4:	ac850513          	addi	a0,a0,-1336 # 13168 <_data_lma>
c:\Users\ql\Desktop\工作\1.28IPS电容触摸技术资料\新建文件夹\CH582M\obj/../Startup/startup_CH583.S:150
	la a1, _data_vma
    26a8:	20000597          	auipc	a1,0x20000
    26ac:	fbc58593          	addi	a1,a1,-68 # 20002664 <_highcode_vma_end>
c:\Users\ql\Desktop\工作\1.28IPS电容触摸技术资料\新建文件夹\CH582M\obj/../Startup/startup_CH583.S:151
	la a2, _edata
    26b0:	80818613          	addi	a2,gp,-2040 # 20002680 <_edata>
c:\Users\ql\Desktop\工作\1.28IPS电容触摸技术资料\新建文件夹\CH582M\obj/../Startup/startup_CH583.S:152
	bgeu a1, a2, 2f
    26b4:	00c5fa63          	bgeu	a1,a2,26c8 <handle_reset+0x60>
c:\Users\ql\Desktop\工作\1.28IPS电容触摸技术资料\新建文件夹\CH582M\obj/../Startup/startup_CH583.S:154
1:
	lw t0, (a0)
    26b8:	00052283          	lw	t0,0(a0)
c:\Users\ql\Desktop\工作\1.28IPS电容触摸技术资料\新建文件夹\CH582M\obj/../Startup/startup_CH583.S:155
	sw t0, (a1)
    26bc:	0055a023          	sw	t0,0(a1)
c:\Users\ql\Desktop\工作\1.28IPS电容触摸技术资料\新建文件夹\CH582M\obj/../Startup/startup_CH583.S:156
	addi a0, a0, 4
    26c0:	0511                	addi	a0,a0,4
c:\Users\ql\Desktop\工作\1.28IPS电容触摸技术资料\新建文件夹\CH582M\obj/../Startup/startup_CH583.S:157
	addi a1, a1, 4
    26c2:	0591                	addi	a1,a1,4
c:\Users\ql\Desktop\工作\1.28IPS电容触摸技术资料\新建文件夹\CH582M\obj/../Startup/startup_CH583.S:158
	bltu a1, a2, 1b
    26c4:	fec5eae3          	bltu	a1,a2,26b8 <handle_reset+0x50>
c:\Users\ql\Desktop\工作\1.28IPS电容触摸技术资料\新建文件夹\CH582M\obj/../Startup/startup_CH583.S:161
2:
	/* clear bss section */
	la a0, _sbss
    26c8:	80818513          	addi	a0,gp,-2040 # 20002680 <_edata>
c:\Users\ql\Desktop\工作\1.28IPS电容触摸技术资料\新建文件夹\CH582M\obj/../Startup/startup_CH583.S:162
	la a1, _ebss
    26cc:	81018593          	addi	a1,gp,-2032 # 20002688 <_ebss>
c:\Users\ql\Desktop\工作\1.28IPS电容触摸技术资料\新建文件夹\CH582M\obj/../Startup/startup_CH583.S:163
	bgeu a0, a1, 2f
    26d0:	00b57763          	bgeu	a0,a1,26de <handle_reset+0x76>
c:\Users\ql\Desktop\工作\1.28IPS电容触摸技术资料\新建文件夹\CH582M\obj/../Startup/startup_CH583.S:165
1:
	sw zero, (a0)
    26d4:	00052023          	sw	zero,0(a0)
c:\Users\ql\Desktop\工作\1.28IPS电容触摸技术资料\新建文件夹\CH582M\obj/../Startup/startup_CH583.S:166
	addi a0, a0, 4
    26d8:	0511                	addi	a0,a0,4
c:\Users\ql\Desktop\工作\1.28IPS电容触摸技术资料\新建文件夹\CH582M\obj/../Startup/startup_CH583.S:167
	bltu a0, a1, 1b
    26da:	feb56de3          	bltu	a0,a1,26d4 <handle_reset+0x6c>
c:\Users\ql\Desktop\工作\1.28IPS电容触摸技术资料\新建文件夹\CH582M\obj/../Startup/startup_CH583.S:170
2:
	/* 流水线控制位 & 动态预测控制位 */
	li t0, 0x1f
    26de:	42fd                	li	t0,31
c:\Users\ql\Desktop\工作\1.28IPS电容触摸技术资料\新建文件夹\CH582M\obj/../Startup/startup_CH583.S:171
	csrw 0xbc0, t0
    26e0:	bc029073          	csrw	0xbc0,t0
c:\Users\ql\Desktop\工作\1.28IPS电容触摸技术资料\新建文件夹\CH582M\obj/../Startup/startup_CH583.S:173
	/* 打开嵌套中断、硬件压栈功能 */
	li t0, 0x3
    26e4:	428d                	li	t0,3
c:\Users\ql\Desktop\工作\1.28IPS电容触摸技术资料\新建文件夹\CH582M\obj/../Startup/startup_CH583.S:174
	csrw 0x804, t0
    26e6:	80429073          	csrw	0x804,t0
c:\Users\ql\Desktop\工作\1.28IPS电容触摸技术资料\新建文件夹\CH582M\obj/../Startup/startup_CH583.S:176
	
    li t0, 0x88
    26ea:	08800293          	li	t0,136
c:\Users\ql\Desktop\工作\1.28IPS电容触摸技术资料\新建文件夹\CH582M\obj/../Startup/startup_CH583.S:177
    csrw mstatus, t0
    26ee:	30029073          	csrw	mstatus,t0
c:\Users\ql\Desktop\工作\1.28IPS电容触摸技术资料\新建文件夹\CH582M\obj/../Startup/startup_CH583.S:178
	la t0, _vector_base
    26f2:	1fffe297          	auipc	t0,0x1fffe
    26f6:	90e28293          	addi	t0,t0,-1778 # 20000000 <_highcode_vma_start>
c:\Users\ql\Desktop\工作\1.28IPS电容触摸技术资料\新建文件夹\CH582M\obj/../Startup/startup_CH583.S:181

	/* 配置向量表模式为绝对地址模式 */
    ori t0, t0, 3
    26fa:	0032e293          	ori	t0,t0,3
c:\Users\ql\Desktop\工作\1.28IPS电容触摸技术资料\新建文件夹\CH582M\obj/../Startup/startup_CH583.S:182
	csrw mtvec, t0
    26fe:	30529073          	csrw	mtvec,t0
c:\Users\ql\Desktop\工作\1.28IPS电容触摸技术资料\新建文件夹\CH582M\obj/../Startup/startup_CH583.S:184

	la t0, main
    2702:	1fffe297          	auipc	t0,0x1fffe
    2706:	57a28293          	addi	t0,t0,1402 # 20000c7c <main>
c:\Users\ql\Desktop\工作\1.28IPS电容触摸技术资料\新建文件夹\CH582M\obj/../Startup/startup_CH583.S:185
	csrw mepc, t0
    270a:	34129073          	csrw	mepc,t0
c:\Users\ql\Desktop\工作\1.28IPS电容触摸技术资料\新建文件夹\CH582M\obj/../Startup/startup_CH583.S:188
	
	
	mret
    270e:	30200073          	mret

00002712 <CST816S_GetGesture>:
CST816S_GetGesture():
c:\Users\ql\Desktop\工作\1.28IPS电容触摸技术资料\新建文件夹\CH582M\obj/../src/CST816S.c:211
        // DelayMs (1);
    }
}

// 获取手势码
uint8_t CST816S_GetGesture(void) {
    2712:	1101                	addi	sp,sp,-32
    2714:	ce06                	sw	ra,28(sp)
    2716:	cc22                	sw	s0,24(sp)
    2718:	1000                	addi	s0,sp,32
c:\Users\ql\Desktop\工作\1.28IPS电容触摸技术资料\新建文件夹\CH582M\obj/../src/CST816S.c:212
    uint8_t gesture = NONE;
    271a:	fe0407a3          	sb	zero,-17(s0)
c:\Users\ql\Desktop\工作\1.28IPS电容触摸技术资料\新建文件夹\CH582M\obj/../src/CST816S.c:213
    uint8_t gestureData = 0;
    271e:	fe040723          	sb	zero,-18(s0)
c:\Users\ql\Desktop\工作\1.28IPS电容触摸技术资料\新建文件夹\CH582M\obj/../src/CST816S.c:214
    uint8_t fingerNum = 0;
    2722:	fe0406a3          	sb	zero,-19(s0)
c:\Users\ql\Desktop\工作\1.28IPS电容触摸技术资料\新建文件夹\CH582M\obj/../src/CST816S.c:217

    // 读取触摸点数寄存器
    CST816S_RD_DATA(GT_ADDR_REG, 1, &fingerNum);
    2726:	fed40793          	addi	a5,s0,-19
    272a:	863e                	mv	a2,a5
    272c:	4585                	li	a1,1
    272e:	4509                	li	a0,2
    2730:	1fffe097          	auipc	ra,0x1fffe
    2734:	9be080e7          	jalr	-1602(ra) # 200000ee <CST816S_RD_DATA>
c:\Users\ql\Desktop\工作\1.28IPS电容触摸技术资料\新建文件夹\CH582M\obj/../src/CST816S.c:220

    // 如果触摸点数大于等于1，则读取手势码
    if (fingerNum >= 1) {
    2738:	fed44783          	lbu	a5,-19(s0)
    273c:	cfa5                	beqz	a5,27b4 <CST816S_GetGesture+0xa2>
c:\Users\ql\Desktop\工作\1.28IPS电容触摸技术资料\新建文件夹\CH582M\obj/../src/CST816S.c:222
        // 读取手势寄存器
        CST816S_RD_DATA(GESTURE_REG, 1, &gestureData);
    273e:	fee40793          	addi	a5,s0,-18
    2742:	863e                	mv	a2,a5
    2744:	4585                	li	a1,1
    2746:	4505                	li	a0,1
    2748:	1fffe097          	auipc	ra,0x1fffe
    274c:	9a6080e7          	jalr	-1626(ra) # 200000ee <CST816S_RD_DATA>
c:\Users\ql\Desktop\工作\1.28IPS电容触摸技术资料\新建文件夹\CH582M\obj/../src/CST816S.c:225

        // 根据读取的手势数据确定手势码
        switch (gestureData) {
    2750:	fee44783          	lbu	a5,-18(s0)
    2754:	4731                	li	a4,12
    2756:	04f76c63          	bltu	a4,a5,27ae <CST816S_GetGesture+0x9c>
    275a:	00279713          	slli	a4,a5,0x2
    275e:	00001797          	auipc	a5,0x1
    2762:	2ca78793          	addi	a5,a5,714 # 3a28 <GPIOB_ModeCfg+0x1c0>
    2766:	97ba                	add	a5,a5,a4
    2768:	4398                	lw	a4,0(a5)
    276a:	00001797          	auipc	a5,0x1
    276e:	2be78793          	addi	a5,a5,702 # 3a28 <GPIOB_ModeCfg+0x1c0>
    2772:	97ba                	add	a5,a5,a4
    2774:	8782                	jr	a5
c:\Users\ql\Desktop\工作\1.28IPS电容触摸技术资料\新建文件夹\CH582M\obj/../src/CST816S.c:227
            case 0x01:
                gesture = SWIPE_DOWN;
    2776:	4785                	li	a5,1
    2778:	fef407a3          	sb	a5,-17(s0)
c:\Users\ql\Desktop\工作\1.28IPS电容触摸技术资料\新建文件夹\CH582M\obj/../src/CST816S.c:228
                break;
    277c:	a82d                	j	27b6 <CST816S_GetGesture+0xa4>
c:\Users\ql\Desktop\工作\1.28IPS电容触摸技术资料\新建文件夹\CH582M\obj/../src/CST816S.c:230
            case 0x02:
                gesture = SWIPE_UP;
    277e:	4789                	li	a5,2
    2780:	fef407a3          	sb	a5,-17(s0)
c:\Users\ql\Desktop\工作\1.28IPS电容触摸技术资料\新建文件夹\CH582M\obj/../src/CST816S.c:231
                break;
    2784:	a80d                	j	27b6 <CST816S_GetGesture+0xa4>
c:\Users\ql\Desktop\工作\1.28IPS电容触摸技术资料\新建文件夹\CH582M\obj/../src/CST816S.c:233
            case 0x03:
                gesture = SWIPE_LEFT;
    2786:	478d                	li	a5,3
    2788:	fef407a3          	sb	a5,-17(s0)
c:\Users\ql\Desktop\工作\1.28IPS电容触摸技术资料\新建文件夹\CH582M\obj/../src/CST816S.c:234
                break;
    278c:	a02d                	j	27b6 <CST816S_GetGesture+0xa4>
c:\Users\ql\Desktop\工作\1.28IPS电容触摸技术资料\新建文件夹\CH582M\obj/../src/CST816S.c:236
            case 0x04:
                gesture = SWIPE_RIGHT;
    278e:	4791                	li	a5,4
    2790:	fef407a3          	sb	a5,-17(s0)
c:\Users\ql\Desktop\工作\1.28IPS电容触摸技术资料\新建文件夹\CH582M\obj/../src/CST816S.c:237
                break;
    2794:	a00d                	j	27b6 <CST816S_GetGesture+0xa4>
c:\Users\ql\Desktop\工作\1.28IPS电容触摸技术资料\新建文件夹\CH582M\obj/../src/CST816S.c:239
            case 0x05:
                gesture = SINGLE_CLICK;
    2796:	4795                	li	a5,5
    2798:	fef407a3          	sb	a5,-17(s0)
c:\Users\ql\Desktop\工作\1.28IPS电容触摸技术资料\新建文件夹\CH582M\obj/../src/CST816S.c:240
                break;
    279c:	a829                	j	27b6 <CST816S_GetGesture+0xa4>
c:\Users\ql\Desktop\工作\1.28IPS电容触摸技术资料\新建文件夹\CH582M\obj/../src/CST816S.c:242
            case 0x0B:
                gesture = DOUBLE_CLICK;
    279e:	47ad                	li	a5,11
    27a0:	fef407a3          	sb	a5,-17(s0)
c:\Users\ql\Desktop\工作\1.28IPS电容触摸技术资料\新建文件夹\CH582M\obj/../src/CST816S.c:243
                break;
    27a4:	a809                	j	27b6 <CST816S_GetGesture+0xa4>
c:\Users\ql\Desktop\工作\1.28IPS电容触摸技术资料\新建文件夹\CH582M\obj/../src/CST816S.c:245
            case 0x0C:
                gesture = LONG_PRESS;
    27a6:	47b1                	li	a5,12
    27a8:	fef407a3          	sb	a5,-17(s0)
c:\Users\ql\Desktop\工作\1.28IPS电容触摸技术资料\新建文件夹\CH582M\obj/../src/CST816S.c:246
                break;
    27ac:	a029                	j	27b6 <CST816S_GetGesture+0xa4>
c:\Users\ql\Desktop\工作\1.28IPS电容触摸技术资料\新建文件夹\CH582M\obj/../src/CST816S.c:248
            default:
                gesture = NONE;
    27ae:	fe0407a3          	sb	zero,-17(s0)
c:\Users\ql\Desktop\工作\1.28IPS电容触摸技术资料\新建文件夹\CH582M\obj/../src/CST816S.c:249
                break;
    27b2:	a011                	j	27b6 <CST816S_GetGesture+0xa4>
c:\Users\ql\Desktop\工作\1.28IPS电容触摸技术资料\新建文件夹\CH582M\obj/../src/CST816S.c:251
        }
    }
    27b4:	0001                	nop
c:\Users\ql\Desktop\工作\1.28IPS电容触摸技术资料\新建文件夹\CH582M\obj/../src/CST816S.c:253

    return gesture;
    27b6:	fef44783          	lbu	a5,-17(s0)
c:\Users\ql\Desktop\工作\1.28IPS电容触摸技术资料\新建文件夹\CH582M\obj/../src/CST816S.c:254
}
    27ba:	853e                	mv	a0,a5
    27bc:	40f2                	lw	ra,28(sp)
    27be:	4462                	lw	s0,24(sp)
    27c0:	6105                	addi	sp,sp,32
    27c2:	8082                	ret

000027c4 <KEY_GPIO_init>:
KEY_GPIO_init():
c:\Users\ql\Desktop\工作\1.28IPS电容触摸技术资料\新建文件夹\CH582M\obj/../src/key.c:4

#include "config.h"
#include "key.h"
void KEY_GPIO_init() {
    27c4:	1141                	addi	sp,sp,-16
    27c6:	c606                	sw	ra,12(sp)
    27c8:	c422                	sw	s0,8(sp)
    27ca:	0800                	addi	s0,sp,16
c:\Users\ql\Desktop\工作\1.28IPS电容触摸技术资料\新建文件夹\CH582M\obj/../src/key.c:6
    // 按键引脚初始化
    GPIOA_ModeCfg (GPIO_Pin_0, GPIO_ModeIN_PU);
    27cc:	4585                	li	a1,1
    27ce:	4505                	li	a0,1
    27d0:	6db000ef          	jal	ra,36aa <GPIOA_ModeCfg>
c:\Users\ql\Desktop\工作\1.28IPS电容触摸技术资料\新建文件夹\CH582M\obj/../src/key.c:7
    GPIOA_ModeCfg (GPIO_Pin_1, GPIO_ModeIN_PU);
    27d4:	4585                	li	a1,1
    27d6:	4509                	li	a0,2
    27d8:	6d3000ef          	jal	ra,36aa <GPIOA_ModeCfg>
c:\Users\ql\Desktop\工作\1.28IPS电容触摸技术资料\新建文件夹\CH582M\obj/../src/key.c:8
    GPIOA_ModeCfg (GPIO_Pin_2, GPIO_ModeIN_PU);
    27dc:	4585                	li	a1,1
    27de:	4511                	li	a0,4
    27e0:	6cb000ef          	jal	ra,36aa <GPIOA_ModeCfg>
c:\Users\ql\Desktop\工作\1.28IPS电容触摸技术资料\新建文件夹\CH582M\obj/../src/key.c:9
    GPIOA_ModeCfg (GPIO_Pin_3, GPIO_ModeIN_PU);
    27e4:	4585                	li	a1,1
    27e6:	4521                	li	a0,8
    27e8:	6c3000ef          	jal	ra,36aa <GPIOA_ModeCfg>
c:\Users\ql\Desktop\工作\1.28IPS电容触摸技术资料\新建文件夹\CH582M\obj/../src/key.c:10
}
    27ec:	0001                	nop
    27ee:	40b2                	lw	ra,12(sp)
    27f0:	4422                	lw	s0,8(sp)
    27f2:	0141                	addi	sp,sp,16
    27f4:	8082                	ret

000027f6 <LCD_GPIO_Init>:
LCD_GPIO_Init():
c:\Users\ql\Desktop\工作\1.28IPS电容触摸技术资料\新建文件夹\CH582M\obj/../src/lcd_init.c:7
void LCD_GPIO_Init (void) {
    27f6:	1141                	addi	sp,sp,-16
    27f8:	c606                	sw	ra,12(sp)
    27fa:	c422                	sw	s0,8(sp)
    27fc:	0800                	addi	s0,sp,16
c:\Users\ql\Desktop\工作\1.28IPS电容触摸技术资料\新建文件夹\CH582M\obj/../src/lcd_init.c:9
    GPIOB_ModeCfg (GPIO_Pin_0, GPIO_ModeOut_PP_20mA);  // GPIOB_Pin_0
    27fe:	4591                	li	a1,4
    2800:	4505                	li	a0,1
    2802:	066010ef          	jal	ra,3868 <GPIOB_ModeCfg>
c:\Users\ql\Desktop\工作\1.28IPS电容触摸技术资料\新建文件夹\CH582M\obj/../src/lcd_init.c:10
    GPIOB_ModeCfg (GPIO_Pin_1, GPIO_ModeOut_PP_20mA);  // GPIOB_Pin_1
    2806:	4591                	li	a1,4
    2808:	4509                	li	a0,2
    280a:	05e010ef          	jal	ra,3868 <GPIOB_ModeCfg>
c:\Users\ql\Desktop\工作\1.28IPS电容触摸技术资料\新建文件夹\CH582M\obj/../src/lcd_init.c:11
    GPIOB_ModeCfg (GPIO_Pin_2, GPIO_ModeOut_PP_20mA);  // GPIOB_Pin_2
    280e:	4591                	li	a1,4
    2810:	4511                	li	a0,4
    2812:	056010ef          	jal	ra,3868 <GPIOB_ModeCfg>
c:\Users\ql\Desktop\工作\1.28IPS电容触摸技术资料\新建文件夹\CH582M\obj/../src/lcd_init.c:12
    GPIOB_ModeCfg (GPIO_Pin_3, GPIO_ModeOut_PP_20mA);  // GPIOB_Pin_3
    2816:	4591                	li	a1,4
    2818:	4521                	li	a0,8
    281a:	04e010ef          	jal	ra,3868 <GPIOB_ModeCfg>
c:\Users\ql\Desktop\工作\1.28IPS电容触摸技术资料\新建文件夹\CH582M\obj/../src/lcd_init.c:13
    GPIOB_ModeCfg (GPIO_Pin_4, GPIO_ModeOut_PP_20mA);  // GPIOB_Pin_4
    281e:	4591                	li	a1,4
    2820:	4541                	li	a0,16
    2822:	046010ef          	jal	ra,3868 <GPIOB_ModeCfg>
c:\Users\ql\Desktop\工作\1.28IPS电容触摸技术资料\新建文件夹\CH582M\obj/../src/lcd_init.c:14
    GPIOB_ModeCfg (GPIO_Pin_5, GPIO_ModeOut_PP_20mA);  // GPIOB_Pin_5
    2826:	4591                	li	a1,4
    2828:	02000513          	li	a0,32
    282c:	03c010ef          	jal	ra,3868 <GPIOB_ModeCfg>
c:\Users\ql\Desktop\工作\1.28IPS电容触摸技术资料\新建文件夹\CH582M\obj/../src/lcd_init.c:15
    GPIOB_ModeCfg (GPIO_Pin_6, GPIO_ModeOut_PP_20mA);  // GPIOB_Pin_6
    2830:	4591                	li	a1,4
    2832:	04000513          	li	a0,64
    2836:	032010ef          	jal	ra,3868 <GPIOB_ModeCfg>
c:\Users\ql\Desktop\工作\1.28IPS电容触摸技术资料\新建文件夹\CH582M\obj/../src/lcd_init.c:16
    GPIOB_ModeCfg (GPIO_Pin_7, GPIO_ModeOut_PP_20mA);  // GPIOB_Pin_7
    283a:	4591                	li	a1,4
    283c:	08000513          	li	a0,128
    2840:	028010ef          	jal	ra,3868 <GPIOB_ModeCfg>
c:\Users\ql\Desktop\工作\1.28IPS电容触摸技术资料\新建文件夹\CH582M\obj/../src/lcd_init.c:19
    GPIOB_SetBits (GPIO_Pin_0 | GPIO_Pin_1 | GPIO_Pin_2 | GPIO_Pin_3 | GPIO_Pin_4 | GPIO_Pin_5 | GPIO_Pin_6 | GPIO_Pin_7);
    2844:	400017b7          	lui	a5,0x40001
    2848:	0c878793          	addi	a5,a5,200 # 400010c8 <_eusrstack+0x1fff90c8>
    284c:	4398                	lw	a4,0(a5)
    284e:	400017b7          	lui	a5,0x40001
    2852:	0c878793          	addi	a5,a5,200 # 400010c8 <_eusrstack+0x1fff90c8>
    2856:	0ff76713          	ori	a4,a4,255
    285a:	c398                	sw	a4,0(a5)
c:\Users\ql\Desktop\工作\1.28IPS电容触摸技术资料\新建文件夹\CH582M\obj/../src/lcd_init.c:22
    GPIOA_ModeCfg (GPIO_Pin_10, GPIO_ModeOut_PP_20mA);  // GPIOA_Pin_10
    285c:	4591                	li	a1,4
    285e:	40000513          	li	a0,1024
    2862:	649000ef          	jal	ra,36aa <GPIOA_ModeCfg>
c:\Users\ql\Desktop\工作\1.28IPS电容触摸技术资料\新建文件夹\CH582M\obj/../src/lcd_init.c:23
    GPIOA_ModeCfg (GPIO_Pin_11, GPIO_ModeOut_PP_20mA);  // GPIOA_Pin_11
    2866:	4591                	li	a1,4
    2868:	6785                	lui	a5,0x1
    286a:	80078513          	addi	a0,a5,-2048 # 800 <__stack_size+0x600>
    286e:	63d000ef          	jal	ra,36aa <GPIOA_ModeCfg>
c:\Users\ql\Desktop\工作\1.28IPS电容触摸技术资料\新建文件夹\CH582M\obj/../src/lcd_init.c:24
    GPIOA_ModeCfg (GPIO_Pin_12, GPIO_ModeOut_PP_20mA);  // GPIOA_Pin_12
    2872:	4591                	li	a1,4
    2874:	6505                	lui	a0,0x1
    2876:	635000ef          	jal	ra,36aa <GPIOA_ModeCfg>
c:\Users\ql\Desktop\工作\1.28IPS电容触摸技术资料\新建文件夹\CH582M\obj/../src/lcd_init.c:26
    GPIOA_ModeCfg (GPIO_Pin_14, GPIO_ModeOut_PP_20mA);  // GPIOA_Pin_14
    287a:	4591                	li	a1,4
    287c:	6511                	lui	a0,0x4
    287e:	62d000ef          	jal	ra,36aa <GPIOA_ModeCfg>
c:\Users\ql\Desktop\工作\1.28IPS电容触摸技术资料\新建文件夹\CH582M\obj/../src/lcd_init.c:27
    GPIOA_ModeCfg (GPIO_Pin_15, GPIO_ModeOut_PP_20mA);  // GPIOA_Pin_15
    2882:	4591                	li	a1,4
    2884:	6521                	lui	a0,0x8
    2886:	625000ef          	jal	ra,36aa <GPIOA_ModeCfg>
c:\Users\ql\Desktop\工作\1.28IPS电容触摸技术资料\新建文件夹\CH582M\obj/../src/lcd_init.c:28
    GPIOB_ModeCfg (GPIO_Pin_16, GPIO_ModeOut_PP_20mA);  // GPIOB_Pin_16
    288a:	4591                	li	a1,4
    288c:	6541                	lui	a0,0x10
    288e:	7db000ef          	jal	ra,3868 <GPIOB_ModeCfg>
c:\Users\ql\Desktop\工作\1.28IPS电容触摸技术资料\新建文件夹\CH582M\obj/../src/lcd_init.c:31
    GPIOA_SetBits (GPIO_Pin_10 | GPIO_Pin_11 | GPIO_Pin_12 | GPIO_Pin_14 | GPIO_Pin_15);
    2892:	400017b7          	lui	a5,0x40001
    2896:	0a878793          	addi	a5,a5,168 # 400010a8 <_eusrstack+0x1fff90a8>
    289a:	4394                	lw	a3,0(a5)
    289c:	400017b7          	lui	a5,0x40001
    28a0:	0a878793          	addi	a5,a5,168 # 400010a8 <_eusrstack+0x1fff90a8>
    28a4:	6739                	lui	a4,0xe
    28a6:	c0070713          	addi	a4,a4,-1024 # dc00 <gImage_7+0x4704>
    28aa:	8f55                	or	a4,a4,a3
    28ac:	c398                	sw	a4,0(a5)
c:\Users\ql\Desktop\工作\1.28IPS电容触摸技术资料\新建文件夹\CH582M\obj/../src/lcd_init.c:32
    LCD_CS_Clr();
    28ae:	400017b7          	lui	a5,0x40001
    28b2:	0ac78793          	addi	a5,a5,172 # 400010ac <_eusrstack+0x1fff90ac>
    28b6:	4394                	lw	a3,0(a5)
    28b8:	400017b7          	lui	a5,0x40001
    28bc:	0ac78793          	addi	a5,a5,172 # 400010ac <_eusrstack+0x1fff90ac>
    28c0:	6705                	lui	a4,0x1
    28c2:	8f55                	or	a4,a4,a3
    28c4:	c398                	sw	a4,0(a5)
c:\Users\ql\Desktop\工作\1.28IPS电容触摸技术资料\新建文件夹\CH582M\obj/../src/lcd_init.c:33
}
    28c6:	0001                	nop
    28c8:	40b2                	lw	ra,12(sp)
    28ca:	4422                	lw	s0,8(sp)
    28cc:	0141                	addi	sp,sp,16
    28ce:	8082                	ret

000028d0 <LCD_Init>:
LCD_Init():
c:\Users\ql\Desktop\工作\1.28IPS电容触摸技术资料\新建文件夹\CH582M\obj/../src/lcd_init.c:99

void LCD_Init (void) {
    28d0:	1141                	addi	sp,sp,-16
    28d2:	c606                	sw	ra,12(sp)
    28d4:	c422                	sw	s0,8(sp)
    28d6:	0800                	addi	s0,sp,16
c:\Users\ql\Desktop\工作\1.28IPS电容触摸技术资料\新建文件夹\CH582M\obj/../src/lcd_init.c:100
    LCD_GPIO_Init();  // 初始化GPIO
    28d8:	3f39                	jal	27f6 <LCD_GPIO_Init>
c:\Users\ql\Desktop\工作\1.28IPS电容触摸技术资料\新建文件夹\CH582M\obj/../src/lcd_init.c:102

    LCD_RES_Clr();    // 复位
    28da:	400017b7          	lui	a5,0x40001
    28de:	0ac78793          	addi	a5,a5,172 # 400010ac <_eusrstack+0x1fff90ac>
    28e2:	4394                	lw	a3,0(a5)
    28e4:	400017b7          	lui	a5,0x40001
    28e8:	0ac78793          	addi	a5,a5,172 # 400010ac <_eusrstack+0x1fff90ac>
    28ec:	6705                	lui	a4,0x1
    28ee:	80070713          	addi	a4,a4,-2048 # 800 <__stack_size+0x600>
    28f2:	8f55                	or	a4,a4,a3
    28f4:	c398                	sw	a4,0(a5)
c:\Users\ql\Desktop\工作\1.28IPS电容触摸技术资料\新建文件夹\CH582M\obj/../src/lcd_init.c:103
    DelayMs (20);     // 延时100ms
    28f6:	4551                	li	a0,20
    28f8:	20000097          	auipc	ra,0x20000
    28fc:	90c080e7          	jalr	-1780(ra) # 20002204 <mDelaymS>
c:\Users\ql\Desktop\工作\1.28IPS电容触摸技术资料\新建文件夹\CH582M\obj/../src/lcd_init.c:104
    LCD_RES_Set();
    2900:	400017b7          	lui	a5,0x40001
    2904:	0a878793          	addi	a5,a5,168 # 400010a8 <_eusrstack+0x1fff90a8>
    2908:	4394                	lw	a3,0(a5)
    290a:	400017b7          	lui	a5,0x40001
    290e:	0a878793          	addi	a5,a5,168 # 400010a8 <_eusrstack+0x1fff90a8>
    2912:	6705                	lui	a4,0x1
    2914:	80070713          	addi	a4,a4,-2048 # 800 <__stack_size+0x600>
    2918:	8f55                	or	a4,a4,a3
    291a:	c398                	sw	a4,0(a5)
c:\Users\ql\Desktop\工作\1.28IPS电容触摸技术资料\新建文件夹\CH582M\obj/../src/lcd_init.c:105
    DelayMs (20);     // 延时100ms
    291c:	4551                	li	a0,20
    291e:	20000097          	auipc	ra,0x20000
    2922:	8e6080e7          	jalr	-1818(ra) # 20002204 <mDelaymS>
c:\Users\ql\Desktop\工作\1.28IPS电容触摸技术资料\新建文件夹\CH582M\obj/../src/lcd_init.c:107

    LCD_BLK_Set();    // 打开背光
    2926:	400017b7          	lui	a5,0x40001
    292a:	0cc78793          	addi	a5,a5,204 # 400010cc <_eusrstack+0x1fff90cc>
    292e:	4394                	lw	a3,0(a5)
    2930:	400017b7          	lui	a5,0x40001
    2934:	0cc78793          	addi	a5,a5,204 # 400010cc <_eusrstack+0x1fff90cc>
    2938:	6741                	lui	a4,0x10
    293a:	8f55                	or	a4,a4,a3
    293c:	c398                	sw	a4,0(a5)
c:\Users\ql\Desktop\工作\1.28IPS电容触摸技术资料\新建文件夹\CH582M\obj/../src/lcd_init.c:108
    DelayMs (100);
    293e:	06400513          	li	a0,100
    2942:	20000097          	auipc	ra,0x20000
    2946:	8c2080e7          	jalr	-1854(ra) # 20002204 <mDelaymS>
c:\Users\ql\Desktop\工作\1.28IPS电容触摸技术资料\新建文件夹\CH582M\obj/../src/lcd_init.c:111

    /* 很多寄存器访问都需要Inter_command为高(默认为低)所以先发FE和EF配置Inter_command为高 */
    LCD_WR_REG (0xEF);    // 激活扩展指令集
    294a:	0ef00513          	li	a0,239
    294e:	1ffff097          	auipc	ra,0x1ffff
    2952:	e84080e7          	jalr	-380(ra) # 200017d2 <LCD_WR_REG>
c:\Users\ql\Desktop\工作\1.28IPS电容触摸技术资料\新建文件夹\CH582M\obj/../src/lcd_init.c:112
    LCD_WR_REG (0xEB);    // 设置扩展指令集参数
    2956:	0eb00513          	li	a0,235
    295a:	1ffff097          	auipc	ra,0x1ffff
    295e:	e78080e7          	jalr	-392(ra) # 200017d2 <LCD_WR_REG>
c:\Users\ql\Desktop\工作\1.28IPS电容触摸技术资料\新建文件夹\CH582M\obj/../src/lcd_init.c:113
    LCD_WR_DATA8 (0x14);  // 配置扩展指令集功能
    2962:	4551                	li	a0,20
    2964:	1ffff097          	auipc	ra,0x1ffff
    2968:	de8080e7          	jalr	-536(ra) # 2000174c <LCD_WR_DATA8>
c:\Users\ql\Desktop\工作\1.28IPS电容触摸技术资料\新建文件夹\CH582M\obj/../src/lcd_init.c:115

    LCD_WR_REG (0xFE);    // 使能扩展指令集
    296c:	0fe00513          	li	a0,254
    2970:	1ffff097          	auipc	ra,0x1ffff
    2974:	e62080e7          	jalr	-414(ra) # 200017d2 <LCD_WR_REG>
c:\Users\ql\Desktop\工作\1.28IPS电容触摸技术资料\新建文件夹\CH582M\obj/../src/lcd_init.c:116
    LCD_WR_REG (0xEF);    // 激活扩展指令集
    2978:	0ef00513          	li	a0,239
    297c:	1ffff097          	auipc	ra,0x1ffff
    2980:	e56080e7          	jalr	-426(ra) # 200017d2 <LCD_WR_REG>
c:\Users\ql\Desktop\工作\1.28IPS电容触摸技术资料\新建文件夹\CH582M\obj/../src/lcd_init.c:118

    LCD_WR_REG (0xEB);    // 设置扩展指令集参数
    2984:	0eb00513          	li	a0,235
    2988:	1ffff097          	auipc	ra,0x1ffff
    298c:	e4a080e7          	jalr	-438(ra) # 200017d2 <LCD_WR_REG>
c:\Users\ql\Desktop\工作\1.28IPS电容触摸技术资料\新建文件夹\CH582M\obj/../src/lcd_init.c:119
    LCD_WR_DATA8 (0x14);  // 配置扩展指令集功能
    2990:	4551                	li	a0,20
    2992:	1ffff097          	auipc	ra,0x1ffff
    2996:	dba080e7          	jalr	-582(ra) # 2000174c <LCD_WR_DATA8>
c:\Users\ql\Desktop\工作\1.28IPS电容触摸技术资料\新建文件夹\CH582M\obj/../src/lcd_init.c:121

    LCD_WR_REG (0x84);
    299a:	08400513          	li	a0,132
    299e:	1ffff097          	auipc	ra,0x1ffff
    29a2:	e34080e7          	jalr	-460(ra) # 200017d2 <LCD_WR_REG>
c:\Users\ql\Desktop\工作\1.28IPS电容触摸技术资料\新建文件夹\CH582M\obj/../src/lcd_init.c:122
    LCD_WR_DATA8 (0x40);
    29a6:	04000513          	li	a0,64
    29aa:	1ffff097          	auipc	ra,0x1ffff
    29ae:	da2080e7          	jalr	-606(ra) # 2000174c <LCD_WR_DATA8>
c:\Users\ql\Desktop\工作\1.28IPS电容触摸技术资料\新建文件夹\CH582M\obj/../src/lcd_init.c:123
    LCD_WR_REG (0x85);
    29b2:	08500513          	li	a0,133
    29b6:	1ffff097          	auipc	ra,0x1ffff
    29ba:	e1c080e7          	jalr	-484(ra) # 200017d2 <LCD_WR_REG>
c:\Users\ql\Desktop\工作\1.28IPS电容触摸技术资料\新建文件夹\CH582M\obj/../src/lcd_init.c:124
    LCD_WR_DATA8 (0xFF);
    29be:	0ff00513          	li	a0,255
    29c2:	1ffff097          	auipc	ra,0x1ffff
    29c6:	d8a080e7          	jalr	-630(ra) # 2000174c <LCD_WR_DATA8>
c:\Users\ql\Desktop\工作\1.28IPS电容触摸技术资料\新建文件夹\CH582M\obj/../src/lcd_init.c:125
    LCD_WR_REG (0x86);
    29ca:	08600513          	li	a0,134
    29ce:	1ffff097          	auipc	ra,0x1ffff
    29d2:	e04080e7          	jalr	-508(ra) # 200017d2 <LCD_WR_REG>
c:\Users\ql\Desktop\工作\1.28IPS电容触摸技术资料\新建文件夹\CH582M\obj/../src/lcd_init.c:126
    LCD_WR_DATA8 (0xFF);
    29d6:	0ff00513          	li	a0,255
    29da:	1ffff097          	auipc	ra,0x1ffff
    29de:	d72080e7          	jalr	-654(ra) # 2000174c <LCD_WR_DATA8>
c:\Users\ql\Desktop\工作\1.28IPS电容触摸技术资料\新建文件夹\CH582M\obj/../src/lcd_init.c:127
    LCD_WR_REG (0x87);
    29e2:	08700513          	li	a0,135
    29e6:	1ffff097          	auipc	ra,0x1ffff
    29ea:	dec080e7          	jalr	-532(ra) # 200017d2 <LCD_WR_REG>
c:\Users\ql\Desktop\工作\1.28IPS电容触摸技术资料\新建文件夹\CH582M\obj/../src/lcd_init.c:128
    LCD_WR_DATA8 (0xFF);
    29ee:	0ff00513          	li	a0,255
    29f2:	1ffff097          	auipc	ra,0x1ffff
    29f6:	d5a080e7          	jalr	-678(ra) # 2000174c <LCD_WR_DATA8>
c:\Users\ql\Desktop\工作\1.28IPS电容触摸技术资料\新建文件夹\CH582M\obj/../src/lcd_init.c:129
    LCD_WR_REG (0x88);
    29fa:	08800513          	li	a0,136
    29fe:	1ffff097          	auipc	ra,0x1ffff
    2a02:	dd4080e7          	jalr	-556(ra) # 200017d2 <LCD_WR_REG>
c:\Users\ql\Desktop\工作\1.28IPS电容触摸技术资料\新建文件夹\CH582M\obj/../src/lcd_init.c:130
    LCD_WR_DATA8 (0x0A);
    2a06:	4529                	li	a0,10
    2a08:	1ffff097          	auipc	ra,0x1ffff
    2a0c:	d44080e7          	jalr	-700(ra) # 2000174c <LCD_WR_DATA8>
c:\Users\ql\Desktop\工作\1.28IPS电容触摸技术资料\新建文件夹\CH582M\obj/../src/lcd_init.c:131
    LCD_WR_REG (0x89);
    2a10:	08900513          	li	a0,137
    2a14:	1ffff097          	auipc	ra,0x1ffff
    2a18:	dbe080e7          	jalr	-578(ra) # 200017d2 <LCD_WR_REG>
c:\Users\ql\Desktop\工作\1.28IPS电容触摸技术资料\新建文件夹\CH582M\obj/../src/lcd_init.c:132
    LCD_WR_DATA8 (0x21);
    2a1c:	02100513          	li	a0,33
    2a20:	1ffff097          	auipc	ra,0x1ffff
    2a24:	d2c080e7          	jalr	-724(ra) # 2000174c <LCD_WR_DATA8>
c:\Users\ql\Desktop\工作\1.28IPS电容触摸技术资料\新建文件夹\CH582M\obj/../src/lcd_init.c:133
    LCD_WR_REG (0x8A);
    2a28:	08a00513          	li	a0,138
    2a2c:	1ffff097          	auipc	ra,0x1ffff
    2a30:	da6080e7          	jalr	-602(ra) # 200017d2 <LCD_WR_REG>
c:\Users\ql\Desktop\工作\1.28IPS电容触摸技术资料\新建文件夹\CH582M\obj/../src/lcd_init.c:134
    LCD_WR_DATA8 (0x00);
    2a34:	4501                	li	a0,0
    2a36:	1ffff097          	auipc	ra,0x1ffff
    2a3a:	d16080e7          	jalr	-746(ra) # 2000174c <LCD_WR_DATA8>
c:\Users\ql\Desktop\工作\1.28IPS电容触摸技术资料\新建文件夹\CH582M\obj/../src/lcd_init.c:135
    LCD_WR_REG (0x8B);
    2a3e:	08b00513          	li	a0,139
    2a42:	1ffff097          	auipc	ra,0x1ffff
    2a46:	d90080e7          	jalr	-624(ra) # 200017d2 <LCD_WR_REG>
c:\Users\ql\Desktop\工作\1.28IPS电容触摸技术资料\新建文件夹\CH582M\obj/../src/lcd_init.c:136
    LCD_WR_DATA8 (0x80);
    2a4a:	08000513          	li	a0,128
    2a4e:	1ffff097          	auipc	ra,0x1ffff
    2a52:	cfe080e7          	jalr	-770(ra) # 2000174c <LCD_WR_DATA8>
c:\Users\ql\Desktop\工作\1.28IPS电容触摸技术资料\新建文件夹\CH582M\obj/../src/lcd_init.c:137
    LCD_WR_REG (0x8C);
    2a56:	08c00513          	li	a0,140
    2a5a:	1ffff097          	auipc	ra,0x1ffff
    2a5e:	d78080e7          	jalr	-648(ra) # 200017d2 <LCD_WR_REG>
c:\Users\ql\Desktop\工作\1.28IPS电容触摸技术资料\新建文件夹\CH582M\obj/../src/lcd_init.c:138
    LCD_WR_DATA8 (0x01);
    2a62:	4505                	li	a0,1
    2a64:	1ffff097          	auipc	ra,0x1ffff
    2a68:	ce8080e7          	jalr	-792(ra) # 2000174c <LCD_WR_DATA8>
c:\Users\ql\Desktop\工作\1.28IPS电容触摸技术资料\新建文件夹\CH582M\obj/../src/lcd_init.c:139
    LCD_WR_REG (0x8D);
    2a6c:	08d00513          	li	a0,141
    2a70:	1ffff097          	auipc	ra,0x1ffff
    2a74:	d62080e7          	jalr	-670(ra) # 200017d2 <LCD_WR_REG>
c:\Users\ql\Desktop\工作\1.28IPS电容触摸技术资料\新建文件夹\CH582M\obj/../src/lcd_init.c:140
    LCD_WR_DATA8 (0x01);
    2a78:	4505                	li	a0,1
    2a7a:	1ffff097          	auipc	ra,0x1ffff
    2a7e:	cd2080e7          	jalr	-814(ra) # 2000174c <LCD_WR_DATA8>
c:\Users\ql\Desktop\工作\1.28IPS电容触摸技术资料\新建文件夹\CH582M\obj/../src/lcd_init.c:141
    LCD_WR_REG (0x8E);
    2a82:	08e00513          	li	a0,142
    2a86:	1ffff097          	auipc	ra,0x1ffff
    2a8a:	d4c080e7          	jalr	-692(ra) # 200017d2 <LCD_WR_REG>
c:\Users\ql\Desktop\工作\1.28IPS电容触摸技术资料\新建文件夹\CH582M\obj/../src/lcd_init.c:142
    LCD_WR_DATA8 (0xFF);
    2a8e:	0ff00513          	li	a0,255
    2a92:	1ffff097          	auipc	ra,0x1ffff
    2a96:	cba080e7          	jalr	-838(ra) # 2000174c <LCD_WR_DATA8>
c:\Users\ql\Desktop\工作\1.28IPS电容触摸技术资料\新建文件夹\CH582M\obj/../src/lcd_init.c:143
    LCD_WR_REG (0x8F);
    2a9a:	08f00513          	li	a0,143
    2a9e:	1ffff097          	auipc	ra,0x1ffff
    2aa2:	d34080e7          	jalr	-716(ra) # 200017d2 <LCD_WR_REG>
c:\Users\ql\Desktop\工作\1.28IPS电容触摸技术资料\新建文件夹\CH582M\obj/../src/lcd_init.c:144
    LCD_WR_DATA8 (0xFF);
    2aa6:	0ff00513          	li	a0,255
    2aaa:	1ffff097          	auipc	ra,0x1ffff
    2aae:	ca2080e7          	jalr	-862(ra) # 2000174c <LCD_WR_DATA8>
c:\Users\ql\Desktop\工作\1.28IPS电容触摸技术资料\新建文件夹\CH582M\obj/../src/lcd_init.c:152
    /* 设置GS SS
     * 第一个参数为0,第二个参数有效
     * GS bit6 0:G1->G32 1:G32->G1
     * SS bit5 0:S1->S360 1:S360->S1
     */
    LCD_WR_REG (0xB6);  // 屏幕功能配置 扫描方向
    2ab2:	0b600513          	li	a0,182
    2ab6:	1ffff097          	auipc	ra,0x1ffff
    2aba:	d1c080e7          	jalr	-740(ra) # 200017d2 <LCD_WR_REG>
c:\Users\ql\Desktop\工作\1.28IPS电容触摸技术资料\新建文件夹\CH582M\obj/../src/lcd_init.c:153
    LCD_WR_DATA8 (0x00);
    2abe:	4501                	li	a0,0
    2ac0:	1ffff097          	auipc	ra,0x1ffff
    2ac4:	c8c080e7          	jalr	-884(ra) # 2000174c <LCD_WR_DATA8>
c:\Users\ql\Desktop\工作\1.28IPS电容触摸技术资料\新建文件夹\CH582M\obj/../src/lcd_init.c:154
    LCD_WR_DATA8 (0x20);
    2ac8:	02000513          	li	a0,32
    2acc:	1ffff097          	auipc	ra,0x1ffff
    2ad0:	c80080e7          	jalr	-896(ra) # 2000174c <LCD_WR_DATA8>
c:\Users\ql\Desktop\工作\1.28IPS电容触摸技术资料\新建文件夹\CH582M\obj/../src/lcd_init.c:164
     * 7     6    5       4           3      2           1  0
     * MY    MX   MV      ML          BGR    MH          0  0
     * Y反转 X反转 XY交换  垂直刷新方向 0-RGB  水平刷新方向
     *                                1-BGR
     */
    LCD_WR_REG (0x36);  // 内存扫描方向
    2ad4:	03600513          	li	a0,54
    2ad8:	1ffff097          	auipc	ra,0x1ffff
    2adc:	cfa080e7          	jalr	-774(ra) # 200017d2 <LCD_WR_REG>
c:\Users\ql\Desktop\工作\1.28IPS电容触摸技术资料\新建文件夹\CH582M\obj/../src/lcd_init.c:166
    if (USE_HORIZONTAL == 0)
        LCD_WR_DATA8 (0x08);
    2ae0:	4521                	li	a0,8
    2ae2:	1ffff097          	auipc	ra,0x1ffff
    2ae6:	c6a080e7          	jalr	-918(ra) # 2000174c <LCD_WR_DATA8>
c:\Users\ql\Desktop\工作\1.28IPS电容触摸技术资料\新建文件夹\CH582M\obj/../src/lcd_init.c:183
     *  RGB接口       MCU接口
     *  101 16位      011 12位
     *  110 18位      101 16位
     *                110 18位
     */
    LCD_WR_REG (0x3A);  // 颜色模式选择
    2aea:	03a00513          	li	a0,58
    2aee:	1ffff097          	auipc	ra,0x1ffff
    2af2:	ce4080e7          	jalr	-796(ra) # 200017d2 <LCD_WR_REG>
c:\Users\ql\Desktop\工作\1.28IPS电容触摸技术资料\新建文件夹\CH582M\obj/../src/lcd_init.c:184
    LCD_WR_DATA8 (0x55);
    2af6:	05500513          	li	a0,85
    2afa:	1ffff097          	auipc	ra,0x1ffff
    2afe:	c52080e7          	jalr	-942(ra) # 2000174c <LCD_WR_DATA8>
c:\Users\ql\Desktop\工作\1.28IPS电容触摸技术资料\新建文件夹\CH582M\obj/../src/lcd_init.c:187

    // 固定在此处
    LCD_WR_REG (0x90);
    2b02:	09000513          	li	a0,144
    2b06:	1ffff097          	auipc	ra,0x1ffff
    2b0a:	ccc080e7          	jalr	-820(ra) # 200017d2 <LCD_WR_REG>
c:\Users\ql\Desktop\工作\1.28IPS电容触摸技术资料\新建文件夹\CH582M\obj/../src/lcd_init.c:188
    LCD_WR_DATA8 (0x08);
    2b0e:	4521                	li	a0,8
    2b10:	1ffff097          	auipc	ra,0x1ffff
    2b14:	c3c080e7          	jalr	-964(ra) # 2000174c <LCD_WR_DATA8>
c:\Users\ql\Desktop\工作\1.28IPS电容触摸技术资料\新建文件夹\CH582M\obj/../src/lcd_init.c:189
    LCD_WR_DATA8 (0x08);
    2b18:	4521                	li	a0,8
    2b1a:	1ffff097          	auipc	ra,0x1ffff
    2b1e:	c32080e7          	jalr	-974(ra) # 2000174c <LCD_WR_DATA8>
c:\Users\ql\Desktop\工作\1.28IPS电容触摸技术资料\新建文件夹\CH582M\obj/../src/lcd_init.c:190
    LCD_WR_DATA8 (0x08);
    2b22:	4521                	li	a0,8
    2b24:	1ffff097          	auipc	ra,0x1ffff
    2b28:	c28080e7          	jalr	-984(ra) # 2000174c <LCD_WR_DATA8>
c:\Users\ql\Desktop\工作\1.28IPS电容触摸技术资料\新建文件夹\CH582M\obj/../src/lcd_init.c:191
    LCD_WR_DATA8 (0x08);
    2b2c:	4521                	li	a0,8
    2b2e:	1ffff097          	auipc	ra,0x1ffff
    2b32:	c1e080e7          	jalr	-994(ra) # 2000174c <LCD_WR_DATA8>
c:\Users\ql\Desktop\工作\1.28IPS电容触摸技术资料\新建文件夹\CH582M\obj/../src/lcd_init.c:192
    LCD_WR_REG (0xBD);
    2b36:	0bd00513          	li	a0,189
    2b3a:	1ffff097          	auipc	ra,0x1ffff
    2b3e:	c98080e7          	jalr	-872(ra) # 200017d2 <LCD_WR_REG>
c:\Users\ql\Desktop\工作\1.28IPS电容触摸技术资料\新建文件夹\CH582M\obj/../src/lcd_init.c:193
    LCD_WR_DATA8 (0x06);
    2b42:	4519                	li	a0,6
    2b44:	1ffff097          	auipc	ra,0x1ffff
    2b48:	c08080e7          	jalr	-1016(ra) # 2000174c <LCD_WR_DATA8>
c:\Users\ql\Desktop\工作\1.28IPS电容触摸技术资料\新建文件夹\CH582M\obj/../src/lcd_init.c:194
    LCD_WR_REG (0xBC);
    2b4c:	0bc00513          	li	a0,188
    2b50:	1ffff097          	auipc	ra,0x1ffff
    2b54:	c82080e7          	jalr	-894(ra) # 200017d2 <LCD_WR_REG>
c:\Users\ql\Desktop\工作\1.28IPS电容触摸技术资料\新建文件夹\CH582M\obj/../src/lcd_init.c:195
    LCD_WR_DATA8 (0x00);
    2b58:	4501                	li	a0,0
    2b5a:	1ffff097          	auipc	ra,0x1ffff
    2b5e:	bf2080e7          	jalr	-1038(ra) # 2000174c <LCD_WR_DATA8>
c:\Users\ql\Desktop\工作\1.28IPS电容触摸技术资料\新建文件夹\CH582M\obj/../src/lcd_init.c:196
    LCD_WR_REG (0xFF);
    2b62:	0ff00513          	li	a0,255
    2b66:	1ffff097          	auipc	ra,0x1ffff
    2b6a:	c6c080e7          	jalr	-916(ra) # 200017d2 <LCD_WR_REG>
c:\Users\ql\Desktop\工作\1.28IPS电容触摸技术资料\新建文件夹\CH582M\obj/../src/lcd_init.c:197
    LCD_WR_DATA8 (0x60);
    2b6e:	06000513          	li	a0,96
    2b72:	1ffff097          	auipc	ra,0x1ffff
    2b76:	bda080e7          	jalr	-1062(ra) # 2000174c <LCD_WR_DATA8>
c:\Users\ql\Desktop\工作\1.28IPS电容触摸技术资料\新建文件夹\CH582M\obj/../src/lcd_init.c:198
    LCD_WR_DATA8 (0x01);
    2b7a:	4505                	li	a0,1
    2b7c:	1ffff097          	auipc	ra,0x1ffff
    2b80:	bd0080e7          	jalr	-1072(ra) # 2000174c <LCD_WR_DATA8>
c:\Users\ql\Desktop\工作\1.28IPS电容触摸技术资料\新建文件夹\CH582M\obj/../src/lcd_init.c:199
    LCD_WR_DATA8 (0x04);
    2b84:	4511                	li	a0,4
    2b86:	1ffff097          	auipc	ra,0x1ffff
    2b8a:	bc6080e7          	jalr	-1082(ra) # 2000174c <LCD_WR_DATA8>
c:\Users\ql\Desktop\工作\1.28IPS电容触摸技术资料\新建文件夹\CH582M\obj/../src/lcd_init.c:202

    /* 电源控制 */
    LCD_WR_REG (0xC3);  // vbp
    2b8e:	0c300513          	li	a0,195
    2b92:	1ffff097          	auipc	ra,0x1ffff
    2b96:	c40080e7          	jalr	-960(ra) # 200017d2 <LCD_WR_REG>
c:\Users\ql\Desktop\工作\1.28IPS电容触摸技术资料\新建文件夹\CH582M\obj/../src/lcd_init.c:203
    LCD_WR_DATA8 (0x13);
    2b9a:	454d                	li	a0,19
    2b9c:	1ffff097          	auipc	ra,0x1ffff
    2ba0:	bb0080e7          	jalr	-1104(ra) # 2000174c <LCD_WR_DATA8>
c:\Users\ql\Desktop\工作\1.28IPS电容触摸技术资料\新建文件夹\CH582M\obj/../src/lcd_init.c:204
    LCD_WR_REG (0xC4);  // vbn
    2ba4:	0c400513          	li	a0,196
    2ba8:	1ffff097          	auipc	ra,0x1ffff
    2bac:	c2a080e7          	jalr	-982(ra) # 200017d2 <LCD_WR_REG>
c:\Users\ql\Desktop\工作\1.28IPS电容触摸技术资料\新建文件夹\CH582M\obj/../src/lcd_init.c:205
    LCD_WR_DATA8 (0x13);
    2bb0:	454d                	li	a0,19
    2bb2:	1ffff097          	auipc	ra,0x1ffff
    2bb6:	b9a080e7          	jalr	-1126(ra) # 2000174c <LCD_WR_DATA8>
c:\Users\ql\Desktop\工作\1.28IPS电容触摸技术资料\新建文件夹\CH582M\obj/../src/lcd_init.c:206
    LCD_WR_REG (0xC9);  // vrh
    2bba:	0c900513          	li	a0,201
    2bbe:	1ffff097          	auipc	ra,0x1ffff
    2bc2:	c14080e7          	jalr	-1004(ra) # 200017d2 <LCD_WR_REG>
c:\Users\ql\Desktop\工作\1.28IPS电容触摸技术资料\新建文件夹\CH582M\obj/../src/lcd_init.c:207
    LCD_WR_DATA8 (0x22);
    2bc6:	02200513          	li	a0,34
    2bca:	1ffff097          	auipc	ra,0x1ffff
    2bce:	b82080e7          	jalr	-1150(ra) # 2000174c <LCD_WR_DATA8>
c:\Users\ql\Desktop\工作\1.28IPS电容触摸技术资料\新建文件夹\CH582M\obj/../src/lcd_init.c:210

    // 固定在此处
    LCD_WR_REG (0xBE);
    2bd2:	0be00513          	li	a0,190
    2bd6:	1ffff097          	auipc	ra,0x1ffff
    2bda:	bfc080e7          	jalr	-1028(ra) # 200017d2 <LCD_WR_REG>
c:\Users\ql\Desktop\工作\1.28IPS电容触摸技术资料\新建文件夹\CH582M\obj/../src/lcd_init.c:211
    LCD_WR_DATA8 (0x11);
    2bde:	4545                	li	a0,17
    2be0:	1ffff097          	auipc	ra,0x1ffff
    2be4:	b6c080e7          	jalr	-1172(ra) # 2000174c <LCD_WR_DATA8>
c:\Users\ql\Desktop\工作\1.28IPS电容触摸技术资料\新建文件夹\CH582M\obj/../src/lcd_init.c:212
    LCD_WR_REG (0xE1);
    2be8:	0e100513          	li	a0,225
    2bec:	1ffff097          	auipc	ra,0x1ffff
    2bf0:	be6080e7          	jalr	-1050(ra) # 200017d2 <LCD_WR_REG>
c:\Users\ql\Desktop\工作\1.28IPS电容触摸技术资料\新建文件夹\CH582M\obj/../src/lcd_init.c:213
    LCD_WR_DATA8 (0x10);
    2bf4:	4541                	li	a0,16
    2bf6:	1ffff097          	auipc	ra,0x1ffff
    2bfa:	b56080e7          	jalr	-1194(ra) # 2000174c <LCD_WR_DATA8>
c:\Users\ql\Desktop\工作\1.28IPS电容触摸技术资料\新建文件夹\CH582M\obj/../src/lcd_init.c:214
    LCD_WR_DATA8 (0x0E);
    2bfe:	4539                	li	a0,14
    2c00:	1ffff097          	auipc	ra,0x1ffff
    2c04:	b4c080e7          	jalr	-1204(ra) # 2000174c <LCD_WR_DATA8>
c:\Users\ql\Desktop\工作\1.28IPS电容触摸技术资料\新建文件夹\CH582M\obj/../src/lcd_init.c:215
    LCD_WR_REG (0xDF);
    2c08:	0df00513          	li	a0,223
    2c0c:	1ffff097          	auipc	ra,0x1ffff
    2c10:	bc6080e7          	jalr	-1082(ra) # 200017d2 <LCD_WR_REG>
c:\Users\ql\Desktop\工作\1.28IPS电容触摸技术资料\新建文件夹\CH582M\obj/../src/lcd_init.c:216
    LCD_WR_DATA8 (0x21);
    2c14:	02100513          	li	a0,33
    2c18:	1ffff097          	auipc	ra,0x1ffff
    2c1c:	b34080e7          	jalr	-1228(ra) # 2000174c <LCD_WR_DATA8>
c:\Users\ql\Desktop\工作\1.28IPS电容触摸技术资料\新建文件夹\CH582M\obj/../src/lcd_init.c:217
    LCD_WR_DATA8 (0x0c);
    2c20:	4531                	li	a0,12
    2c22:	1ffff097          	auipc	ra,0x1ffff
    2c26:	b2a080e7          	jalr	-1238(ra) # 2000174c <LCD_WR_DATA8>
c:\Users\ql\Desktop\工作\1.28IPS电容触摸技术资料\新建文件夹\CH582M\obj/../src/lcd_init.c:218
    LCD_WR_DATA8 (0x02);
    2c2a:	4509                	li	a0,2
    2c2c:	1ffff097          	auipc	ra,0x1ffff
    2c30:	b20080e7          	jalr	-1248(ra) # 2000174c <LCD_WR_DATA8>
c:\Users\ql\Desktop\工作\1.28IPS电容触摸技术资料\新建文件夹\CH582M\obj/../src/lcd_init.c:222


    // 伽马设置 GAMMA1 2 3 4设置
    LCD_WR_REG (0xF0);//默认值 80 03 08 06 05 2B
    2c34:	0f000513          	li	a0,240
    2c38:	1ffff097          	auipc	ra,0x1ffff
    2c3c:	b9a080e7          	jalr	-1126(ra) # 200017d2 <LCD_WR_REG>
c:\Users\ql\Desktop\工作\1.28IPS电容触摸技术资料\新建文件夹\CH582M\obj/../src/lcd_init.c:223
    LCD_WR_DATA8 (0x45);
    2c40:	04500513          	li	a0,69
    2c44:	1ffff097          	auipc	ra,0x1ffff
    2c48:	b08080e7          	jalr	-1272(ra) # 2000174c <LCD_WR_DATA8>
c:\Users\ql\Desktop\工作\1.28IPS电容触摸技术资料\新建文件夹\CH582M\obj/../src/lcd_init.c:224
    LCD_WR_DATA8 (0x09);
    2c4c:	4525                	li	a0,9
    2c4e:	1ffff097          	auipc	ra,0x1ffff
    2c52:	afe080e7          	jalr	-1282(ra) # 2000174c <LCD_WR_DATA8>
c:\Users\ql\Desktop\工作\1.28IPS电容触摸技术资料\新建文件夹\CH582M\obj/../src/lcd_init.c:225
    LCD_WR_DATA8 (0x08);
    2c56:	4521                	li	a0,8
    2c58:	1ffff097          	auipc	ra,0x1ffff
    2c5c:	af4080e7          	jalr	-1292(ra) # 2000174c <LCD_WR_DATA8>
c:\Users\ql\Desktop\工作\1.28IPS电容触摸技术资料\新建文件夹\CH582M\obj/../src/lcd_init.c:226
    LCD_WR_DATA8 (0x08);
    2c60:	4521                	li	a0,8
    2c62:	1ffff097          	auipc	ra,0x1ffff
    2c66:	aea080e7          	jalr	-1302(ra) # 2000174c <LCD_WR_DATA8>
c:\Users\ql\Desktop\工作\1.28IPS电容触摸技术资料\新建文件夹\CH582M\obj/../src/lcd_init.c:227
    LCD_WR_DATA8 (0x26);
    2c6a:	02600513          	li	a0,38
    2c6e:	1ffff097          	auipc	ra,0x1ffff
    2c72:	ade080e7          	jalr	-1314(ra) # 2000174c <LCD_WR_DATA8>
c:\Users\ql\Desktop\工作\1.28IPS电容触摸技术资料\新建文件夹\CH582M\obj/../src/lcd_init.c:228
    LCD_WR_DATA8 (0x2A);
    2c76:	02a00513          	li	a0,42
    2c7a:	1ffff097          	auipc	ra,0x1ffff
    2c7e:	ad2080e7          	jalr	-1326(ra) # 2000174c <LCD_WR_DATA8>
c:\Users\ql\Desktop\工作\1.28IPS电容触摸技术资料\新建文件夹\CH582M\obj/../src/lcd_init.c:230

    LCD_WR_REG (0xF1);//默认值 41 97 98 13 17 CD
    2c82:	0f100513          	li	a0,241
    2c86:	1ffff097          	auipc	ra,0x1ffff
    2c8a:	b4c080e7          	jalr	-1204(ra) # 200017d2 <LCD_WR_REG>
c:\Users\ql\Desktop\工作\1.28IPS电容触摸技术资料\新建文件夹\CH582M\obj/../src/lcd_init.c:231
    LCD_WR_DATA8 (0x43);
    2c8e:	04300513          	li	a0,67
    2c92:	1ffff097          	auipc	ra,0x1ffff
    2c96:	aba080e7          	jalr	-1350(ra) # 2000174c <LCD_WR_DATA8>
c:\Users\ql\Desktop\工作\1.28IPS电容触摸技术资料\新建文件夹\CH582M\obj/../src/lcd_init.c:232
    LCD_WR_DATA8 (0x70);
    2c9a:	07000513          	li	a0,112
    2c9e:	1ffff097          	auipc	ra,0x1ffff
    2ca2:	aae080e7          	jalr	-1362(ra) # 2000174c <LCD_WR_DATA8>
c:\Users\ql\Desktop\工作\1.28IPS电容触摸技术资料\新建文件夹\CH582M\obj/../src/lcd_init.c:233
    LCD_WR_DATA8 (0x72);
    2ca6:	07200513          	li	a0,114
    2caa:	1ffff097          	auipc	ra,0x1ffff
    2cae:	aa2080e7          	jalr	-1374(ra) # 2000174c <LCD_WR_DATA8>
c:\Users\ql\Desktop\工作\1.28IPS电容触摸技术资料\新建文件夹\CH582M\obj/../src/lcd_init.c:234
    LCD_WR_DATA8 (0x36);
    2cb2:	03600513          	li	a0,54
    2cb6:	1ffff097          	auipc	ra,0x1ffff
    2cba:	a96080e7          	jalr	-1386(ra) # 2000174c <LCD_WR_DATA8>
c:\Users\ql\Desktop\工作\1.28IPS电容触摸技术资料\新建文件夹\CH582M\obj/../src/lcd_init.c:235
    LCD_WR_DATA8 (0x37);
    2cbe:	03700513          	li	a0,55
    2cc2:	1ffff097          	auipc	ra,0x1ffff
    2cc6:	a8a080e7          	jalr	-1398(ra) # 2000174c <LCD_WR_DATA8>
c:\Users\ql\Desktop\工作\1.28IPS电容触摸技术资料\新建文件夹\CH582M\obj/../src/lcd_init.c:236
    LCD_WR_DATA8 (0x6F);
    2cca:	06f00513          	li	a0,111
    2cce:	1ffff097          	auipc	ra,0x1ffff
    2cd2:	a7e080e7          	jalr	-1410(ra) # 2000174c <LCD_WR_DATA8>
c:\Users\ql\Desktop\工作\1.28IPS电容触摸技术资料\新建文件夹\CH582M\obj/../src/lcd_init.c:239


    LCD_WR_REG (0xF2);//默认值 40 03 08 0B 08 2E
    2cd6:	0f200513          	li	a0,242
    2cda:	1ffff097          	auipc	ra,0x1ffff
    2cde:	af8080e7          	jalr	-1288(ra) # 200017d2 <LCD_WR_REG>
c:\Users\ql\Desktop\工作\1.28IPS电容触摸技术资料\新建文件夹\CH582M\obj/../src/lcd_init.c:240
    LCD_WR_DATA8 (0x45);
    2ce2:	04500513          	li	a0,69
    2ce6:	1ffff097          	auipc	ra,0x1ffff
    2cea:	a66080e7          	jalr	-1434(ra) # 2000174c <LCD_WR_DATA8>
c:\Users\ql\Desktop\工作\1.28IPS电容触摸技术资料\新建文件夹\CH582M\obj/../src/lcd_init.c:241
    LCD_WR_DATA8 (0x09);
    2cee:	4525                	li	a0,9
    2cf0:	1ffff097          	auipc	ra,0x1ffff
    2cf4:	a5c080e7          	jalr	-1444(ra) # 2000174c <LCD_WR_DATA8>
c:\Users\ql\Desktop\工作\1.28IPS电容触摸技术资料\新建文件夹\CH582M\obj/../src/lcd_init.c:242
    LCD_WR_DATA8 (0x08);
    2cf8:	4521                	li	a0,8
    2cfa:	1ffff097          	auipc	ra,0x1ffff
    2cfe:	a52080e7          	jalr	-1454(ra) # 2000174c <LCD_WR_DATA8>
c:\Users\ql\Desktop\工作\1.28IPS电容触摸技术资料\新建文件夹\CH582M\obj/../src/lcd_init.c:243
    LCD_WR_DATA8 (0x08);
    2d02:	4521                	li	a0,8
    2d04:	1ffff097          	auipc	ra,0x1ffff
    2d08:	a48080e7          	jalr	-1464(ra) # 2000174c <LCD_WR_DATA8>
c:\Users\ql\Desktop\工作\1.28IPS电容触摸技术资料\新建文件夹\CH582M\obj/../src/lcd_init.c:244
    LCD_WR_DATA8 (0x26);
    2d0c:	02600513          	li	a0,38
    2d10:	1ffff097          	auipc	ra,0x1ffff
    2d14:	a3c080e7          	jalr	-1476(ra) # 2000174c <LCD_WR_DATA8>
c:\Users\ql\Desktop\工作\1.28IPS电容触摸技术资料\新建文件夹\CH582M\obj/../src/lcd_init.c:245
    LCD_WR_DATA8 (0x2A);
    2d18:	02a00513          	li	a0,42
    2d1c:	1ffff097          	auipc	ra,0x1ffff
    2d20:	a30080e7          	jalr	-1488(ra) # 2000174c <LCD_WR_DATA8>
c:\Users\ql\Desktop\工作\1.28IPS电容触摸技术资料\新建文件夹\CH582M\obj/../src/lcd_init.c:247

    LCD_WR_REG (0xF3);//默认值 3F 98 B4 14 18 CD
    2d24:	0f300513          	li	a0,243
    2d28:	1ffff097          	auipc	ra,0x1ffff
    2d2c:	aaa080e7          	jalr	-1366(ra) # 200017d2 <LCD_WR_REG>
c:\Users\ql\Desktop\工作\1.28IPS电容触摸技术资料\新建文件夹\CH582M\obj/../src/lcd_init.c:248
    LCD_WR_DATA8 (0x43);
    2d30:	04300513          	li	a0,67
    2d34:	1ffff097          	auipc	ra,0x1ffff
    2d38:	a18080e7          	jalr	-1512(ra) # 2000174c <LCD_WR_DATA8>
c:\Users\ql\Desktop\工作\1.28IPS电容触摸技术资料\新建文件夹\CH582M\obj/../src/lcd_init.c:249
    LCD_WR_DATA8 (0x70);
    2d3c:	07000513          	li	a0,112
    2d40:	1ffff097          	auipc	ra,0x1ffff
    2d44:	a0c080e7          	jalr	-1524(ra) # 2000174c <LCD_WR_DATA8>
c:\Users\ql\Desktop\工作\1.28IPS电容触摸技术资料\新建文件夹\CH582M\obj/../src/lcd_init.c:250
    LCD_WR_DATA8 (0x72);
    2d48:	07200513          	li	a0,114
    2d4c:	1ffff097          	auipc	ra,0x1ffff
    2d50:	a00080e7          	jalr	-1536(ra) # 2000174c <LCD_WR_DATA8>
c:\Users\ql\Desktop\工作\1.28IPS电容触摸技术资料\新建文件夹\CH582M\obj/../src/lcd_init.c:251
    LCD_WR_DATA8 (0x36);
    2d54:	03600513          	li	a0,54
    2d58:	1ffff097          	auipc	ra,0x1ffff
    2d5c:	9f4080e7          	jalr	-1548(ra) # 2000174c <LCD_WR_DATA8>
c:\Users\ql\Desktop\工作\1.28IPS电容触摸技术资料\新建文件夹\CH582M\obj/../src/lcd_init.c:252
    LCD_WR_DATA8 (0x37);
    2d60:	03700513          	li	a0,55
    2d64:	1ffff097          	auipc	ra,0x1ffff
    2d68:	9e8080e7          	jalr	-1560(ra) # 2000174c <LCD_WR_DATA8>
c:\Users\ql\Desktop\工作\1.28IPS电容触摸技术资料\新建文件夹\CH582M\obj/../src/lcd_init.c:253
    LCD_WR_DATA8 (0x6F);
    2d6c:	06f00513          	li	a0,111
    2d70:	1ffff097          	auipc	ra,0x1ffff
    2d74:	9dc080e7          	jalr	-1572(ra) # 2000174c <LCD_WR_DATA8>
c:\Users\ql\Desktop\工作\1.28IPS电容触摸技术资料\新建文件夹\CH582M\obj/../src/lcd_init.c:256

    // 固定在此处
    LCD_WR_REG (0xED);
    2d78:	0ed00513          	li	a0,237
    2d7c:	1ffff097          	auipc	ra,0x1ffff
    2d80:	a56080e7          	jalr	-1450(ra) # 200017d2 <LCD_WR_REG>
c:\Users\ql\Desktop\工作\1.28IPS电容触摸技术资料\新建文件夹\CH582M\obj/../src/lcd_init.c:257
    LCD_WR_DATA8 (0x1B);
    2d84:	456d                	li	a0,27
    2d86:	1ffff097          	auipc	ra,0x1ffff
    2d8a:	9c6080e7          	jalr	-1594(ra) # 2000174c <LCD_WR_DATA8>
c:\Users\ql\Desktop\工作\1.28IPS电容触摸技术资料\新建文件夹\CH582M\obj/../src/lcd_init.c:258
    LCD_WR_DATA8 (0x0B);
    2d8e:	452d                	li	a0,11
    2d90:	1ffff097          	auipc	ra,0x1ffff
    2d94:	9bc080e7          	jalr	-1604(ra) # 2000174c <LCD_WR_DATA8>
c:\Users\ql\Desktop\工作\1.28IPS电容触摸技术资料\新建文件夹\CH582M\obj/../src/lcd_init.c:260

    LCD_WR_REG (0xAE);
    2d98:	0ae00513          	li	a0,174
    2d9c:	1ffff097          	auipc	ra,0x1ffff
    2da0:	a36080e7          	jalr	-1482(ra) # 200017d2 <LCD_WR_REG>
c:\Users\ql\Desktop\工作\1.28IPS电容触摸技术资料\新建文件夹\CH582M\obj/../src/lcd_init.c:261
    LCD_WR_DATA8 (0x77);
    2da4:	07700513          	li	a0,119
    2da8:	1ffff097          	auipc	ra,0x1ffff
    2dac:	9a4080e7          	jalr	-1628(ra) # 2000174c <LCD_WR_DATA8>
c:\Users\ql\Desktop\工作\1.28IPS电容触摸技术资料\新建文件夹\CH582M\obj/../src/lcd_init.c:263

    LCD_WR_REG (0xCD);
    2db0:	0cd00513          	li	a0,205
    2db4:	1ffff097          	auipc	ra,0x1ffff
    2db8:	a1e080e7          	jalr	-1506(ra) # 200017d2 <LCD_WR_REG>
c:\Users\ql\Desktop\工作\1.28IPS电容触摸技术资料\新建文件夹\CH582M\obj/../src/lcd_init.c:264
    LCD_WR_DATA8 (0x63);
    2dbc:	06300513          	li	a0,99
    2dc0:	1ffff097          	auipc	ra,0x1ffff
    2dc4:	98c080e7          	jalr	-1652(ra) # 2000174c <LCD_WR_DATA8>
c:\Users\ql\Desktop\工作\1.28IPS电容触摸技术资料\新建文件夹\CH582M\obj/../src/lcd_init.c:266

    LCD_WR_REG (0x70);
    2dc8:	07000513          	li	a0,112
    2dcc:	1ffff097          	auipc	ra,0x1ffff
    2dd0:	a06080e7          	jalr	-1530(ra) # 200017d2 <LCD_WR_REG>
c:\Users\ql\Desktop\工作\1.28IPS电容触摸技术资料\新建文件夹\CH582M\obj/../src/lcd_init.c:267
    LCD_WR_DATA8 (0x07);
    2dd4:	451d                	li	a0,7
    2dd6:	1ffff097          	auipc	ra,0x1ffff
    2dda:	976080e7          	jalr	-1674(ra) # 2000174c <LCD_WR_DATA8>
c:\Users\ql\Desktop\工作\1.28IPS电容触摸技术资料\新建文件夹\CH582M\obj/../src/lcd_init.c:268
    LCD_WR_DATA8 (0x07);
    2dde:	451d                	li	a0,7
    2de0:	1ffff097          	auipc	ra,0x1ffff
    2de4:	96c080e7          	jalr	-1684(ra) # 2000174c <LCD_WR_DATA8>
c:\Users\ql\Desktop\工作\1.28IPS电容触摸技术资料\新建文件夹\CH582M\obj/../src/lcd_init.c:269
    LCD_WR_DATA8 (0x04);
    2de8:	4511                	li	a0,4
    2dea:	1ffff097          	auipc	ra,0x1ffff
    2dee:	962080e7          	jalr	-1694(ra) # 2000174c <LCD_WR_DATA8>
c:\Users\ql\Desktop\工作\1.28IPS电容触摸技术资料\新建文件夹\CH582M\obj/../src/lcd_init.c:270
    LCD_WR_DATA8 (0x0E);
    2df2:	4539                	li	a0,14
    2df4:	1ffff097          	auipc	ra,0x1ffff
    2df8:	958080e7          	jalr	-1704(ra) # 2000174c <LCD_WR_DATA8>
c:\Users\ql\Desktop\工作\1.28IPS电容触摸技术资料\新建文件夹\CH582M\obj/../src/lcd_init.c:271
    LCD_WR_DATA8 (0x0F);
    2dfc:	453d                	li	a0,15
    2dfe:	1ffff097          	auipc	ra,0x1ffff
    2e02:	94e080e7          	jalr	-1714(ra) # 2000174c <LCD_WR_DATA8>
c:\Users\ql\Desktop\工作\1.28IPS电容触摸技术资料\新建文件夹\CH582M\obj/../src/lcd_init.c:272
    LCD_WR_DATA8 (0x09);
    2e06:	4525                	li	a0,9
    2e08:	1ffff097          	auipc	ra,0x1ffff
    2e0c:	944080e7          	jalr	-1724(ra) # 2000174c <LCD_WR_DATA8>
c:\Users\ql\Desktop\工作\1.28IPS电容触摸技术资料\新建文件夹\CH582M\obj/../src/lcd_init.c:273
    LCD_WR_DATA8 (0x07);
    2e10:	451d                	li	a0,7
    2e12:	1ffff097          	auipc	ra,0x1ffff
    2e16:	93a080e7          	jalr	-1734(ra) # 2000174c <LCD_WR_DATA8>
c:\Users\ql\Desktop\工作\1.28IPS电容触摸技术资料\新建文件夹\CH582M\obj/../src/lcd_init.c:274
    LCD_WR_DATA8 (0x08);
    2e1a:	4521                	li	a0,8
    2e1c:	1ffff097          	auipc	ra,0x1ffff
    2e20:	930080e7          	jalr	-1744(ra) # 2000174c <LCD_WR_DATA8>
c:\Users\ql\Desktop\工作\1.28IPS电容触摸技术资料\新建文件夹\CH582M\obj/../src/lcd_init.c:275
    LCD_WR_DATA8 (0x03);
    2e24:	450d                	li	a0,3
    2e26:	1ffff097          	auipc	ra,0x1ffff
    2e2a:	926080e7          	jalr	-1754(ra) # 2000174c <LCD_WR_DATA8>
c:\Users\ql\Desktop\工作\1.28IPS电容触摸技术资料\新建文件夹\CH582M\obj/../src/lcd_init.c:277

    LCD_WR_REG (0xEB);  // 帧率设置
    2e2e:	0eb00513          	li	a0,235
    2e32:	1ffff097          	auipc	ra,0x1ffff
    2e36:	9a0080e7          	jalr	-1632(ra) # 200017d2 <LCD_WR_REG>
c:\Users\ql\Desktop\工作\1.28IPS电容触摸技术资料\新建文件夹\CH582M\obj/../src/lcd_init.c:278
    LCD_WR_DATA8 (0x14);
    2e3a:	4551                	li	a0,20
    2e3c:	1ffff097          	auipc	ra,0x1ffff
    2e40:	910080e7          	jalr	-1776(ra) # 2000174c <LCD_WR_DATA8>
c:\Users\ql\Desktop\工作\1.28IPS电容触摸技术资料\新建文件夹\CH582M\obj/../src/lcd_init.c:281


    LCD_WR_REG (0x62);
    2e44:	06200513          	li	a0,98
    2e48:	1ffff097          	auipc	ra,0x1ffff
    2e4c:	98a080e7          	jalr	-1654(ra) # 200017d2 <LCD_WR_REG>
c:\Users\ql\Desktop\工作\1.28IPS电容触摸技术资料\新建文件夹\CH582M\obj/../src/lcd_init.c:282
    LCD_WR_DATA8 (0x18);
    2e50:	4561                	li	a0,24
    2e52:	1ffff097          	auipc	ra,0x1ffff
    2e56:	8fa080e7          	jalr	-1798(ra) # 2000174c <LCD_WR_DATA8>
c:\Users\ql\Desktop\工作\1.28IPS电容触摸技术资料\新建文件夹\CH582M\obj/../src/lcd_init.c:283
    LCD_WR_DATA8 (0x0D);
    2e5a:	4535                	li	a0,13
    2e5c:	1ffff097          	auipc	ra,0x1ffff
    2e60:	8f0080e7          	jalr	-1808(ra) # 2000174c <LCD_WR_DATA8>
c:\Users\ql\Desktop\工作\1.28IPS电容触摸技术资料\新建文件夹\CH582M\obj/../src/lcd_init.c:284
    LCD_WR_DATA8 (0x71);
    2e64:	07100513          	li	a0,113
    2e68:	1ffff097          	auipc	ra,0x1ffff
    2e6c:	8e4080e7          	jalr	-1820(ra) # 2000174c <LCD_WR_DATA8>
c:\Users\ql\Desktop\工作\1.28IPS电容触摸技术资料\新建文件夹\CH582M\obj/../src/lcd_init.c:285
    LCD_WR_DATA8 (0xED);
    2e70:	0ed00513          	li	a0,237
    2e74:	1ffff097          	auipc	ra,0x1ffff
    2e78:	8d8080e7          	jalr	-1832(ra) # 2000174c <LCD_WR_DATA8>
c:\Users\ql\Desktop\工作\1.28IPS电容触摸技术资料\新建文件夹\CH582M\obj/../src/lcd_init.c:286
    LCD_WR_DATA8 (0x70);
    2e7c:	07000513          	li	a0,112
    2e80:	1ffff097          	auipc	ra,0x1ffff
    2e84:	8cc080e7          	jalr	-1844(ra) # 2000174c <LCD_WR_DATA8>
c:\Users\ql\Desktop\工作\1.28IPS电容触摸技术资料\新建文件夹\CH582M\obj/../src/lcd_init.c:287
    LCD_WR_DATA8 (0x70);
    2e88:	07000513          	li	a0,112
    2e8c:	1ffff097          	auipc	ra,0x1ffff
    2e90:	8c0080e7          	jalr	-1856(ra) # 2000174c <LCD_WR_DATA8>
c:\Users\ql\Desktop\工作\1.28IPS电容触摸技术资料\新建文件夹\CH582M\obj/../src/lcd_init.c:288
    LCD_WR_DATA8 (0x18);
    2e94:	4561                	li	a0,24
    2e96:	1ffff097          	auipc	ra,0x1ffff
    2e9a:	8b6080e7          	jalr	-1866(ra) # 2000174c <LCD_WR_DATA8>
c:\Users\ql\Desktop\工作\1.28IPS电容触摸技术资料\新建文件夹\CH582M\obj/../src/lcd_init.c:289
    LCD_WR_DATA8 (0x0F);
    2e9e:	453d                	li	a0,15
    2ea0:	1ffff097          	auipc	ra,0x1ffff
    2ea4:	8ac080e7          	jalr	-1876(ra) # 2000174c <LCD_WR_DATA8>
c:\Users\ql\Desktop\工作\1.28IPS电容触摸技术资料\新建文件夹\CH582M\obj/../src/lcd_init.c:290
    LCD_WR_DATA8 (0x71);
    2ea8:	07100513          	li	a0,113
    2eac:	1ffff097          	auipc	ra,0x1ffff
    2eb0:	8a0080e7          	jalr	-1888(ra) # 2000174c <LCD_WR_DATA8>
c:\Users\ql\Desktop\工作\1.28IPS电容触摸技术资料\新建文件夹\CH582M\obj/../src/lcd_init.c:291
    LCD_WR_DATA8 (0xEF);
    2eb4:	0ef00513          	li	a0,239
    2eb8:	1ffff097          	auipc	ra,0x1ffff
    2ebc:	894080e7          	jalr	-1900(ra) # 2000174c <LCD_WR_DATA8>
c:\Users\ql\Desktop\工作\1.28IPS电容触摸技术资料\新建文件夹\CH582M\obj/../src/lcd_init.c:292
    LCD_WR_DATA8 (0x70);
    2ec0:	07000513          	li	a0,112
    2ec4:	1ffff097          	auipc	ra,0x1ffff
    2ec8:	888080e7          	jalr	-1912(ra) # 2000174c <LCD_WR_DATA8>
c:\Users\ql\Desktop\工作\1.28IPS电容触摸技术资料\新建文件夹\CH582M\obj/../src/lcd_init.c:293
    LCD_WR_DATA8 (0x70);
    2ecc:	07000513          	li	a0,112
    2ed0:	1ffff097          	auipc	ra,0x1ffff
    2ed4:	87c080e7          	jalr	-1924(ra) # 2000174c <LCD_WR_DATA8>
c:\Users\ql\Desktop\工作\1.28IPS电容触摸技术资料\新建文件夹\CH582M\obj/../src/lcd_init.c:295

    LCD_WR_REG (0x63);
    2ed8:	06300513          	li	a0,99
    2edc:	1ffff097          	auipc	ra,0x1ffff
    2ee0:	8f6080e7          	jalr	-1802(ra) # 200017d2 <LCD_WR_REG>
c:\Users\ql\Desktop\工作\1.28IPS电容触摸技术资料\新建文件夹\CH582M\obj/../src/lcd_init.c:296
    LCD_WR_DATA8 (0x18);
    2ee4:	4561                	li	a0,24
    2ee6:	1ffff097          	auipc	ra,0x1ffff
    2eea:	866080e7          	jalr	-1946(ra) # 2000174c <LCD_WR_DATA8>
c:\Users\ql\Desktop\工作\1.28IPS电容触摸技术资料\新建文件夹\CH582M\obj/../src/lcd_init.c:297
    LCD_WR_DATA8 (0x11);
    2eee:	4545                	li	a0,17
    2ef0:	1ffff097          	auipc	ra,0x1ffff
    2ef4:	85c080e7          	jalr	-1956(ra) # 2000174c <LCD_WR_DATA8>
c:\Users\ql\Desktop\工作\1.28IPS电容触摸技术资料\新建文件夹\CH582M\obj/../src/lcd_init.c:298
    LCD_WR_DATA8 (0x71);
    2ef8:	07100513          	li	a0,113
    2efc:	1ffff097          	auipc	ra,0x1ffff
    2f00:	850080e7          	jalr	-1968(ra) # 2000174c <LCD_WR_DATA8>
c:\Users\ql\Desktop\工作\1.28IPS电容触摸技术资料\新建文件夹\CH582M\obj/../src/lcd_init.c:299
    LCD_WR_DATA8 (0xF1);
    2f04:	0f100513          	li	a0,241
    2f08:	1ffff097          	auipc	ra,0x1ffff
    2f0c:	844080e7          	jalr	-1980(ra) # 2000174c <LCD_WR_DATA8>
c:\Users\ql\Desktop\工作\1.28IPS电容触摸技术资料\新建文件夹\CH582M\obj/../src/lcd_init.c:300
    LCD_WR_DATA8 (0x70);
    2f10:	07000513          	li	a0,112
    2f14:	1ffff097          	auipc	ra,0x1ffff
    2f18:	838080e7          	jalr	-1992(ra) # 2000174c <LCD_WR_DATA8>
c:\Users\ql\Desktop\工作\1.28IPS电容触摸技术资料\新建文件夹\CH582M\obj/../src/lcd_init.c:301
    LCD_WR_DATA8 (0x70);
    2f1c:	07000513          	li	a0,112
    2f20:	1ffff097          	auipc	ra,0x1ffff
    2f24:	82c080e7          	jalr	-2004(ra) # 2000174c <LCD_WR_DATA8>
c:\Users\ql\Desktop\工作\1.28IPS电容触摸技术资料\新建文件夹\CH582M\obj/../src/lcd_init.c:302
    LCD_WR_DATA8 (0x18);
    2f28:	4561                	li	a0,24
    2f2a:	1ffff097          	auipc	ra,0x1ffff
    2f2e:	822080e7          	jalr	-2014(ra) # 2000174c <LCD_WR_DATA8>
c:\Users\ql\Desktop\工作\1.28IPS电容触摸技术资料\新建文件夹\CH582M\obj/../src/lcd_init.c:303
    LCD_WR_DATA8 (0x13);
    2f32:	454d                	li	a0,19
    2f34:	1ffff097          	auipc	ra,0x1ffff
    2f38:	818080e7          	jalr	-2024(ra) # 2000174c <LCD_WR_DATA8>
c:\Users\ql\Desktop\工作\1.28IPS电容触摸技术资料\新建文件夹\CH582M\obj/../src/lcd_init.c:304
    LCD_WR_DATA8 (0x71);
    2f3c:	07100513          	li	a0,113
    2f40:	1ffff097          	auipc	ra,0x1ffff
    2f44:	80c080e7          	jalr	-2036(ra) # 2000174c <LCD_WR_DATA8>
c:\Users\ql\Desktop\工作\1.28IPS电容触摸技术资料\新建文件夹\CH582M\obj/../src/lcd_init.c:305
    LCD_WR_DATA8 (0xF3);
    2f48:	0f300513          	li	a0,243
    2f4c:	1ffff097          	auipc	ra,0x1ffff
    2f50:	800080e7          	jalr	-2048(ra) # 2000174c <LCD_WR_DATA8>
c:\Users\ql\Desktop\工作\1.28IPS电容触摸技术资料\新建文件夹\CH582M\obj/../src/lcd_init.c:306
    LCD_WR_DATA8 (0x70);
    2f54:	07000513          	li	a0,112
    2f58:	1fffe097          	auipc	ra,0x1fffe
    2f5c:	7f4080e7          	jalr	2036(ra) # 2000174c <LCD_WR_DATA8>
c:\Users\ql\Desktop\工作\1.28IPS电容触摸技术资料\新建文件夹\CH582M\obj/../src/lcd_init.c:307
    LCD_WR_DATA8 (0x70);
    2f60:	07000513          	li	a0,112
    2f64:	1fffe097          	auipc	ra,0x1fffe
    2f68:	7e8080e7          	jalr	2024(ra) # 2000174c <LCD_WR_DATA8>
c:\Users\ql\Desktop\工作\1.28IPS电容触摸技术资料\新建文件夹\CH582M\obj/../src/lcd_init.c:309

    LCD_WR_REG (0x64);
    2f6c:	06400513          	li	a0,100
    2f70:	1ffff097          	auipc	ra,0x1ffff
    2f74:	862080e7          	jalr	-1950(ra) # 200017d2 <LCD_WR_REG>
c:\Users\ql\Desktop\工作\1.28IPS电容触摸技术资料\新建文件夹\CH582M\obj/../src/lcd_init.c:310
    LCD_WR_DATA8 (0x28);
    2f78:	02800513          	li	a0,40
    2f7c:	1fffe097          	auipc	ra,0x1fffe
    2f80:	7d0080e7          	jalr	2000(ra) # 2000174c <LCD_WR_DATA8>
c:\Users\ql\Desktop\工作\1.28IPS电容触摸技术资料\新建文件夹\CH582M\obj/../src/lcd_init.c:311
    LCD_WR_DATA8 (0x29);
    2f84:	02900513          	li	a0,41
    2f88:	1fffe097          	auipc	ra,0x1fffe
    2f8c:	7c4080e7          	jalr	1988(ra) # 2000174c <LCD_WR_DATA8>
c:\Users\ql\Desktop\工作\1.28IPS电容触摸技术资料\新建文件夹\CH582M\obj/../src/lcd_init.c:312
    LCD_WR_DATA8 (0xF1);
    2f90:	0f100513          	li	a0,241
    2f94:	1fffe097          	auipc	ra,0x1fffe
    2f98:	7b8080e7          	jalr	1976(ra) # 2000174c <LCD_WR_DATA8>
c:\Users\ql\Desktop\工作\1.28IPS电容触摸技术资料\新建文件夹\CH582M\obj/../src/lcd_init.c:313
    LCD_WR_DATA8 (0x01);
    2f9c:	4505                	li	a0,1
    2f9e:	1fffe097          	auipc	ra,0x1fffe
    2fa2:	7ae080e7          	jalr	1966(ra) # 2000174c <LCD_WR_DATA8>
c:\Users\ql\Desktop\工作\1.28IPS电容触摸技术资料\新建文件夹\CH582M\obj/../src/lcd_init.c:314
    LCD_WR_DATA8 (0xF1);
    2fa6:	0f100513          	li	a0,241
    2faa:	1fffe097          	auipc	ra,0x1fffe
    2fae:	7a2080e7          	jalr	1954(ra) # 2000174c <LCD_WR_DATA8>
c:\Users\ql\Desktop\工作\1.28IPS电容触摸技术资料\新建文件夹\CH582M\obj/../src/lcd_init.c:315
    LCD_WR_DATA8 (0x00);
    2fb2:	4501                	li	a0,0
    2fb4:	1fffe097          	auipc	ra,0x1fffe
    2fb8:	798080e7          	jalr	1944(ra) # 2000174c <LCD_WR_DATA8>
c:\Users\ql\Desktop\工作\1.28IPS电容触摸技术资料\新建文件夹\CH582M\obj/../src/lcd_init.c:316
    LCD_WR_DATA8 (0x07);
    2fbc:	451d                	li	a0,7
    2fbe:	1fffe097          	auipc	ra,0x1fffe
    2fc2:	78e080e7          	jalr	1934(ra) # 2000174c <LCD_WR_DATA8>
c:\Users\ql\Desktop\工作\1.28IPS电容触摸技术资料\新建文件夹\CH582M\obj/../src/lcd_init.c:318

    LCD_WR_REG (0x66);
    2fc6:	06600513          	li	a0,102
    2fca:	1ffff097          	auipc	ra,0x1ffff
    2fce:	808080e7          	jalr	-2040(ra) # 200017d2 <LCD_WR_REG>
c:\Users\ql\Desktop\工作\1.28IPS电容触摸技术资料\新建文件夹\CH582M\obj/../src/lcd_init.c:319
    LCD_WR_DATA8 (0x3C);
    2fd2:	03c00513          	li	a0,60
    2fd6:	1fffe097          	auipc	ra,0x1fffe
    2fda:	776080e7          	jalr	1910(ra) # 2000174c <LCD_WR_DATA8>
c:\Users\ql\Desktop\工作\1.28IPS电容触摸技术资料\新建文件夹\CH582M\obj/../src/lcd_init.c:320
    LCD_WR_DATA8 (0x00);
    2fde:	4501                	li	a0,0
    2fe0:	1fffe097          	auipc	ra,0x1fffe
    2fe4:	76c080e7          	jalr	1900(ra) # 2000174c <LCD_WR_DATA8>
c:\Users\ql\Desktop\工作\1.28IPS电容触摸技术资料\新建文件夹\CH582M\obj/../src/lcd_init.c:321
    LCD_WR_DATA8 (0xCD);
    2fe8:	0cd00513          	li	a0,205
    2fec:	1fffe097          	auipc	ra,0x1fffe
    2ff0:	760080e7          	jalr	1888(ra) # 2000174c <LCD_WR_DATA8>
c:\Users\ql\Desktop\工作\1.28IPS电容触摸技术资料\新建文件夹\CH582M\obj/../src/lcd_init.c:322
    LCD_WR_DATA8 (0x67);
    2ff4:	06700513          	li	a0,103
    2ff8:	1fffe097          	auipc	ra,0x1fffe
    2ffc:	754080e7          	jalr	1876(ra) # 2000174c <LCD_WR_DATA8>
c:\Users\ql\Desktop\工作\1.28IPS电容触摸技术资料\新建文件夹\CH582M\obj/../src/lcd_init.c:323
    LCD_WR_DATA8 (0x45);
    3000:	04500513          	li	a0,69
    3004:	1fffe097          	auipc	ra,0x1fffe
    3008:	748080e7          	jalr	1864(ra) # 2000174c <LCD_WR_DATA8>
c:\Users\ql\Desktop\工作\1.28IPS电容触摸技术资料\新建文件夹\CH582M\obj/../src/lcd_init.c:324
    LCD_WR_DATA8 (0x45);
    300c:	04500513          	li	a0,69
    3010:	1fffe097          	auipc	ra,0x1fffe
    3014:	73c080e7          	jalr	1852(ra) # 2000174c <LCD_WR_DATA8>
c:\Users\ql\Desktop\工作\1.28IPS电容触摸技术资料\新建文件夹\CH582M\obj/../src/lcd_init.c:325
    LCD_WR_DATA8 (0x10);
    3018:	4541                	li	a0,16
    301a:	1fffe097          	auipc	ra,0x1fffe
    301e:	732080e7          	jalr	1842(ra) # 2000174c <LCD_WR_DATA8>
c:\Users\ql\Desktop\工作\1.28IPS电容触摸技术资料\新建文件夹\CH582M\obj/../src/lcd_init.c:326
    LCD_WR_DATA8 (0x00);
    3022:	4501                	li	a0,0
    3024:	1fffe097          	auipc	ra,0x1fffe
    3028:	728080e7          	jalr	1832(ra) # 2000174c <LCD_WR_DATA8>
c:\Users\ql\Desktop\工作\1.28IPS电容触摸技术资料\新建文件夹\CH582M\obj/../src/lcd_init.c:327
    LCD_WR_DATA8 (0x00);
    302c:	4501                	li	a0,0
    302e:	1fffe097          	auipc	ra,0x1fffe
    3032:	71e080e7          	jalr	1822(ra) # 2000174c <LCD_WR_DATA8>
c:\Users\ql\Desktop\工作\1.28IPS电容触摸技术资料\新建文件夹\CH582M\obj/../src/lcd_init.c:328
    LCD_WR_DATA8 (0x00);
    3036:	4501                	li	a0,0
    3038:	1fffe097          	auipc	ra,0x1fffe
    303c:	714080e7          	jalr	1812(ra) # 2000174c <LCD_WR_DATA8>
c:\Users\ql\Desktop\工作\1.28IPS电容触摸技术资料\新建文件夹\CH582M\obj/../src/lcd_init.c:330

    LCD_WR_REG (0x67);
    3040:	06700513          	li	a0,103
    3044:	1fffe097          	auipc	ra,0x1fffe
    3048:	78e080e7          	jalr	1934(ra) # 200017d2 <LCD_WR_REG>
c:\Users\ql\Desktop\工作\1.28IPS电容触摸技术资料\新建文件夹\CH582M\obj/../src/lcd_init.c:331
    LCD_WR_DATA8 (0x00);
    304c:	4501                	li	a0,0
    304e:	1fffe097          	auipc	ra,0x1fffe
    3052:	6fe080e7          	jalr	1790(ra) # 2000174c <LCD_WR_DATA8>
c:\Users\ql\Desktop\工作\1.28IPS电容触摸技术资料\新建文件夹\CH582M\obj/../src/lcd_init.c:332
    LCD_WR_DATA8 (0x3C);
    3056:	03c00513          	li	a0,60
    305a:	1fffe097          	auipc	ra,0x1fffe
    305e:	6f2080e7          	jalr	1778(ra) # 2000174c <LCD_WR_DATA8>
c:\Users\ql\Desktop\工作\1.28IPS电容触摸技术资料\新建文件夹\CH582M\obj/../src/lcd_init.c:333
    LCD_WR_DATA8 (0x00);
    3062:	4501                	li	a0,0
    3064:	1fffe097          	auipc	ra,0x1fffe
    3068:	6e8080e7          	jalr	1768(ra) # 2000174c <LCD_WR_DATA8>
c:\Users\ql\Desktop\工作\1.28IPS电容触摸技术资料\新建文件夹\CH582M\obj/../src/lcd_init.c:334
    LCD_WR_DATA8 (0x00);
    306c:	4501                	li	a0,0
    306e:	1fffe097          	auipc	ra,0x1fffe
    3072:	6de080e7          	jalr	1758(ra) # 2000174c <LCD_WR_DATA8>
c:\Users\ql\Desktop\工作\1.28IPS电容触摸技术资料\新建文件夹\CH582M\obj/../src/lcd_init.c:335
    LCD_WR_DATA8 (0x00);
    3076:	4501                	li	a0,0
    3078:	1fffe097          	auipc	ra,0x1fffe
    307c:	6d4080e7          	jalr	1748(ra) # 2000174c <LCD_WR_DATA8>
c:\Users\ql\Desktop\工作\1.28IPS电容触摸技术资料\新建文件夹\CH582M\obj/../src/lcd_init.c:336
    LCD_WR_DATA8 (0x01);
    3080:	4505                	li	a0,1
    3082:	1fffe097          	auipc	ra,0x1fffe
    3086:	6ca080e7          	jalr	1738(ra) # 2000174c <LCD_WR_DATA8>
c:\Users\ql\Desktop\工作\1.28IPS电容触摸技术资料\新建文件夹\CH582M\obj/../src/lcd_init.c:337
    LCD_WR_DATA8 (0x54);
    308a:	05400513          	li	a0,84
    308e:	1fffe097          	auipc	ra,0x1fffe
    3092:	6be080e7          	jalr	1726(ra) # 2000174c <LCD_WR_DATA8>
c:\Users\ql\Desktop\工作\1.28IPS电容触摸技术资料\新建文件夹\CH582M\obj/../src/lcd_init.c:338
    LCD_WR_DATA8 (0x10);
    3096:	4541                	li	a0,16
    3098:	1fffe097          	auipc	ra,0x1fffe
    309c:	6b4080e7          	jalr	1716(ra) # 2000174c <LCD_WR_DATA8>
c:\Users\ql\Desktop\工作\1.28IPS电容触摸技术资料\新建文件夹\CH582M\obj/../src/lcd_init.c:339
    LCD_WR_DATA8 (0x32);
    30a0:	03200513          	li	a0,50
    30a4:	1fffe097          	auipc	ra,0x1fffe
    30a8:	6a8080e7          	jalr	1704(ra) # 2000174c <LCD_WR_DATA8>
c:\Users\ql\Desktop\工作\1.28IPS电容触摸技术资料\新建文件夹\CH582M\obj/../src/lcd_init.c:340
    LCD_WR_DATA8 (0x98);
    30ac:	09800513          	li	a0,152
    30b0:	1fffe097          	auipc	ra,0x1fffe
    30b4:	69c080e7          	jalr	1692(ra) # 2000174c <LCD_WR_DATA8>
c:\Users\ql\Desktop\工作\1.28IPS电容触摸技术资料\新建文件夹\CH582M\obj/../src/lcd_init.c:342

    LCD_WR_REG (0x74);
    30b8:	07400513          	li	a0,116
    30bc:	1fffe097          	auipc	ra,0x1fffe
    30c0:	716080e7          	jalr	1814(ra) # 200017d2 <LCD_WR_REG>
c:\Users\ql\Desktop\工作\1.28IPS电容触摸技术资料\新建文件夹\CH582M\obj/../src/lcd_init.c:343
    LCD_WR_DATA8 (0x10);
    30c4:	4541                	li	a0,16
    30c6:	1fffe097          	auipc	ra,0x1fffe
    30ca:	686080e7          	jalr	1670(ra) # 2000174c <LCD_WR_DATA8>
c:\Users\ql\Desktop\工作\1.28IPS电容触摸技术资料\新建文件夹\CH582M\obj/../src/lcd_init.c:344
    LCD_WR_DATA8 (0x85);
    30ce:	08500513          	li	a0,133
    30d2:	1fffe097          	auipc	ra,0x1fffe
    30d6:	67a080e7          	jalr	1658(ra) # 2000174c <LCD_WR_DATA8>
c:\Users\ql\Desktop\工作\1.28IPS电容触摸技术资料\新建文件夹\CH582M\obj/../src/lcd_init.c:345
    LCD_WR_DATA8 (0x80);
    30da:	08000513          	li	a0,128
    30de:	1fffe097          	auipc	ra,0x1fffe
    30e2:	66e080e7          	jalr	1646(ra) # 2000174c <LCD_WR_DATA8>
c:\Users\ql\Desktop\工作\1.28IPS电容触摸技术资料\新建文件夹\CH582M\obj/../src/lcd_init.c:346
    LCD_WR_DATA8 (0x00);
    30e6:	4501                	li	a0,0
    30e8:	1fffe097          	auipc	ra,0x1fffe
    30ec:	664080e7          	jalr	1636(ra) # 2000174c <LCD_WR_DATA8>
c:\Users\ql\Desktop\工作\1.28IPS电容触摸技术资料\新建文件夹\CH582M\obj/../src/lcd_init.c:347
    LCD_WR_DATA8 (0x00);
    30f0:	4501                	li	a0,0
    30f2:	1fffe097          	auipc	ra,0x1fffe
    30f6:	65a080e7          	jalr	1626(ra) # 2000174c <LCD_WR_DATA8>
c:\Users\ql\Desktop\工作\1.28IPS电容触摸技术资料\新建文件夹\CH582M\obj/../src/lcd_init.c:348
    LCD_WR_DATA8 (0x4E);
    30fa:	04e00513          	li	a0,78
    30fe:	1fffe097          	auipc	ra,0x1fffe
    3102:	64e080e7          	jalr	1614(ra) # 2000174c <LCD_WR_DATA8>
c:\Users\ql\Desktop\工作\1.28IPS电容触摸技术资料\新建文件夹\CH582M\obj/../src/lcd_init.c:349
    LCD_WR_DATA8 (0x00);
    3106:	4501                	li	a0,0
    3108:	1fffe097          	auipc	ra,0x1fffe
    310c:	644080e7          	jalr	1604(ra) # 2000174c <LCD_WR_DATA8>
c:\Users\ql\Desktop\工作\1.28IPS电容触摸技术资料\新建文件夹\CH582M\obj/../src/lcd_init.c:351

    LCD_WR_REG (0x98);
    3110:	09800513          	li	a0,152
    3114:	1fffe097          	auipc	ra,0x1fffe
    3118:	6be080e7          	jalr	1726(ra) # 200017d2 <LCD_WR_REG>
c:\Users\ql\Desktop\工作\1.28IPS电容触摸技术资料\新建文件夹\CH582M\obj/../src/lcd_init.c:352
    LCD_WR_DATA8 (0x3e);
    311c:	03e00513          	li	a0,62
    3120:	1fffe097          	auipc	ra,0x1fffe
    3124:	62c080e7          	jalr	1580(ra) # 2000174c <LCD_WR_DATA8>
c:\Users\ql\Desktop\工作\1.28IPS电容触摸技术资料\新建文件夹\CH582M\obj/../src/lcd_init.c:353
    LCD_WR_DATA8 (0x07);
    3128:	451d                	li	a0,7
    312a:	1fffe097          	auipc	ra,0x1fffe
    312e:	622080e7          	jalr	1570(ra) # 2000174c <LCD_WR_DATA8>
c:\Users\ql\Desktop\工作\1.28IPS电容触摸技术资料\新建文件夹\CH582M\obj/../src/lcd_init.c:357



    LCD_WR_REG (0x35);  // 反相
    3132:	03500513          	li	a0,53
    3136:	1fffe097          	auipc	ra,0x1fffe
    313a:	69c080e7          	jalr	1692(ra) # 200017d2 <LCD_WR_REG>
c:\Users\ql\Desktop\工作\1.28IPS电容触摸技术资料\新建文件夹\CH582M\obj/../src/lcd_init.c:358
    LCD_WR_REG (0x21);
    313e:	02100513          	li	a0,33
    3142:	1fffe097          	auipc	ra,0x1fffe
    3146:	690080e7          	jalr	1680(ra) # 200017d2 <LCD_WR_REG>
c:\Users\ql\Desktop\工作\1.28IPS电容触摸技术资料\新建文件夹\CH582M\obj/../src/lcd_init.c:361


    LCD_WR_REG (0x11);  // 退出休眠模式
    314a:	4545                	li	a0,17
    314c:	1fffe097          	auipc	ra,0x1fffe
    3150:	686080e7          	jalr	1670(ra) # 200017d2 <LCD_WR_REG>
c:\Users\ql\Desktop\工作\1.28IPS电容触摸技术资料\新建文件夹\CH582M\obj/../src/lcd_init.c:362
    DelayMs (120);
    3154:	07800513          	li	a0,120
    3158:	1ffff097          	auipc	ra,0x1ffff
    315c:	0ac080e7          	jalr	172(ra) # 20002204 <mDelaymS>
c:\Users\ql\Desktop\工作\1.28IPS电容触摸技术资料\新建文件夹\CH582M\obj/../src/lcd_init.c:364

    LCD_WR_REG (0x29);  // 开始显示
    3160:	02900513          	li	a0,41
    3164:	1fffe097          	auipc	ra,0x1fffe
    3168:	66e080e7          	jalr	1646(ra) # 200017d2 <LCD_WR_REG>
c:\Users\ql\Desktop\工作\1.28IPS电容触摸技术资料\新建文件夹\CH582M\obj/../src/lcd_init.c:365
    DelayMs (20);
    316c:	4551                	li	a0,20
    316e:	1ffff097          	auipc	ra,0x1ffff
    3172:	096080e7          	jalr	150(ra) # 20002204 <mDelaymS>
c:\Users\ql\Desktop\工作\1.28IPS电容触摸技术资料\新建文件夹\CH582M\obj/../src/lcd_init.c:366
}
    3176:	0001                	nop
    3178:	40b2                	lw	ra,12(sp)
    317a:	4422                	lw	s0,8(sp)
    317c:	0141                	addi	sp,sp,16
    317e:	8082                	ret

00003180 <show_gesture_changepic_100>:
show_gesture_changepic_100():
c:\Users\ql\Desktop\工作\1.28IPS电容触摸技术资料\新建文件夹\CH582M\obj/../src/user.c:228
        }
        DelayMs (240);
    }
}

void show_gesture_changepic_100() {
    3180:	1101                	addi	sp,sp,-32
    3182:	ce06                	sw	ra,28(sp)
    3184:	cc22                	sw	s0,24(sp)
    3186:	1000                	addi	s0,sp,32
c:\Users\ql\Desktop\工作\1.28IPS电容触摸技术资料\新建文件夹\CH582M\obj/../src/user.c:229
    u8 gesture = CST816S_GetGesture();
    3188:	d8aff0ef          	jal	ra,2712 <CST816S_GetGesture>
    318c:	87aa                	mv	a5,a0
    318e:	fef407a3          	sb	a5,-17(s0)
c:\Users\ql\Desktop\工作\1.28IPS电容触摸技术资料\新建文件夹\CH582M\obj/../src/user.c:230
    if (gesture == NONE) {
    3192:	fef44783          	lbu	a5,-17(s0)
    3196:	e799                	bnez	a5,31a4 <show_gesture_changepic_100+0x24>
c:\Users\ql\Desktop\工作\1.28IPS电容触摸技术资料\新建文件夹\CH582M\obj/../src/user.c:231
        gesturesta = 0;
    3198:	1ffff797          	auipc	a5,0x1ffff
    319c:	4e878793          	addi	a5,a5,1256 # 20002680 <_edata>
    31a0:	00078023          	sb	zero,0(a5)
c:\Users\ql\Desktop\工作\1.28IPS电容触摸技术资料\新建文件夹\CH582M\obj/../src/user.c:233
    }
    if (gesture == SWIPE_UP && gesturesta == 0) {
    31a4:	fef44703          	lbu	a4,-17(s0)
    31a8:	4789                	li	a5,2
    31aa:	12f71563          	bne	a4,a5,32d4 <show_gesture_changepic_100+0x154>
c:\Users\ql\Desktop\工作\1.28IPS电容触摸技术资料\新建文件夹\CH582M\obj/../src/user.c:233 (discriminator 1)
    31ae:	1ffff797          	auipc	a5,0x1ffff
    31b2:	4d278793          	addi	a5,a5,1234 # 20002680 <_edata>
    31b6:	0007c783          	lbu	a5,0(a5)
    31ba:	10079d63          	bnez	a5,32d4 <show_gesture_changepic_100+0x154>
c:\Users\ql\Desktop\工作\1.28IPS电容触摸技术资料\新建文件夹\CH582M\obj/../src/user.c:234
        if (imagestatue == 1) {
    31be:	1ffff797          	auipc	a5,0x1ffff
    31c2:	4ba78793          	addi	a5,a5,1210 # 20002678 <imagestatue>
    31c6:	0007c703          	lbu	a4,0(a5)
    31ca:	4785                	li	a5,1
    31cc:	02f71963          	bne	a4,a5,31fe <show_gesture_changepic_100+0x7e>
c:\Users\ql\Desktop\工作\1.28IPS电容触摸技术资料\新建文件夹\CH582M\obj/../src/user.c:235
            LCD_SmoothChangePic (70, 70, 100, 100, 1, gImage_6, gImage_7, 0);
    31d0:	4881                	li	a7,0
    31d2:	00006817          	auipc	a6,0x6
    31d6:	32a80813          	addi	a6,a6,810 # 94fc <gImage_7>
    31da:	00001797          	auipc	a5,0x1
    31de:	50278793          	addi	a5,a5,1282 # 46dc <gImage_6>
    31e2:	4705                	li	a4,1
    31e4:	06400693          	li	a3,100
    31e8:	06400613          	li	a2,100
    31ec:	04600593          	li	a1,70
    31f0:	04600513          	li	a0,70
    31f4:	1fffe097          	auipc	ra,0x1fffe
    31f8:	052080e7          	jalr	82(ra) # 20001246 <LCD_SmoothChangePic>
    31fc:	a041                	j	327c <show_gesture_changepic_100+0xfc>
c:\Users\ql\Desktop\工作\1.28IPS电容触摸技术资料\新建文件夹\CH582M\obj/../src/user.c:236
        } else if (imagestatue == 2) {
    31fe:	1ffff797          	auipc	a5,0x1ffff
    3202:	47a78793          	addi	a5,a5,1146 # 20002678 <imagestatue>
    3206:	0007c703          	lbu	a4,0(a5)
    320a:	4789                	li	a5,2
    320c:	02f71963          	bne	a4,a5,323e <show_gesture_changepic_100+0xbe>
c:\Users\ql\Desktop\工作\1.28IPS电容触摸技术资料\新建文件夹\CH582M\obj/../src/user.c:237
            LCD_SmoothChangePic (70, 70, 100, 100, 1, gImage_7, gImage_8, 0);
    3210:	4881                	li	a7,0
    3212:	0000b817          	auipc	a6,0xb
    3216:	10a80813          	addi	a6,a6,266 # e31c <gImage_8>
    321a:	00006797          	auipc	a5,0x6
    321e:	2e278793          	addi	a5,a5,738 # 94fc <gImage_7>
    3222:	4705                	li	a4,1
    3224:	06400693          	li	a3,100
    3228:	06400613          	li	a2,100
    322c:	04600593          	li	a1,70
    3230:	04600513          	li	a0,70
    3234:	1fffe097          	auipc	ra,0x1fffe
    3238:	012080e7          	jalr	18(ra) # 20001246 <LCD_SmoothChangePic>
    323c:	a081                	j	327c <show_gesture_changepic_100+0xfc>
c:\Users\ql\Desktop\工作\1.28IPS电容触摸技术资料\新建文件夹\CH582M\obj/../src/user.c:238
        } else if (imagestatue == 3) {
    323e:	1ffff797          	auipc	a5,0x1ffff
    3242:	43a78793          	addi	a5,a5,1082 # 20002678 <imagestatue>
    3246:	0007c703          	lbu	a4,0(a5)
    324a:	478d                	li	a5,3
    324c:	02f71863          	bne	a4,a5,327c <show_gesture_changepic_100+0xfc>
c:\Users\ql\Desktop\工作\1.28IPS电容触摸技术资料\新建文件夹\CH582M\obj/../src/user.c:239
            LCD_SmoothChangePic (70, 70, 100, 100, 1, gImage_8, gImage_6, 0);
    3250:	4881                	li	a7,0
    3252:	00001817          	auipc	a6,0x1
    3256:	48a80813          	addi	a6,a6,1162 # 46dc <gImage_6>
    325a:	0000b797          	auipc	a5,0xb
    325e:	0c278793          	addi	a5,a5,194 # e31c <gImage_8>
    3262:	4705                	li	a4,1
    3264:	06400693          	li	a3,100
    3268:	06400613          	li	a2,100
    326c:	04600593          	li	a1,70
    3270:	04600513          	li	a0,70
    3274:	1fffe097          	auipc	ra,0x1fffe
    3278:	fd2080e7          	jalr	-46(ra) # 20001246 <LCD_SmoothChangePic>
c:\Users\ql\Desktop\工作\1.28IPS电容触摸技术资料\新建文件夹\CH582M\obj/../src/user.c:241
        }
        imagestatue++;
    327c:	1ffff797          	auipc	a5,0x1ffff
    3280:	3fc78793          	addi	a5,a5,1020 # 20002678 <imagestatue>
    3284:	0007c783          	lbu	a5,0(a5)
    3288:	0785                	addi	a5,a5,1
    328a:	0ff7f713          	andi	a4,a5,255
    328e:	1ffff797          	auipc	a5,0x1ffff
    3292:	3ea78793          	addi	a5,a5,1002 # 20002678 <imagestatue>
    3296:	00e78023          	sb	a4,0(a5)
c:\Users\ql\Desktop\工作\1.28IPS电容触摸技术资料\新建文件夹\CH582M\obj/../src/user.c:242
        if (imagestatue >= 4) {
    329a:	1ffff797          	auipc	a5,0x1ffff
    329e:	3de78793          	addi	a5,a5,990 # 20002678 <imagestatue>
    32a2:	0007c703          	lbu	a4,0(a5)
    32a6:	478d                	li	a5,3
    32a8:	00e7f963          	bgeu	a5,a4,32ba <show_gesture_changepic_100+0x13a>
c:\Users\ql\Desktop\工作\1.28IPS电容触摸技术资料\新建文件夹\CH582M\obj/../src/user.c:243
            imagestatue = 1;
    32ac:	1ffff797          	auipc	a5,0x1ffff
    32b0:	3cc78793          	addi	a5,a5,972 # 20002678 <imagestatue>
    32b4:	4705                	li	a4,1
    32b6:	00e78023          	sb	a4,0(a5)
c:\Users\ql\Desktop\工作\1.28IPS电容触摸技术资料\新建文件夹\CH582M\obj/../src/user.c:245
        }
        gesturesta = 1;
    32ba:	1ffff797          	auipc	a5,0x1ffff
    32be:	3c678793          	addi	a5,a5,966 # 20002680 <_edata>
    32c2:	4705                	li	a4,1
    32c4:	00e78023          	sb	a4,0(a5)
c:\Users\ql\Desktop\工作\1.28IPS电容触摸技术资料\新建文件夹\CH582M\obj/../src/user.c:246
        DelayMs (100);
    32c8:	06400513          	li	a0,100
    32cc:	1ffff097          	auipc	ra,0x1ffff
    32d0:	f38080e7          	jalr	-200(ra) # 20002204 <mDelaymS>
c:\Users\ql\Desktop\工作\1.28IPS电容触摸技术资料\新建文件夹\CH582M\obj/../src/user.c:248
    }
    if (gesture == SWIPE_DOWN && gesturesta == 0) {
    32d4:	fef44703          	lbu	a4,-17(s0)
    32d8:	4785                	li	a5,1
    32da:	12f71363          	bne	a4,a5,3400 <show_gesture_changepic_100+0x280>
c:\Users\ql\Desktop\工作\1.28IPS电容触摸技术资料\新建文件夹\CH582M\obj/../src/user.c:248 (discriminator 1)
    32de:	1ffff797          	auipc	a5,0x1ffff
    32e2:	3a278793          	addi	a5,a5,930 # 20002680 <_edata>
    32e6:	0007c783          	lbu	a5,0(a5)
    32ea:	10079b63          	bnez	a5,3400 <show_gesture_changepic_100+0x280>
c:\Users\ql\Desktop\工作\1.28IPS电容触摸技术资料\新建文件夹\CH582M\obj/../src/user.c:249
        if (imagestatue == 1) {
    32ee:	1ffff797          	auipc	a5,0x1ffff
    32f2:	38a78793          	addi	a5,a5,906 # 20002678 <imagestatue>
    32f6:	0007c703          	lbu	a4,0(a5)
    32fa:	4785                	li	a5,1
    32fc:	02f71963          	bne	a4,a5,332e <show_gesture_changepic_100+0x1ae>
c:\Users\ql\Desktop\工作\1.28IPS电容触摸技术资料\新建文件夹\CH582M\obj/../src/user.c:250
            LCD_SmoothChangePic (70, 70, 100, 100, 2, gImage_6, gImage_8, 0);
    3300:	4881                	li	a7,0
    3302:	0000b817          	auipc	a6,0xb
    3306:	01a80813          	addi	a6,a6,26 # e31c <gImage_8>
    330a:	00001797          	auipc	a5,0x1
    330e:	3d278793          	addi	a5,a5,978 # 46dc <gImage_6>
    3312:	4709                	li	a4,2
    3314:	06400693          	li	a3,100
    3318:	06400613          	li	a2,100
    331c:	04600593          	li	a1,70
    3320:	04600513          	li	a0,70
    3324:	1fffe097          	auipc	ra,0x1fffe
    3328:	f22080e7          	jalr	-222(ra) # 20001246 <LCD_SmoothChangePic>
    332c:	a041                	j	33ac <show_gesture_changepic_100+0x22c>
c:\Users\ql\Desktop\工作\1.28IPS电容触摸技术资料\新建文件夹\CH582M\obj/../src/user.c:251
        } else if (imagestatue == 2) {
    332e:	1ffff797          	auipc	a5,0x1ffff
    3332:	34a78793          	addi	a5,a5,842 # 20002678 <imagestatue>
    3336:	0007c703          	lbu	a4,0(a5)
    333a:	4789                	li	a5,2
    333c:	02f71963          	bne	a4,a5,336e <show_gesture_changepic_100+0x1ee>
c:\Users\ql\Desktop\工作\1.28IPS电容触摸技术资料\新建文件夹\CH582M\obj/../src/user.c:252
            LCD_SmoothChangePic (70, 70, 100, 100, 2, gImage_7, gImage_6, 0);
    3340:	4881                	li	a7,0
    3342:	00001817          	auipc	a6,0x1
    3346:	39a80813          	addi	a6,a6,922 # 46dc <gImage_6>
    334a:	00006797          	auipc	a5,0x6
    334e:	1b278793          	addi	a5,a5,434 # 94fc <gImage_7>
    3352:	4709                	li	a4,2
    3354:	06400693          	li	a3,100
    3358:	06400613          	li	a2,100
    335c:	04600593          	li	a1,70
    3360:	04600513          	li	a0,70
    3364:	1fffe097          	auipc	ra,0x1fffe
    3368:	ee2080e7          	jalr	-286(ra) # 20001246 <LCD_SmoothChangePic>
    336c:	a081                	j	33ac <show_gesture_changepic_100+0x22c>
c:\Users\ql\Desktop\工作\1.28IPS电容触摸技术资料\新建文件夹\CH582M\obj/../src/user.c:253
        } else if (imagestatue == 3) {
    336e:	1ffff797          	auipc	a5,0x1ffff
    3372:	30a78793          	addi	a5,a5,778 # 20002678 <imagestatue>
    3376:	0007c703          	lbu	a4,0(a5)
    337a:	478d                	li	a5,3
    337c:	02f71863          	bne	a4,a5,33ac <show_gesture_changepic_100+0x22c>
c:\Users\ql\Desktop\工作\1.28IPS电容触摸技术资料\新建文件夹\CH582M\obj/../src/user.c:254
            LCD_SmoothChangePic (70, 70, 100, 100, 2, gImage_8, gImage_7, 0);
    3380:	4881                	li	a7,0
    3382:	00006817          	auipc	a6,0x6
    3386:	17a80813          	addi	a6,a6,378 # 94fc <gImage_7>
    338a:	0000b797          	auipc	a5,0xb
    338e:	f9278793          	addi	a5,a5,-110 # e31c <gImage_8>
    3392:	4709                	li	a4,2
    3394:	06400693          	li	a3,100
    3398:	06400613          	li	a2,100
    339c:	04600593          	li	a1,70
    33a0:	04600513          	li	a0,70
    33a4:	1fffe097          	auipc	ra,0x1fffe
    33a8:	ea2080e7          	jalr	-350(ra) # 20001246 <LCD_SmoothChangePic>
c:\Users\ql\Desktop\工作\1.28IPS电容触摸技术资料\新建文件夹\CH582M\obj/../src/user.c:256
        }
        imagestatue--;
    33ac:	1ffff797          	auipc	a5,0x1ffff
    33b0:	2cc78793          	addi	a5,a5,716 # 20002678 <imagestatue>
    33b4:	0007c783          	lbu	a5,0(a5)
    33b8:	17fd                	addi	a5,a5,-1
    33ba:	0ff7f713          	andi	a4,a5,255
    33be:	1ffff797          	auipc	a5,0x1ffff
    33c2:	2ba78793          	addi	a5,a5,698 # 20002678 <imagestatue>
    33c6:	00e78023          	sb	a4,0(a5)
c:\Users\ql\Desktop\工作\1.28IPS电容触摸技术资料\新建文件夹\CH582M\obj/../src/user.c:257
        if (imagestatue <= 0) {
    33ca:	1ffff797          	auipc	a5,0x1ffff
    33ce:	2ae78793          	addi	a5,a5,686 # 20002678 <imagestatue>
    33d2:	0007c783          	lbu	a5,0(a5)
    33d6:	eb81                	bnez	a5,33e6 <show_gesture_changepic_100+0x266>
c:\Users\ql\Desktop\工作\1.28IPS电容触摸技术资料\新建文件夹\CH582M\obj/../src/user.c:258
            imagestatue = 3;
    33d8:	1ffff797          	auipc	a5,0x1ffff
    33dc:	2a078793          	addi	a5,a5,672 # 20002678 <imagestatue>
    33e0:	470d                	li	a4,3
    33e2:	00e78023          	sb	a4,0(a5)
c:\Users\ql\Desktop\工作\1.28IPS电容触摸技术资料\新建文件夹\CH582M\obj/../src/user.c:260
        }
        gesturesta = 1;
    33e6:	1ffff797          	auipc	a5,0x1ffff
    33ea:	29a78793          	addi	a5,a5,666 # 20002680 <_edata>
    33ee:	4705                	li	a4,1
    33f0:	00e78023          	sb	a4,0(a5)
c:\Users\ql\Desktop\工作\1.28IPS电容触摸技术资料\新建文件夹\CH582M\obj/../src/user.c:261
        DelayMs (100);
    33f4:	06400513          	li	a0,100
    33f8:	1ffff097          	auipc	ra,0x1ffff
    33fc:	e0c080e7          	jalr	-500(ra) # 20002204 <mDelaymS>
c:\Users\ql\Desktop\工作\1.28IPS电容触摸技术资料\新建文件夹\CH582M\obj/../src/user.c:263
    }
    if (gesture == SWIPE_RIGHT && gesturesta == 0) {
    3400:	fef44703          	lbu	a4,-17(s0)
    3404:	4791                	li	a5,4
    3406:	12f71563          	bne	a4,a5,3530 <show_gesture_changepic_100+0x3b0>
c:\Users\ql\Desktop\工作\1.28IPS电容触摸技术资料\新建文件夹\CH582M\obj/../src/user.c:263 (discriminator 1)
    340a:	1ffff797          	auipc	a5,0x1ffff
    340e:	27678793          	addi	a5,a5,630 # 20002680 <_edata>
    3412:	0007c783          	lbu	a5,0(a5)
    3416:	10079d63          	bnez	a5,3530 <show_gesture_changepic_100+0x3b0>
c:\Users\ql\Desktop\工作\1.28IPS电容触摸技术资料\新建文件夹\CH582M\obj/../src/user.c:264
        if (imagestatue == 1) {
    341a:	1ffff797          	auipc	a5,0x1ffff
    341e:	25e78793          	addi	a5,a5,606 # 20002678 <imagestatue>
    3422:	0007c703          	lbu	a4,0(a5)
    3426:	4785                	li	a5,1
    3428:	02f71963          	bne	a4,a5,345a <show_gesture_changepic_100+0x2da>
c:\Users\ql\Desktop\工作\1.28IPS电容触摸技术资料\新建文件夹\CH582M\obj/../src/user.c:265
            LCD_SmoothChangePic (70, 70, 100, 100, 4, gImage_6, gImage_7, 0);
    342c:	4881                	li	a7,0
    342e:	00006817          	auipc	a6,0x6
    3432:	0ce80813          	addi	a6,a6,206 # 94fc <gImage_7>
    3436:	00001797          	auipc	a5,0x1
    343a:	2a678793          	addi	a5,a5,678 # 46dc <gImage_6>
    343e:	4711                	li	a4,4
    3440:	06400693          	li	a3,100
    3444:	06400613          	li	a2,100
    3448:	04600593          	li	a1,70
    344c:	04600513          	li	a0,70
    3450:	1fffe097          	auipc	ra,0x1fffe
    3454:	df6080e7          	jalr	-522(ra) # 20001246 <LCD_SmoothChangePic>
    3458:	a041                	j	34d8 <show_gesture_changepic_100+0x358>
c:\Users\ql\Desktop\工作\1.28IPS电容触摸技术资料\新建文件夹\CH582M\obj/../src/user.c:266
        } else if (imagestatue == 2) {
    345a:	1ffff797          	auipc	a5,0x1ffff
    345e:	21e78793          	addi	a5,a5,542 # 20002678 <imagestatue>
    3462:	0007c703          	lbu	a4,0(a5)
    3466:	4789                	li	a5,2
    3468:	02f71963          	bne	a4,a5,349a <show_gesture_changepic_100+0x31a>
c:\Users\ql\Desktop\工作\1.28IPS电容触摸技术资料\新建文件夹\CH582M\obj/../src/user.c:267
            LCD_SmoothChangePic (70, 70, 100, 100, 4, gImage_7, gImage_8, 0);
    346c:	4881                	li	a7,0
    346e:	0000b817          	auipc	a6,0xb
    3472:	eae80813          	addi	a6,a6,-338 # e31c <gImage_8>
    3476:	00006797          	auipc	a5,0x6
    347a:	08678793          	addi	a5,a5,134 # 94fc <gImage_7>
    347e:	4711                	li	a4,4
    3480:	06400693          	li	a3,100
    3484:	06400613          	li	a2,100
    3488:	04600593          	li	a1,70
    348c:	04600513          	li	a0,70
    3490:	1fffe097          	auipc	ra,0x1fffe
    3494:	db6080e7          	jalr	-586(ra) # 20001246 <LCD_SmoothChangePic>
    3498:	a081                	j	34d8 <show_gesture_changepic_100+0x358>
c:\Users\ql\Desktop\工作\1.28IPS电容触摸技术资料\新建文件夹\CH582M\obj/../src/user.c:268
        } else if (imagestatue == 3) {
    349a:	1ffff797          	auipc	a5,0x1ffff
    349e:	1de78793          	addi	a5,a5,478 # 20002678 <imagestatue>
    34a2:	0007c703          	lbu	a4,0(a5)
    34a6:	478d                	li	a5,3
    34a8:	02f71863          	bne	a4,a5,34d8 <show_gesture_changepic_100+0x358>
c:\Users\ql\Desktop\工作\1.28IPS电容触摸技术资料\新建文件夹\CH582M\obj/../src/user.c:269
            LCD_SmoothChangePic (70, 70, 100, 100, 4, gImage_8, gImage_6, 0);
    34ac:	4881                	li	a7,0
    34ae:	00001817          	auipc	a6,0x1
    34b2:	22e80813          	addi	a6,a6,558 # 46dc <gImage_6>
    34b6:	0000b797          	auipc	a5,0xb
    34ba:	e6678793          	addi	a5,a5,-410 # e31c <gImage_8>
    34be:	4711                	li	a4,4
    34c0:	06400693          	li	a3,100
    34c4:	06400613          	li	a2,100
    34c8:	04600593          	li	a1,70
    34cc:	04600513          	li	a0,70
    34d0:	1fffe097          	auipc	ra,0x1fffe
    34d4:	d76080e7          	jalr	-650(ra) # 20001246 <LCD_SmoothChangePic>
c:\Users\ql\Desktop\工作\1.28IPS电容触摸技术资料\新建文件夹\CH582M\obj/../src/user.c:271
        }
        imagestatue++;
    34d8:	1ffff797          	auipc	a5,0x1ffff
    34dc:	1a078793          	addi	a5,a5,416 # 20002678 <imagestatue>
    34e0:	0007c783          	lbu	a5,0(a5)
    34e4:	0785                	addi	a5,a5,1
    34e6:	0ff7f713          	andi	a4,a5,255
    34ea:	1ffff797          	auipc	a5,0x1ffff
    34ee:	18e78793          	addi	a5,a5,398 # 20002678 <imagestatue>
    34f2:	00e78023          	sb	a4,0(a5)
c:\Users\ql\Desktop\工作\1.28IPS电容触摸技术资料\新建文件夹\CH582M\obj/../src/user.c:272
        if (imagestatue >= 4) {
    34f6:	1ffff797          	auipc	a5,0x1ffff
    34fa:	18278793          	addi	a5,a5,386 # 20002678 <imagestatue>
    34fe:	0007c703          	lbu	a4,0(a5)
    3502:	478d                	li	a5,3
    3504:	00e7f963          	bgeu	a5,a4,3516 <show_gesture_changepic_100+0x396>
c:\Users\ql\Desktop\工作\1.28IPS电容触摸技术资料\新建文件夹\CH582M\obj/../src/user.c:273
            imagestatue = 1;
    3508:	1ffff797          	auipc	a5,0x1ffff
    350c:	17078793          	addi	a5,a5,368 # 20002678 <imagestatue>
    3510:	4705                	li	a4,1
    3512:	00e78023          	sb	a4,0(a5)
c:\Users\ql\Desktop\工作\1.28IPS电容触摸技术资料\新建文件夹\CH582M\obj/../src/user.c:275
        }
        gesturesta = 1;
    3516:	1ffff797          	auipc	a5,0x1ffff
    351a:	16a78793          	addi	a5,a5,362 # 20002680 <_edata>
    351e:	4705                	li	a4,1
    3520:	00e78023          	sb	a4,0(a5)
c:\Users\ql\Desktop\工作\1.28IPS电容触摸技术资料\新建文件夹\CH582M\obj/../src/user.c:276
        DelayMs (100);
    3524:	06400513          	li	a0,100
    3528:	1ffff097          	auipc	ra,0x1ffff
    352c:	cdc080e7          	jalr	-804(ra) # 20002204 <mDelaymS>
c:\Users\ql\Desktop\工作\1.28IPS电容触摸技术资料\新建文件夹\CH582M\obj/../src/user.c:278
    }
    if (gesture == SWIPE_LEFT && gesturesta == 0) {
    3530:	fef44703          	lbu	a4,-17(s0)
    3534:	478d                	li	a5,3
    3536:	12f71363          	bne	a4,a5,365c <show_gesture_changepic_100+0x4dc>
c:\Users\ql\Desktop\工作\1.28IPS电容触摸技术资料\新建文件夹\CH582M\obj/../src/user.c:278 (discriminator 1)
    353a:	1ffff797          	auipc	a5,0x1ffff
    353e:	14678793          	addi	a5,a5,326 # 20002680 <_edata>
    3542:	0007c783          	lbu	a5,0(a5)
    3546:	10079b63          	bnez	a5,365c <show_gesture_changepic_100+0x4dc>
c:\Users\ql\Desktop\工作\1.28IPS电容触摸技术资料\新建文件夹\CH582M\obj/../src/user.c:279
        if (imagestatue == 1) {
    354a:	1ffff797          	auipc	a5,0x1ffff
    354e:	12e78793          	addi	a5,a5,302 # 20002678 <imagestatue>
    3552:	0007c703          	lbu	a4,0(a5)
    3556:	4785                	li	a5,1
    3558:	02f71963          	bne	a4,a5,358a <show_gesture_changepic_100+0x40a>
c:\Users\ql\Desktop\工作\1.28IPS电容触摸技术资料\新建文件夹\CH582M\obj/../src/user.c:280
            LCD_SmoothChangePic (70, 70, 100, 100, 3, gImage_6, gImage_8, 0);
    355c:	4881                	li	a7,0
    355e:	0000b817          	auipc	a6,0xb
    3562:	dbe80813          	addi	a6,a6,-578 # e31c <gImage_8>
    3566:	00001797          	auipc	a5,0x1
    356a:	17678793          	addi	a5,a5,374 # 46dc <gImage_6>
    356e:	470d                	li	a4,3
    3570:	06400693          	li	a3,100
    3574:	06400613          	li	a2,100
    3578:	04600593          	li	a1,70
    357c:	04600513          	li	a0,70
    3580:	1fffe097          	auipc	ra,0x1fffe
    3584:	cc6080e7          	jalr	-826(ra) # 20001246 <LCD_SmoothChangePic>
    3588:	a041                	j	3608 <show_gesture_changepic_100+0x488>
c:\Users\ql\Desktop\工作\1.28IPS电容触摸技术资料\新建文件夹\CH582M\obj/../src/user.c:281
        } else if (imagestatue == 2) {
    358a:	1ffff797          	auipc	a5,0x1ffff
    358e:	0ee78793          	addi	a5,a5,238 # 20002678 <imagestatue>
    3592:	0007c703          	lbu	a4,0(a5)
    3596:	4789                	li	a5,2
    3598:	02f71963          	bne	a4,a5,35ca <show_gesture_changepic_100+0x44a>
c:\Users\ql\Desktop\工作\1.28IPS电容触摸技术资料\新建文件夹\CH582M\obj/../src/user.c:282
            LCD_SmoothChangePic (70, 70, 100, 100, 3, gImage_7, gImage_6, 0);
    359c:	4881                	li	a7,0
    359e:	00001817          	auipc	a6,0x1
    35a2:	13e80813          	addi	a6,a6,318 # 46dc <gImage_6>
    35a6:	00006797          	auipc	a5,0x6
    35aa:	f5678793          	addi	a5,a5,-170 # 94fc <gImage_7>
    35ae:	470d                	li	a4,3
    35b0:	06400693          	li	a3,100
    35b4:	06400613          	li	a2,100
    35b8:	04600593          	li	a1,70
    35bc:	04600513          	li	a0,70
    35c0:	1fffe097          	auipc	ra,0x1fffe
    35c4:	c86080e7          	jalr	-890(ra) # 20001246 <LCD_SmoothChangePic>
    35c8:	a081                	j	3608 <show_gesture_changepic_100+0x488>
c:\Users\ql\Desktop\工作\1.28IPS电容触摸技术资料\新建文件夹\CH582M\obj/../src/user.c:283
        } else if (imagestatue == 3) {
    35ca:	1ffff797          	auipc	a5,0x1ffff
    35ce:	0ae78793          	addi	a5,a5,174 # 20002678 <imagestatue>
    35d2:	0007c703          	lbu	a4,0(a5)
    35d6:	478d                	li	a5,3
    35d8:	02f71863          	bne	a4,a5,3608 <show_gesture_changepic_100+0x488>
c:\Users\ql\Desktop\工作\1.28IPS电容触摸技术资料\新建文件夹\CH582M\obj/../src/user.c:284
            LCD_SmoothChangePic (70, 70, 100, 100, 3, gImage_8, gImage_7, 0);
    35dc:	4881                	li	a7,0
    35de:	00006817          	auipc	a6,0x6
    35e2:	f1e80813          	addi	a6,a6,-226 # 94fc <gImage_7>
    35e6:	0000b797          	auipc	a5,0xb
    35ea:	d3678793          	addi	a5,a5,-714 # e31c <gImage_8>
    35ee:	470d                	li	a4,3
    35f0:	06400693          	li	a3,100
    35f4:	06400613          	li	a2,100
    35f8:	04600593          	li	a1,70
    35fc:	04600513          	li	a0,70
    3600:	1fffe097          	auipc	ra,0x1fffe
    3604:	c46080e7          	jalr	-954(ra) # 20001246 <LCD_SmoothChangePic>
c:\Users\ql\Desktop\工作\1.28IPS电容触摸技术资料\新建文件夹\CH582M\obj/../src/user.c:286
        }
        imagestatue--;
    3608:	1ffff797          	auipc	a5,0x1ffff
    360c:	07078793          	addi	a5,a5,112 # 20002678 <imagestatue>
    3610:	0007c783          	lbu	a5,0(a5)
    3614:	17fd                	addi	a5,a5,-1
    3616:	0ff7f713          	andi	a4,a5,255
    361a:	1ffff797          	auipc	a5,0x1ffff
    361e:	05e78793          	addi	a5,a5,94 # 20002678 <imagestatue>
    3622:	00e78023          	sb	a4,0(a5)
c:\Users\ql\Desktop\工作\1.28IPS电容触摸技术资料\新建文件夹\CH582M\obj/../src/user.c:287
        if (imagestatue <= 0) {
    3626:	1ffff797          	auipc	a5,0x1ffff
    362a:	05278793          	addi	a5,a5,82 # 20002678 <imagestatue>
    362e:	0007c783          	lbu	a5,0(a5)
    3632:	eb81                	bnez	a5,3642 <show_gesture_changepic_100+0x4c2>
c:\Users\ql\Desktop\工作\1.28IPS电容触摸技术资料\新建文件夹\CH582M\obj/../src/user.c:288
            imagestatue = 3;
    3634:	1ffff797          	auipc	a5,0x1ffff
    3638:	04478793          	addi	a5,a5,68 # 20002678 <imagestatue>
    363c:	470d                	li	a4,3
    363e:	00e78023          	sb	a4,0(a5)
c:\Users\ql\Desktop\工作\1.28IPS电容触摸技术资料\新建文件夹\CH582M\obj/../src/user.c:290
        }
        gesturesta = 1;
    3642:	1ffff797          	auipc	a5,0x1ffff
    3646:	03e78793          	addi	a5,a5,62 # 20002680 <_edata>
    364a:	4705                	li	a4,1
    364c:	00e78023          	sb	a4,0(a5)
c:\Users\ql\Desktop\工作\1.28IPS电容触摸技术资料\新建文件夹\CH582M\obj/../src/user.c:291
        DelayMs (100);
    3650:	06400513          	li	a0,100
    3654:	1ffff097          	auipc	ra,0x1ffff
    3658:	bb0080e7          	jalr	-1104(ra) # 20002204 <mDelaymS>
c:\Users\ql\Desktop\工作\1.28IPS电容触摸技术资料\新建文件夹\CH582M\obj/../src/user.c:293
    }
    if (gesture == LONG_PRESS && gesturesta == 0) {
    365c:	fef44703          	lbu	a4,-17(s0)
    3660:	47b1                	li	a5,12
    3662:	02f71f63          	bne	a4,a5,36a0 <show_gesture_changepic_100+0x520>
c:\Users\ql\Desktop\工作\1.28IPS电容触摸技术资料\新建文件夹\CH582M\obj/../src/user.c:293 (discriminator 1)
    3666:	1ffff797          	auipc	a5,0x1ffff
    366a:	01a78793          	addi	a5,a5,26 # 20002680 <_edata>
    366e:	0007c783          	lbu	a5,0(a5)
    3672:	e79d                	bnez	a5,36a0 <show_gesture_changepic_100+0x520>
c:\Users\ql\Desktop\工作\1.28IPS电容触摸技术资料\新建文件夹\CH582M\obj/../src/user.c:294
        LCD_Fill (70, 70, 170, 170, WHITE);
    3674:	67c1                	lui	a5,0x10
    3676:	fff78713          	addi	a4,a5,-1 # ffff <gImage_8+0x1ce3>
    367a:	0aa00693          	li	a3,170
    367e:	0aa00613          	li	a2,170
    3682:	04600593          	li	a1,70
    3686:	04600513          	li	a0,70
    368a:	1fffd097          	auipc	ra,0x1fffd
    368e:	648080e7          	jalr	1608(ra) # 20000cd2 <LCD_Fill>
c:\Users\ql\Desktop\工作\1.28IPS电容触摸技术资料\新建文件夹\CH582M\obj/../src/user.c:297
        // LCD_ShowPicture (0, 0, 240, 240, gImage_9);
        // imagestatue = 0;
        gesturesta = 1;
    3692:	1ffff797          	auipc	a5,0x1ffff
    3696:	fee78793          	addi	a5,a5,-18 # 20002680 <_edata>
    369a:	4705                	li	a4,1
    369c:	00e78023          	sb	a4,0(a5)
c:\Users\ql\Desktop\工作\1.28IPS电容触摸技术资料\新建文件夹\CH582M\obj/../src/user.c:299
    }
    36a0:	0001                	nop
    36a2:	40f2                	lw	ra,28(sp)
    36a4:	4462                	lw	s0,24(sp)
    36a6:	6105                	addi	sp,sp,32
    36a8:	8082                	ret

000036aa <GPIOA_ModeCfg>:
GPIOA_ModeCfg():
c:\Users\ql\Desktop\工作\1.28IPS电容触摸技术资料\新建文件夹\CH582M\obj/../StdPeriphDriver/CH58x_gpio.c:26
 * @param   mode    - 输入输出类型
 *
 * @return  none
 */
void GPIOA_ModeCfg(uint32_t pin, GPIOModeTypeDef mode)
{
    36aa:	1101                	addi	sp,sp,-32
    36ac:	ce22                	sw	s0,28(sp)
    36ae:	1000                	addi	s0,sp,32
    36b0:	fea42623          	sw	a0,-20(s0)
    36b4:	feb42423          	sw	a1,-24(s0)
c:\Users\ql\Desktop\工作\1.28IPS电容触摸技术资料\新建文件夹\CH582M\obj/../StdPeriphDriver/CH58x_gpio.c:27
    switch(mode)
    36b8:	fe842703          	lw	a4,-24(s0)
    36bc:	4791                	li	a5,4
    36be:	1ae7e063          	bltu	a5,a4,385e <GPIOA_ModeCfg+0x1b4>
    36c2:	fe842783          	lw	a5,-24(s0)
    36c6:	00279713          	slli	a4,a5,0x2
    36ca:	00010797          	auipc	a5,0x10
    36ce:	a7278793          	addi	a5,a5,-1422 # 1313c <gImage_8+0x4e20>
    36d2:	97ba                	add	a5,a5,a4
    36d4:	4398                	lw	a4,0(a5)
    36d6:	00010797          	auipc	a5,0x10
    36da:	a6678793          	addi	a5,a5,-1434 # 1313c <gImage_8+0x4e20>
    36de:	97ba                	add	a5,a5,a4
    36e0:	8782                	jr	a5
c:\Users\ql\Desktop\工作\1.28IPS电容触摸技术资料\新建文件夹\CH582M\obj/../StdPeriphDriver/CH58x_gpio.c:30
    {
        case GPIO_ModeIN_Floating:
            R32_PA_PD_DRV &= ~pin;
    36e2:	400017b7          	lui	a5,0x40001
    36e6:	0b478793          	addi	a5,a5,180 # 400010b4 <_eusrstack+0x1fff90b4>
    36ea:	4394                	lw	a3,0(a5)
    36ec:	fec42783          	lw	a5,-20(s0)
    36f0:	fff7c713          	not	a4,a5
    36f4:	400017b7          	lui	a5,0x40001
    36f8:	0b478793          	addi	a5,a5,180 # 400010b4 <_eusrstack+0x1fff90b4>
    36fc:	8f75                	and	a4,a4,a3
    36fe:	c398                	sw	a4,0(a5)
c:\Users\ql\Desktop\工作\1.28IPS电容触摸技术资料\新建文件夹\CH582M\obj/../StdPeriphDriver/CH58x_gpio.c:31
            R32_PA_PU &= ~pin;
    3700:	400017b7          	lui	a5,0x40001
    3704:	0b078793          	addi	a5,a5,176 # 400010b0 <_eusrstack+0x1fff90b0>
    3708:	4394                	lw	a3,0(a5)
    370a:	fec42783          	lw	a5,-20(s0)
    370e:	fff7c713          	not	a4,a5
    3712:	400017b7          	lui	a5,0x40001
    3716:	0b078793          	addi	a5,a5,176 # 400010b0 <_eusrstack+0x1fff90b0>
    371a:	8f75                	and	a4,a4,a3
    371c:	c398                	sw	a4,0(a5)
c:\Users\ql\Desktop\工作\1.28IPS电容触摸技术资料\新建文件夹\CH582M\obj/../StdPeriphDriver/CH58x_gpio.c:32
            R32_PA_DIR &= ~pin;
    371e:	400017b7          	lui	a5,0x40001
    3722:	0a078793          	addi	a5,a5,160 # 400010a0 <_eusrstack+0x1fff90a0>
    3726:	4394                	lw	a3,0(a5)
    3728:	fec42783          	lw	a5,-20(s0)
    372c:	fff7c713          	not	a4,a5
    3730:	400017b7          	lui	a5,0x40001
    3734:	0a078793          	addi	a5,a5,160 # 400010a0 <_eusrstack+0x1fff90a0>
    3738:	8f75                	and	a4,a4,a3
    373a:	c398                	sw	a4,0(a5)
c:\Users\ql\Desktop\工作\1.28IPS电容触摸技术资料\新建文件夹\CH582M\obj/../StdPeriphDriver/CH58x_gpio.c:33
            break;
    373c:	a215                	j	3860 <GPIOA_ModeCfg+0x1b6>
c:\Users\ql\Desktop\工作\1.28IPS电容触摸技术资料\新建文件夹\CH582M\obj/../StdPeriphDriver/CH58x_gpio.c:36

        case GPIO_ModeIN_PU:
            R32_PA_PD_DRV &= ~pin;
    373e:	400017b7          	lui	a5,0x40001
    3742:	0b478793          	addi	a5,a5,180 # 400010b4 <_eusrstack+0x1fff90b4>
    3746:	4394                	lw	a3,0(a5)
    3748:	fec42783          	lw	a5,-20(s0)
    374c:	fff7c713          	not	a4,a5
    3750:	400017b7          	lui	a5,0x40001
    3754:	0b478793          	addi	a5,a5,180 # 400010b4 <_eusrstack+0x1fff90b4>
    3758:	8f75                	and	a4,a4,a3
    375a:	c398                	sw	a4,0(a5)
c:\Users\ql\Desktop\工作\1.28IPS电容触摸技术资料\新建文件夹\CH582M\obj/../StdPeriphDriver/CH58x_gpio.c:37
            R32_PA_PU |= pin;
    375c:	400017b7          	lui	a5,0x40001
    3760:	0b078793          	addi	a5,a5,176 # 400010b0 <_eusrstack+0x1fff90b0>
    3764:	4394                	lw	a3,0(a5)
    3766:	400017b7          	lui	a5,0x40001
    376a:	0b078793          	addi	a5,a5,176 # 400010b0 <_eusrstack+0x1fff90b0>
    376e:	fec42703          	lw	a4,-20(s0)
    3772:	8f55                	or	a4,a4,a3
    3774:	c398                	sw	a4,0(a5)
c:\Users\ql\Desktop\工作\1.28IPS电容触摸技术资料\新建文件夹\CH582M\obj/../StdPeriphDriver/CH58x_gpio.c:38
            R32_PA_DIR &= ~pin;
    3776:	400017b7          	lui	a5,0x40001
    377a:	0a078793          	addi	a5,a5,160 # 400010a0 <_eusrstack+0x1fff90a0>
    377e:	4394                	lw	a3,0(a5)
    3780:	fec42783          	lw	a5,-20(s0)
    3784:	fff7c713          	not	a4,a5
    3788:	400017b7          	lui	a5,0x40001
    378c:	0a078793          	addi	a5,a5,160 # 400010a0 <_eusrstack+0x1fff90a0>
    3790:	8f75                	and	a4,a4,a3
    3792:	c398                	sw	a4,0(a5)
c:\Users\ql\Desktop\工作\1.28IPS电容触摸技术资料\新建文件夹\CH582M\obj/../StdPeriphDriver/CH58x_gpio.c:39
            break;
    3794:	a0f1                	j	3860 <GPIOA_ModeCfg+0x1b6>
c:\Users\ql\Desktop\工作\1.28IPS电容触摸技术资料\新建文件夹\CH582M\obj/../StdPeriphDriver/CH58x_gpio.c:42

        case GPIO_ModeIN_PD:
            R32_PA_PD_DRV |= pin;
    3796:	400017b7          	lui	a5,0x40001
    379a:	0b478793          	addi	a5,a5,180 # 400010b4 <_eusrstack+0x1fff90b4>
    379e:	4394                	lw	a3,0(a5)
    37a0:	400017b7          	lui	a5,0x40001
    37a4:	0b478793          	addi	a5,a5,180 # 400010b4 <_eusrstack+0x1fff90b4>
    37a8:	fec42703          	lw	a4,-20(s0)
    37ac:	8f55                	or	a4,a4,a3
    37ae:	c398                	sw	a4,0(a5)
c:\Users\ql\Desktop\工作\1.28IPS电容触摸技术资料\新建文件夹\CH582M\obj/../StdPeriphDriver/CH58x_gpio.c:43
            R32_PA_PU &= ~pin;
    37b0:	400017b7          	lui	a5,0x40001
    37b4:	0b078793          	addi	a5,a5,176 # 400010b0 <_eusrstack+0x1fff90b0>
    37b8:	4394                	lw	a3,0(a5)
    37ba:	fec42783          	lw	a5,-20(s0)
    37be:	fff7c713          	not	a4,a5
    37c2:	400017b7          	lui	a5,0x40001
    37c6:	0b078793          	addi	a5,a5,176 # 400010b0 <_eusrstack+0x1fff90b0>
    37ca:	8f75                	and	a4,a4,a3
    37cc:	c398                	sw	a4,0(a5)
c:\Users\ql\Desktop\工作\1.28IPS电容触摸技术资料\新建文件夹\CH582M\obj/../StdPeriphDriver/CH58x_gpio.c:44
            R32_PA_DIR &= ~pin;
    37ce:	400017b7          	lui	a5,0x40001
    37d2:	0a078793          	addi	a5,a5,160 # 400010a0 <_eusrstack+0x1fff90a0>
    37d6:	4394                	lw	a3,0(a5)
    37d8:	fec42783          	lw	a5,-20(s0)
    37dc:	fff7c713          	not	a4,a5
    37e0:	400017b7          	lui	a5,0x40001
    37e4:	0a078793          	addi	a5,a5,160 # 400010a0 <_eusrstack+0x1fff90a0>
    37e8:	8f75                	and	a4,a4,a3
    37ea:	c398                	sw	a4,0(a5)
c:\Users\ql\Desktop\工作\1.28IPS电容触摸技术资料\新建文件夹\CH582M\obj/../StdPeriphDriver/CH58x_gpio.c:45
            break;
    37ec:	a895                	j	3860 <GPIOA_ModeCfg+0x1b6>
c:\Users\ql\Desktop\工作\1.28IPS电容触摸技术资料\新建文件夹\CH582M\obj/../StdPeriphDriver/CH58x_gpio.c:48

        case GPIO_ModeOut_PP_5mA:
            R32_PA_PD_DRV &= ~pin;
    37ee:	400017b7          	lui	a5,0x40001
    37f2:	0b478793          	addi	a5,a5,180 # 400010b4 <_eusrstack+0x1fff90b4>
    37f6:	4394                	lw	a3,0(a5)
    37f8:	fec42783          	lw	a5,-20(s0)
    37fc:	fff7c713          	not	a4,a5
    3800:	400017b7          	lui	a5,0x40001
    3804:	0b478793          	addi	a5,a5,180 # 400010b4 <_eusrstack+0x1fff90b4>
    3808:	8f75                	and	a4,a4,a3
    380a:	c398                	sw	a4,0(a5)
c:\Users\ql\Desktop\工作\1.28IPS电容触摸技术资料\新建文件夹\CH582M\obj/../StdPeriphDriver/CH58x_gpio.c:49
            R32_PA_DIR |= pin;
    380c:	400017b7          	lui	a5,0x40001
    3810:	0a078793          	addi	a5,a5,160 # 400010a0 <_eusrstack+0x1fff90a0>
    3814:	4394                	lw	a3,0(a5)
    3816:	400017b7          	lui	a5,0x40001
    381a:	0a078793          	addi	a5,a5,160 # 400010a0 <_eusrstack+0x1fff90a0>
    381e:	fec42703          	lw	a4,-20(s0)
    3822:	8f55                	or	a4,a4,a3
    3824:	c398                	sw	a4,0(a5)
c:\Users\ql\Desktop\工作\1.28IPS电容触摸技术资料\新建文件夹\CH582M\obj/../StdPeriphDriver/CH58x_gpio.c:50
            break;
    3826:	a82d                	j	3860 <GPIOA_ModeCfg+0x1b6>
c:\Users\ql\Desktop\工作\1.28IPS电容触摸技术资料\新建文件夹\CH582M\obj/../StdPeriphDriver/CH58x_gpio.c:53

        case GPIO_ModeOut_PP_20mA:
            R32_PA_PD_DRV |= pin;
    3828:	400017b7          	lui	a5,0x40001
    382c:	0b478793          	addi	a5,a5,180 # 400010b4 <_eusrstack+0x1fff90b4>
    3830:	4394                	lw	a3,0(a5)
    3832:	400017b7          	lui	a5,0x40001
    3836:	0b478793          	addi	a5,a5,180 # 400010b4 <_eusrstack+0x1fff90b4>
    383a:	fec42703          	lw	a4,-20(s0)
    383e:	8f55                	or	a4,a4,a3
    3840:	c398                	sw	a4,0(a5)
c:\Users\ql\Desktop\工作\1.28IPS电容触摸技术资料\新建文件夹\CH582M\obj/../StdPeriphDriver/CH58x_gpio.c:54
            R32_PA_DIR |= pin;
    3842:	400017b7          	lui	a5,0x40001
    3846:	0a078793          	addi	a5,a5,160 # 400010a0 <_eusrstack+0x1fff90a0>
    384a:	4394                	lw	a3,0(a5)
    384c:	400017b7          	lui	a5,0x40001
    3850:	0a078793          	addi	a5,a5,160 # 400010a0 <_eusrstack+0x1fff90a0>
    3854:	fec42703          	lw	a4,-20(s0)
    3858:	8f55                	or	a4,a4,a3
    385a:	c398                	sw	a4,0(a5)
c:\Users\ql\Desktop\工作\1.28IPS电容触摸技术资料\新建文件夹\CH582M\obj/../StdPeriphDriver/CH58x_gpio.c:55
            break;
    385c:	a011                	j	3860 <GPIOA_ModeCfg+0x1b6>
c:\Users\ql\Desktop\工作\1.28IPS电容触摸技术资料\新建文件夹\CH582M\obj/../StdPeriphDriver/CH58x_gpio.c:58

        default:
            break;
    385e:	0001                	nop
c:\Users\ql\Desktop\工作\1.28IPS电容触摸技术资料\新建文件夹\CH582M\obj/../StdPeriphDriver/CH58x_gpio.c:60
    }
}
    3860:	0001                	nop
    3862:	4472                	lw	s0,28(sp)
    3864:	6105                	addi	sp,sp,32
    3866:	8082                	ret

00003868 <GPIOB_ModeCfg>:
GPIOB_ModeCfg():
c:\Users\ql\Desktop\工作\1.28IPS电容触摸技术资料\新建文件夹\CH582M\obj/../StdPeriphDriver/CH58x_gpio.c:73
 * @param   mode    - 输入输出类型
 *
 * @return  none
 */
void GPIOB_ModeCfg(uint32_t pin, GPIOModeTypeDef mode)
{
    3868:	1101                	addi	sp,sp,-32
    386a:	ce22                	sw	s0,28(sp)
    386c:	1000                	addi	s0,sp,32
    386e:	fea42623          	sw	a0,-20(s0)
    3872:	feb42423          	sw	a1,-24(s0)
c:\Users\ql\Desktop\工作\1.28IPS电容触摸技术资料\新建文件夹\CH582M\obj/../StdPeriphDriver/CH58x_gpio.c:74
    switch(mode)
    3876:	fe842703          	lw	a4,-24(s0)
    387a:	4791                	li	a5,4
    387c:	1ae7e063          	bltu	a5,a4,3a1c <GPIOB_ModeCfg+0x1b4>
    3880:	fe842783          	lw	a5,-24(s0)
    3884:	00279713          	slli	a4,a5,0x2
    3888:	00010797          	auipc	a5,0x10
    388c:	8c878793          	addi	a5,a5,-1848 # 13150 <gImage_8+0x4e34>
    3890:	97ba                	add	a5,a5,a4
    3892:	4398                	lw	a4,0(a5)
    3894:	00010797          	auipc	a5,0x10
    3898:	8bc78793          	addi	a5,a5,-1860 # 13150 <gImage_8+0x4e34>
    389c:	97ba                	add	a5,a5,a4
    389e:	8782                	jr	a5
c:\Users\ql\Desktop\工作\1.28IPS电容触摸技术资料\新建文件夹\CH582M\obj/../StdPeriphDriver/CH58x_gpio.c:77
    {
        case GPIO_ModeIN_Floating:
            R32_PB_PD_DRV &= ~pin;
    38a0:	400017b7          	lui	a5,0x40001
    38a4:	0d478793          	addi	a5,a5,212 # 400010d4 <_eusrstack+0x1fff90d4>
    38a8:	4394                	lw	a3,0(a5)
    38aa:	fec42783          	lw	a5,-20(s0)
    38ae:	fff7c713          	not	a4,a5
    38b2:	400017b7          	lui	a5,0x40001
    38b6:	0d478793          	addi	a5,a5,212 # 400010d4 <_eusrstack+0x1fff90d4>
    38ba:	8f75                	and	a4,a4,a3
    38bc:	c398                	sw	a4,0(a5)
c:\Users\ql\Desktop\工作\1.28IPS电容触摸技术资料\新建文件夹\CH582M\obj/../StdPeriphDriver/CH58x_gpio.c:78
            R32_PB_PU &= ~pin;
    38be:	400017b7          	lui	a5,0x40001
    38c2:	0d078793          	addi	a5,a5,208 # 400010d0 <_eusrstack+0x1fff90d0>
    38c6:	4394                	lw	a3,0(a5)
    38c8:	fec42783          	lw	a5,-20(s0)
    38cc:	fff7c713          	not	a4,a5
    38d0:	400017b7          	lui	a5,0x40001
    38d4:	0d078793          	addi	a5,a5,208 # 400010d0 <_eusrstack+0x1fff90d0>
    38d8:	8f75                	and	a4,a4,a3
    38da:	c398                	sw	a4,0(a5)
c:\Users\ql\Desktop\工作\1.28IPS电容触摸技术资料\新建文件夹\CH582M\obj/../StdPeriphDriver/CH58x_gpio.c:79
            R32_PB_DIR &= ~pin;
    38dc:	400017b7          	lui	a5,0x40001
    38e0:	0c078793          	addi	a5,a5,192 # 400010c0 <_eusrstack+0x1fff90c0>
    38e4:	4394                	lw	a3,0(a5)
    38e6:	fec42783          	lw	a5,-20(s0)
    38ea:	fff7c713          	not	a4,a5
    38ee:	400017b7          	lui	a5,0x40001
    38f2:	0c078793          	addi	a5,a5,192 # 400010c0 <_eusrstack+0x1fff90c0>
    38f6:	8f75                	and	a4,a4,a3
    38f8:	c398                	sw	a4,0(a5)
c:\Users\ql\Desktop\工作\1.28IPS电容触摸技术资料\新建文件夹\CH582M\obj/../StdPeriphDriver/CH58x_gpio.c:80
            break;
    38fa:	a215                	j	3a1e <GPIOB_ModeCfg+0x1b6>
c:\Users\ql\Desktop\工作\1.28IPS电容触摸技术资料\新建文件夹\CH582M\obj/../StdPeriphDriver/CH58x_gpio.c:83

        case GPIO_ModeIN_PU:
            R32_PB_PD_DRV &= ~pin;
    38fc:	400017b7          	lui	a5,0x40001
    3900:	0d478793          	addi	a5,a5,212 # 400010d4 <_eusrstack+0x1fff90d4>
    3904:	4394                	lw	a3,0(a5)
    3906:	fec42783          	lw	a5,-20(s0)
    390a:	fff7c713          	not	a4,a5
    390e:	400017b7          	lui	a5,0x40001
    3912:	0d478793          	addi	a5,a5,212 # 400010d4 <_eusrstack+0x1fff90d4>
    3916:	8f75                	and	a4,a4,a3
    3918:	c398                	sw	a4,0(a5)
c:\Users\ql\Desktop\工作\1.28IPS电容触摸技术资料\新建文件夹\CH582M\obj/../StdPeriphDriver/CH58x_gpio.c:84
            R32_PB_PU |= pin;
    391a:	400017b7          	lui	a5,0x40001
    391e:	0d078793          	addi	a5,a5,208 # 400010d0 <_eusrstack+0x1fff90d0>
    3922:	4394                	lw	a3,0(a5)
    3924:	400017b7          	lui	a5,0x40001
    3928:	0d078793          	addi	a5,a5,208 # 400010d0 <_eusrstack+0x1fff90d0>
    392c:	fec42703          	lw	a4,-20(s0)
    3930:	8f55                	or	a4,a4,a3
    3932:	c398                	sw	a4,0(a5)
c:\Users\ql\Desktop\工作\1.28IPS电容触摸技术资料\新建文件夹\CH582M\obj/../StdPeriphDriver/CH58x_gpio.c:85
            R32_PB_DIR &= ~pin;
    3934:	400017b7          	lui	a5,0x40001
    3938:	0c078793          	addi	a5,a5,192 # 400010c0 <_eusrstack+0x1fff90c0>
    393c:	4394                	lw	a3,0(a5)
    393e:	fec42783          	lw	a5,-20(s0)
    3942:	fff7c713          	not	a4,a5
    3946:	400017b7          	lui	a5,0x40001
    394a:	0c078793          	addi	a5,a5,192 # 400010c0 <_eusrstack+0x1fff90c0>
    394e:	8f75                	and	a4,a4,a3
    3950:	c398                	sw	a4,0(a5)
c:\Users\ql\Desktop\工作\1.28IPS电容触摸技术资料\新建文件夹\CH582M\obj/../StdPeriphDriver/CH58x_gpio.c:86
            break;
    3952:	a0f1                	j	3a1e <GPIOB_ModeCfg+0x1b6>
c:\Users\ql\Desktop\工作\1.28IPS电容触摸技术资料\新建文件夹\CH582M\obj/../StdPeriphDriver/CH58x_gpio.c:89

        case GPIO_ModeIN_PD:
            R32_PB_PD_DRV |= pin;
    3954:	400017b7          	lui	a5,0x40001
    3958:	0d478793          	addi	a5,a5,212 # 400010d4 <_eusrstack+0x1fff90d4>
    395c:	4394                	lw	a3,0(a5)
    395e:	400017b7          	lui	a5,0x40001
    3962:	0d478793          	addi	a5,a5,212 # 400010d4 <_eusrstack+0x1fff90d4>
    3966:	fec42703          	lw	a4,-20(s0)
    396a:	8f55                	or	a4,a4,a3
    396c:	c398                	sw	a4,0(a5)
c:\Users\ql\Desktop\工作\1.28IPS电容触摸技术资料\新建文件夹\CH582M\obj/../StdPeriphDriver/CH58x_gpio.c:90
            R32_PB_PU &= ~pin;
    396e:	400017b7          	lui	a5,0x40001
    3972:	0d078793          	addi	a5,a5,208 # 400010d0 <_eusrstack+0x1fff90d0>
    3976:	4394                	lw	a3,0(a5)
    3978:	fec42783          	lw	a5,-20(s0)
    397c:	fff7c713          	not	a4,a5
    3980:	400017b7          	lui	a5,0x40001
    3984:	0d078793          	addi	a5,a5,208 # 400010d0 <_eusrstack+0x1fff90d0>
    3988:	8f75                	and	a4,a4,a3
    398a:	c398                	sw	a4,0(a5)
c:\Users\ql\Desktop\工作\1.28IPS电容触摸技术资料\新建文件夹\CH582M\obj/../StdPeriphDriver/CH58x_gpio.c:91
            R32_PB_DIR &= ~pin;
    398c:	400017b7          	lui	a5,0x40001
    3990:	0c078793          	addi	a5,a5,192 # 400010c0 <_eusrstack+0x1fff90c0>
    3994:	4394                	lw	a3,0(a5)
    3996:	fec42783          	lw	a5,-20(s0)
    399a:	fff7c713          	not	a4,a5
    399e:	400017b7          	lui	a5,0x40001
    39a2:	0c078793          	addi	a5,a5,192 # 400010c0 <_eusrstack+0x1fff90c0>
    39a6:	8f75                	and	a4,a4,a3
    39a8:	c398                	sw	a4,0(a5)
c:\Users\ql\Desktop\工作\1.28IPS电容触摸技术资料\新建文件夹\CH582M\obj/../StdPeriphDriver/CH58x_gpio.c:92
            break;
    39aa:	a895                	j	3a1e <GPIOB_ModeCfg+0x1b6>
c:\Users\ql\Desktop\工作\1.28IPS电容触摸技术资料\新建文件夹\CH582M\obj/../StdPeriphDriver/CH58x_gpio.c:95

        case GPIO_ModeOut_PP_5mA:
            R32_PB_PD_DRV &= ~pin;
    39ac:	400017b7          	lui	a5,0x40001
    39b0:	0d478793          	addi	a5,a5,212 # 400010d4 <_eusrstack+0x1fff90d4>
    39b4:	4394                	lw	a3,0(a5)
    39b6:	fec42783          	lw	a5,-20(s0)
    39ba:	fff7c713          	not	a4,a5
    39be:	400017b7          	lui	a5,0x40001
    39c2:	0d478793          	addi	a5,a5,212 # 400010d4 <_eusrstack+0x1fff90d4>
    39c6:	8f75                	and	a4,a4,a3
    39c8:	c398                	sw	a4,0(a5)
c:\Users\ql\Desktop\工作\1.28IPS电容触摸技术资料\新建文件夹\CH582M\obj/../StdPeriphDriver/CH58x_gpio.c:96
            R32_PB_DIR |= pin;
    39ca:	400017b7          	lui	a5,0x40001
    39ce:	0c078793          	addi	a5,a5,192 # 400010c0 <_eusrstack+0x1fff90c0>
    39d2:	4394                	lw	a3,0(a5)
    39d4:	400017b7          	lui	a5,0x40001
    39d8:	0c078793          	addi	a5,a5,192 # 400010c0 <_eusrstack+0x1fff90c0>
    39dc:	fec42703          	lw	a4,-20(s0)
    39e0:	8f55                	or	a4,a4,a3
    39e2:	c398                	sw	a4,0(a5)
c:\Users\ql\Desktop\工作\1.28IPS电容触摸技术资料\新建文件夹\CH582M\obj/../StdPeriphDriver/CH58x_gpio.c:97
            break;
    39e4:	a82d                	j	3a1e <GPIOB_ModeCfg+0x1b6>
c:\Users\ql\Desktop\工作\1.28IPS电容触摸技术资料\新建文件夹\CH582M\obj/../StdPeriphDriver/CH58x_gpio.c:100

        case GPIO_ModeOut_PP_20mA:
            R32_PB_PD_DRV |= pin;
    39e6:	400017b7          	lui	a5,0x40001
    39ea:	0d478793          	addi	a5,a5,212 # 400010d4 <_eusrstack+0x1fff90d4>
    39ee:	4394                	lw	a3,0(a5)
    39f0:	400017b7          	lui	a5,0x40001
    39f4:	0d478793          	addi	a5,a5,212 # 400010d4 <_eusrstack+0x1fff90d4>
    39f8:	fec42703          	lw	a4,-20(s0)
    39fc:	8f55                	or	a4,a4,a3
    39fe:	c398                	sw	a4,0(a5)
c:\Users\ql\Desktop\工作\1.28IPS电容触摸技术资料\新建文件夹\CH582M\obj/../StdPeriphDriver/CH58x_gpio.c:101
            R32_PB_DIR |= pin;
    3a00:	400017b7          	lui	a5,0x40001
    3a04:	0c078793          	addi	a5,a5,192 # 400010c0 <_eusrstack+0x1fff90c0>
    3a08:	4394                	lw	a3,0(a5)
    3a0a:	400017b7          	lui	a5,0x40001
    3a0e:	0c078793          	addi	a5,a5,192 # 400010c0 <_eusrstack+0x1fff90c0>
    3a12:	fec42703          	lw	a4,-20(s0)
    3a16:	8f55                	or	a4,a4,a3
    3a18:	c398                	sw	a4,0(a5)
c:\Users\ql\Desktop\工作\1.28IPS电容触摸技术资料\新建文件夹\CH582M\obj/../StdPeriphDriver/CH58x_gpio.c:102
            break;
    3a1a:	a011                	j	3a1e <GPIOB_ModeCfg+0x1b6>
c:\Users\ql\Desktop\工作\1.28IPS电容触摸技术资料\新建文件夹\CH582M\obj/../StdPeriphDriver/CH58x_gpio.c:105

        default:
            break;
    3a1c:	0001                	nop
c:\Users\ql\Desktop\工作\1.28IPS电容触摸技术资料\新建文件夹\CH582M\obj/../StdPeriphDriver/CH58x_gpio.c:107
    }
}
    3a1e:	0001                	nop
    3a20:	4472                	lw	s0,28(sp)
    3a22:	6105                	addi	sp,sp,32
    3a24:	8082                	ret
    3a26:	0000                	unimp
    3a28:	ed86                	fsw	ft1,216(sp)
    3a2a:	ffff                	0xffff
    3a2c:	ed4e                	fsw	fs3,152(sp)
    3a2e:	ffff                	0xffff
    3a30:	ed56                	fsw	fs5,152(sp)
    3a32:	ffff                	0xffff
    3a34:	ed5e                	fsw	fs7,152(sp)
    3a36:	ffff                	0xffff
    3a38:	ed66                	fsw	fs9,152(sp)
    3a3a:	ffff                	0xffff
    3a3c:	ed6e                	fsw	fs11,152(sp)
    3a3e:	ffff                	0xffff
    3a40:	ed86                	fsw	ft1,216(sp)
    3a42:	ffff                	0xffff
    3a44:	ed86                	fsw	ft1,216(sp)
    3a46:	ffff                	0xffff
    3a48:	ed86                	fsw	ft1,216(sp)
    3a4a:	ffff                	0xffff
    3a4c:	ed86                	fsw	ft1,216(sp)
    3a4e:	ffff                	0xffff
    3a50:	ed86                	fsw	ft1,216(sp)
    3a52:	ffff                	0xffff
    3a54:	ed76                	fsw	ft9,152(sp)
    3a56:	ffff                	0xffff
    3a58:	ed7e                	fsw	ft11,152(sp)
    3a5a:	ffff                	0xffff

00003a5c <gImage_1>:
    3a5c:	ffff ffff ffff ffff ffff ffff ffff ffff     ................
    3a6c:	ffff ffff ffff ffff ffff ffff ffff bef7     ................
    3a7c:	ffff deff 38c6 928c 8e6b 6e6b 107c 96ad     .....8..k.kn|...
    3a8c:	3ce7 ffff ffff ffff ffff ffff ffff ffff     .<..............
    3a9c:	ffff ffff ffff ffff ffff ffff ffff ffff     ................
    3aac:	ffff ffff ffff ffff ffff ffff ffff ffff     ................
    3abc:	ffff ffff ffff ffff ffff ffff ffff 5def     ...............]
    3acc:	159d 4f63 6c42 0a32 8829 4619 2519 4521     ..cOBl2.)..F.%!E
    3adc:	e831 8e6b 38c6 ffff ffff ffff ffff ffff     1.k..8..........
    3aec:	ffff ffff ffff ffff ffff ffff ffff ffff     ................
    3afc:	ffff ffff ffff ffff ffff ffff ffff ffff     ................
    3b0c:	ffff ffff ffff ffff ffff ffff 36a5 1053     .............6S.
    3b1c:	104b 5153 0f4b 6c3a e931 6721 2519 e410     K.SQK.:l1.!g.%..
    3b2c:	a308 6200 8308 cb52 9ad6 ffff ffff ffff     ...b..R.........
    3b3c:	ffff ffff ffff ffff ffff ffff ffff ffff     ................
    3b4c:	ffff ffff ffff ffff ffff ffff ffff ffff     ................
    3b5c:	ffff ffff ffff ffff 3ce7 7063 b363 b87c     .........<cpc.|.
    3b6c:	f563 1143 4d32 ea29 8821 2619 0519 0519     c.C.2M).!..&....
    3b7c:	0411 0411 e410 8300 a308 728c ffff ffff     ...........r....
    3b8c:	ffff ffff ffff ffff ffff ffff ffff ffff     ................
    3b9c:	ffff ffff ffff ffff ffff ffff ffff ffff     ................
    3bac:	ffff ffff ffff dbde 4b3a f042 356c 544b     ........:KB.l5KT
    3bbc:	b132 2e2a eb21 a921 6719 0519 0411 0411     2.*.!.!..g......
    3bcc:	0411 0411 0411 0519 e410 4200 af73 ffff     ...........Bs...
    3bdc:	ffff ffff ffff ffff ffff ffff ffff ffff     ................
    3bec:	ffff ffff ffff ffff ffff ffff ffff ffff     ................
    3bfc:	ffff ffff 5def 0932 4c32 104b 8f32 4f2a     .....]2.2LK.2.*O
    3c0c:	2e2a cc19 8919 8921 4719 0519 0411 0411     *.....!..G......
    3c1c:	c410 c410 0411 0411 0411 e410 4200 3184     .............B.1
    3c2c:	ffff ffff ffff ffff ffff ffff ffff ffff     ................
    3c3c:	ffff ffff ffff ffff ffff ffff ffff ffff     ................
    3c4c:	ffff ffff ec52 4719 4c32 0b2a ec21 ec21     ....R..G2L*.!.!.
    3c5c:	0c22 915b ee4a 0611 2619 0419 e410 e410     ".[.J....&......
    3c6c:	a729 6621 a308 0519 0411 0411 e410 8200     ).!f............
    3c7c:	f7bd ffff ffff ffff ffff ffff ffff ffff     ................
    3c8c:	ffff ffff ffff ffff ffff ffff ffff ffff     ................
    3c9c:	ffff 35a5 8308 8821 8821 8921 aa21 8a21     ...5..!.!.!.!.!.
    3cac:	6b42 718c ffff 728c 8308 0411 c408 2942     Bk.q...r......B)
    3cbc:	fbde 5def ec5a 8308 0411 0411 0411 8308     ...]Z...........
    3ccc:	e831 dfff ffff ffff ffff ffff ffff ffff     1...............
    3cdc:	ffff ffff ffff ffff ffff ffff ffff ffff     ................
    3cec:	bef7 c731 c410 2519 2619 4719 4719 a829     ..1....%.&.G.G).
    3cfc:	8a52 284a 55ad ffff e831 a308 0519 4d6b     R.J(.U..1.....kM
    3d0c:	4d6b ffff 7def 4521 c410 0411 0411 0411     kM...}!E........
    3d1c:	6200 76ad ffff ffff ffff ffff ffff ffff     .b.v............
    3d2c:	ffff ffff ffff ffff ffff ffff ffff ffff     ................
    3d3c:	96b5 6200 0411 0419 0511 0519 c408 8b4a     ...b..........J.
    3d4c:	b6b5 5def f7bd ffff 8e6b 6200 2942 aa5a     ...]....k..bB)Z.
    3d5c:	0842 ffff ffff cc52 8308 0411 0411 0411     B.....R.........
    3d6c:	a308 ad52 ffff ffff ffff ffff ffff ffff     ..R.............
    3d7c:	ffff ffff ffff 1ce7 ffff ffff ffff ffff     ................
    3d8c:	4e63 6200 0411 0411 0411 e410 6200 8e63     cN.b.........bc.
    3d9c:	ffff ffff ffff ffff cf73 0100 f39c 2c63     ........s.....c,
    3dac:	96b5 ffff ffff 2d5b 8300 0411 0411 0411     ......[-........
    3dbc:	e410 6721 3def ffff ffff ffff ffff ffff     ..!g.=..........
    3dcc:	f8bd b7b5 9eef cb52 b394 ffff ffff dfff     ......R.........
    3ddc:	e831 a308 0411 0411 0411 0411 a308 4942     1.............BI
    3dec:	fff7 fff7 ffff ffff 6a4a 0100 7284 ffff     ........Jj...r..
    3dfc:	ffff fff7 dfef 093a a308 0411 0411 0411     ......:.........
    3e0c:	0411 0511 18be ffff ffff ffff ffff ffff     ................
    3e1c:	f07b 6200 e831 c731 4100 35a5 ffff 5def     {..b1.1..A.5...]
    3e2c:	4621 c410 0411 0411 0411 0411 e410 a308     !F..............
    3e3c:	769d fff7 ffff b7ad a308 a308 c731 9ee7     .v..........1...
    3e4c:	fff7 fff7 76a5 a308 e410 0411 0411 0411     .....v..........
    3e5c:	0511 0511 35a5 ffff ffff ffff ffff ffff     .....5..........
    3e6c:	dbde a729 8300 c410 c410 c410 1ce7 9eef     ..).............
    3e7c:	0511 e410 0411 0411 0411 0411 0419 c408     ................
    3e8c:	e510 d16b d16b c508 6400 a508 4300 2b32     ..k.k....d...C2+
    3e9c:	779d b384 2519 c410 0411 0411 0411 0411     .w...%..........
    3eac:	2519 2609 359d ffff ffff ffff ffff ffff     .%.&.5..........
    3ebc:	ffff af73 6200 0419 0519 8200 0d5b 8e9b     ..s..b......[...
    3ecc:	6210 0511 0411 0411 0419 e410 8500 0511     .b..............
    3edc:	c439 815a 407b 229c 43ac 03a4 839b 8272     9.Z.{@.".C....r.
    3eec:	8249 c218 a400 c500 e410 0419 0411 0519     I...............
    3efc:	4719 6711 ec5a beff ffff ffff ffff ffff     .G.gZ...........
    3f0c:	dfff dbde c410 e410 0411 0511 a418 01c0     ................
    3f1c:	8388 e400 0519 0419 c508 4421 4383 23d5     ..........!D.C.#
    3f2c:	42fe e4fe 27ff 07ff a4fe 64fe 03fe a3fd     .B...'.....d....
    3f3c:	e2fc 42ec 83b3 2462 e510 c408 0419 2619     ...B..b$.......&
    3f4c:	a819 8721 0090 d3bc ffff ffff ffff ffff     ..!.............
    3f5c:	dfff ffff 107c 4200 0519 0511 8328 01d0     ....|..B....(...
    3f6c:	44f8 a348 e400 c508 445a 02ed e2fd 02fe     .DH.....ZD......
    3f7c:	66fe 74ff b8ff 73ff e7f6 a6f6 45f6 a4f5     .f.t...s.....E..
    3f8c:	c3fc 62fc c2fc c2fc e3cb c449 0611 8819     ...b......I.....
    3f9c:	8701 a490 01f8 ec9a ffff ffff ffff ffff     ................
    3fac:	ffff ffff bef7 e831 8300 0509 8240 01c0     ......1.....@...
    3fbc:	23f8 85f0 a348 a400 445a 02fd 23cc c2dc     .#..H...ZD...#..
    3fcc:	04fe 28fe 48f6 46f6 24f6 e4f5 64fd e3fc     ...(.H.F.$...d..
    3fdc:	62fc c2fc 02e4 02dc e2fc a47a 4801 6701     .b........z..H.g
    3fec:	c478 24f8 02f8 84b0 7de7 ffff ffff ffff     x..$.....}......
    3ffc:	ffff ffff ffff dbde 2519 a300 c438 02e0     .........%..8...
    400c:	22d8 44f8 a6f8 a478 6300 4321 8372 8339     .".D..x..c!Cr.9.
    401c:	829b 21f5 61fd 22fd e2fc a2fc 42fc 42fc     ...!.a.".....B.B
    402c:	42fc 22ab 8341 c392 0452 2601 2519 a498     .B."A...R..&.%..
    403c:	44f8 23f8 02f8 a4d0 9eef ffff ffff ffff     .D.#............
    404c:	ffff ffff ffff ffff 9ad6 8729 a500 43b8     ..........)....C
    405c:	22f8 23e0 65f8 e8f8 07c9 8348 4200 a300     .".#.e....H..B..
    406c:	8400 6329 a27a 62b3 a2cb 62d3 02bb 828a     ..)cz..b...b....
    407c:	8339 a400 e500 e500 e508 c460 64d8 44f8     9.........`..d.D
    408c:	24f8 23f8 02f8 8388 dbc6 ffff ffff ffff     .$.#............
    409c:	ffff ffff ffff ffff ffff 3de7 505b 0831     ...........=[P1.
    40ac:	23e8 43f8 44f0 65f8 09f9 abf9 89d1 0689     .#.C.D.e........
    40bc:	a348 4218 0200 4200 6100 8200 6200 6200     H..B...B.a...b.b
    40cc:	8300 a320 c450 a588 85d8 65f8 44f8 44f8     .. .P......e.D.D
    40dc:	23f8 23f8 03d0 8210 c729 5def ffff ffff     .#.#....)..]....
    40ec:	ffff ffff ffff ffff ffff ffff ffff 6c32     ..............2l
    40fc:	a538 02d8 23f8 65f8 66f8 a7f8 4af9 0cfa     8....#.e.f...J..
    410c:	4dfa 4cea 0bd2 a9b9 68b1 47a9 27b1 07b9     .M.L.....h.G.'..
    411c:	07d1 e7e8 c7f8 a7f8 65f8 65f8 44f8 23f8     .........e.e.D.#
    412c:	03f8 02d0 a328 0509 c408 ec5a ffff ffff     ....(.....Z.....
    413c:	ffff ffff ffff ffff ffff ffff fbde 0519     ................
    414c:	c400 a741 e6c0 03f8 86f8 a7f8 87f8 86f8     ..A.............
    415c:	c7f8 29f9 8af9 abf9 abf9 8bf9 6af9 29f9     ...).........j.)
    416c:	08f9 c7f8 a6f8 86f8 65f8 64f8 23f8 02f0     .........e.d.#..
    417c:	06b1 2529 e400 e410 2519 2519 149d ffff     ..)%.....%.%....
    418c:	ffff ffff ffff ffff ffff ffff 96ad 6200     ...............b
    419c:	8208 3595 bace 8ba2 44d0 25f8 87f8 a7f8     ...5.....D.%....
    41ac:	c7f8 a7f8 87f8 86f8 86f8 86f8 87f8 a7f8     ................
    41bc:	a7f8 a6f8 85f8 65f8 64f8 24f0 64b8 0d93     .......e.d.$.d..
    41cc:	bbb6 cf63 8308 0411 e410 6621 493a 5def     ..c.......!f:I.]
    41dc:	ffff ffff ffff ffff ffff ffff d394 4200     ...............B
    41ec:	e410 bbce ffff bee7 76b5 ccaa 07c1 45e0     .........v.....E
    41fc:	45f8 46f8 66f8 86f8 86f8 86f8 86f8 65f8     .E.F.f.........e
    420c:	45f8 65f8 65e8 44d0 43a8 0188 8290 3cd7     .E.e.e.D.C.....<
    421c:	ffef 5595 8308 0411 0411 0519 4619 b394     ...U.........F..
    422c:	ffff ffff ffff ffff ffff ffff b394 4100     ...............A
    423c:	8621 5ddf ffff ffff ffff dfe7 7ac6 d3b4     !..].........z..
    424c:	4eb3 2ac2 68d1 e6e0 a6e8 a5e8 a5e8 e6d8     .N.*.h..........
    425c:	88c9 06a9 22a8 02a8 00a0 00c8 00d8 f7e5     ....."..........
    426c:	ffe7 f8ad c410 e410 0411 e410 0511 8b4a     ..............J.
    427c:	ffff ffff ffff ffff ffff ffff 55a5 4100     .............U.A
    428c:	a729 5ddf fff7 ffff ffff ffff ffff ffff     )..]............
    429c:	ffef 7ddf dbce 59ce f8cd d7cd f7c5 79ce     ...}...Y.......y
    42ac:	fbbe aba2 03f0 45f8 42d0 43e8 00f0 72d4     .......E.B.C...r
    42bc:	ffdf 39ae e410 e410 0411 e410 0511 8729     ...9..........).
    42cc:	ffff ffff ffff ffff ffff ffff 59ce 8308     .............Y..
    42dc:	4621 1cd7 fff7 ffff ffff ffff ffff ffff     !F..............
    42ec:	ffff ffff ffff ffff ffff ffff ffff ffff     ................
    42fc:	ffef 8bba 04f8 45f8 62e0 44f0 00f8 8edb     .......E.b.D....
    430c:	ffdf f8a5 c410 e410 e410 0411 e410 2519     ...............%
    431c:	ffff ffff ffff ffff ffff ffff bef7 8729     ..............).
    432c:	8308 39b6 fff7 dff7 ffff ffff ffff ffff     ...9............
    433c:	ffff ffff ffff ffff ffff ffff ffff ffff     ................
    434c:	bee7 4aba 03f8 45f8 64f8 44f8 00f8 6ee3     ...J...E.d.D...n
    435c:	ffd7 f48c 8308 0411 e410 e410 e410 0519     ................
    436c:	ffff ffff ffff ffff ffff ffff ffff ef73     ..............s.
    437c:	0000 7284 ffef beef dfff ffff ffff ffff     ...r............
    438c:	ffff ffff ffff ffff ffff ffff ffff ffff     ................
    439c:	dfe7 8bba 03f8 45f8 45f8 23f8 00f8 d3d4     .......E.E.#....
    43ac:	ffd7 4e5b 2100 293a 55a5 8308 c410 2519     ..[N.!:).U.....%
    43bc:	ffff ffff ffff ffff ffff ffff ffff fbde     ................
    43cc:	a308 e831 9edf 9ee7 bfef ffff ffff ffff     ..1.............
    43dc:	ffff ffff ffff ffff ffff ffff ffff ffff     ................
    43ec:	fff7 51bc 02e0 03f8 03f0 43e0 ecc2 7ecf     ...Q.......C...~
    43fc:	fcbe 4621 2100 d394 ffff 5184 0000 8729     ..!F.!.....Q..).
    440c:	ffff ffff ffff ffff ffff ffff ffff ffff     ................
    441c:	5184 0000 f48c ffef 9ee7 bfef dfff ffff     .Q..............
    442c:	ffff ffff ffff ffff ffff ffff ffff ffff     ................
    443c:	ffff 3ddf 55bd 52bc 72bc b7b5 5dc7 ffdf     ...=.U.R.r...]..
    444c:	f06b 0000 093a bff7 ffff ffff 149d 55a5     k...:..........U
    445c:	ffff ffff ffff ffff ffff ffff ffff ffff     ................
    446c:	ffff ac4a a408 bbbe dfe7 7ee7 beef dff7     ..J........~....
    447c:	dfff ffff ffff ffff ffff ffff ffff ffff     ................
    448c:	dfff dff7 ffef dfdf bfd7 9ed7 dfdf d8a5     ................
    449c:	8308 2611 dbd6 ffff ffff ffff ffff ffff     ...&............
    44ac:	ffff ffff ffff ffff ffff ffff ffff ffff     ................
    44bc:	79ee 8bdc 2131 a921 3dcf bfdf 7edf 9ee7     .y..1!!..=...~..
    44cc:	beef bfef dff7 dff7 dff7 dff7 dff7 bfef     ................
    44dc:	beef 9ee7 7edf 5ed7 5ed7 dfdf 9ab6 2619     .....~.^.^.....&
    44ec:	4208 eda3 bfff ffff ffff ffff ffff ffff     .B..............
    44fc:	ffff ffff ffff ffff ffff ffff ffff 74dd     ...............t
    450c:	c0db 00fe 42ee 0242 8921 7bb6 dfdf 7ed7     .....BB.!..{...~
    451c:	7edf 7edf 9ee7 9ee7 9ee7 9ee7 9ee7 7edf     .~.~...........~
    452c:	7edf 5dd7 5dd7 9edf ffe7 f8a5 0711 e318     .~.].]..........
    453c:	02c5 60fd e6d3 dbee ffff ffff ffff ffff     ...`............
    454c:	ffff ffff ffff ffff ffff ffff 9ef7 84ba     ................
    455c:	c1fc 42fe 82fe a2fe 8183 4521 7474 5ec7     ...B......!Ett.^
    456c:	dfdf 7ed7 5ed7 5dd7 5ed7 5ed7 5dd7 5dd7     ...~.^.].^.^.].]
    457c:	5ed7 9edf ffe7 3dc7 f163 8408 4252 26e6     .^.....=c...RB.&
    458c:	29ff 86fe e0f3 6ac3 ffff ffff ffff ffff     .).....j........
    459c:	ffff ffff ffff ffff ffff ffff 18de c1d2     ................
    45ac:	a2fd 22fe 42fe 42fe 62fe e2d4 416a 4942     ...".B.B.b..jABI
    45bc:	5374 3ba6 3ec7 bfd7 bfd7 bfd7 bfdf bfd7     tS.;.>..........
    45cc:	3ec7 1aa6 f263 a729 8241 22b4 62fe 83fe     .>..c.).A..".b..
    45dc:	aafe 0fff 67fd 63ba 3cef ffff ffff ffff     .....g.c.<......
    45ec:	ffff ffff ffff ffff ffff ffff 9ae6 80d2     ................
    45fc:	21fd c2fd e2f5 c2f5 82f5 82fd 62fd 61dc     .!...........b.a
    460c:	219b 846a e96a 2c63 af63 1174 6e63 2c63     .!j.j.c,c.t.cnc,
    461c:	895a 0452 817a c2cb e2fc 62fd 82fd c2fd     Z.R.z......b....
    462c:	c2fd e4fd 24fd 62ca 1ce7 ffff ffff ffff     .....$.b........
    463c:	ffff ffff ffff ffff ffff ffff ffff b1cc     ................
    464c:	81d2 c0f3 c1fc 02fd 02fd e2fc c2fc c2fc     ................
    465c:	81fc 80fb c0c9 a481 35ad 59ce 719c 2181     .........5.Y.q.!
    466c:	00da a1fb 82fc a2fc 82fc a2fc 02fd 22fd     ..............."
    467c:	e2fc 00fc 60da 90cc ffff ffff ffff ffff     .....`..........
    468c:	ffff ffff ffff ffff ffff ffff ffff ffff     ................
    469c:	59de 0dc4 06cb e4d2 03db 03db e3da c3d2     .Y..............
    46ac:	a4c2 09b3 d2bc 9ef7 ffff ffff ffff fbe6     ................
    46bc:	0eb4 a6ba 83d2 e3e2 02eb 22eb 22e3 03db     ..........."."..
    46cc:	e4d2 6ac3 b6d5 ffff ffff ffff ffff ffff     ...j............

000046dc <gImage_6>:
    46dc:	ffff ffff ffff ffff ffff ffff ffff ffff     ................
    46ec:	ffff ffff ffff ffff ffff ffff ffff ffff     ................
    46fc:	ffff ffff ffff ffff ffff ffff ffff ffff     ................
    470c:	ffff ffff ffff ffff ffff ffff ffff ffff     ................
    471c:	ffff ffff ffff ffff ffff ffff ffff ffff     ................
    472c:	ffff ffff ffff ffff ffff ffff ffff ffff     ................
    473c:	ffff ffff ffff ffff ffff ffff ffff ffff     ................
    474c:	ffff ffff ffff ffff ffff ffff ffff ffff     ................
    475c:	ffff ffff ffff ffff ffff ffff ffff ffff     ................
    476c:	ffff ffff ffff ffff ffff ffff ffff ffff     ................
    477c:	ffff ffff ffff ffff ffff ffff ffff ffff     ................
    478c:	ffff ffff ffff ffff ffff ffff ffff ffff     ................
    479c:	ffff ffff dfff dfff ffff ffff ffff ffff     ................
    47ac:	ffff ffff ffff ffff ffff ffff ffff ffff     ................
    47bc:	ffff ffff ffff ffff ffff ffff ffff ffff     ................
    47cc:	ffff ffff ffff ffff ffff ffff ffff ffff     ................
    47dc:	ffff dfff ffff ffff ffff ffff ffff ffff     ................
    47ec:	ffff ffff ffff ffff dfff ffff ffff ffff     ................
    47fc:	dfff 7def 1ce7 bad6 9ad6 9ad6 dbde 5def     ...}...........]
    480c:	bef7 ffff ffff ffff ffff ffff ffff ffff     ................
    481c:	ffff ffff ffff ffff ffff ffff ffff ffff     ................
    482c:	ffff ffff ffff ffff ffff ffff ffff ffff     ................
    483c:	ffff ffff ffff ffff ffff ffff ffff ffff     ................
    484c:	ffff ffff ffff ffff ffff ffff ffff ffff     ................
    485c:	ffff ffff ffff ffff ffff ffff dfff dfff     ................
    486c:	ffff ffff ffff ffff ffff ffff ffff ffff     ................
    487c:	ffff ffff ffff ffff ffff ffff ffff ffff     ................
    488c:	ffff ffff ffff ffff ffff ffff ffff ffff     ................
    489c:	ffff ffff ffff ffff dfff ffff ffff ffff     ................
    48ac:	ffff ffff ffff ffff ffff ffff ffff dfff     ................
    48bc:	dbde 75ad ae73 8a52 c739 2421 e318 a210     ...us.R.9.!$....
    48cc:	a210 8210 a210 e318 4529 2842 8e73 d39c     ........)EB(s...
    48dc:	38c6 9ef7 ffff ffff ffff ffff ffff ffff     .8..............
    48ec:	ffff ffff ffff ffff ffff ffff ffff ffff     ................
    48fc:	ffff ffff ffff ffff ffff ffff ffff ffff     ................
    490c:	ffff ffff ffff ffff ffff ffff ffff ffff     ................
    491c:	ffff ffff ffff ffff ffff ffff ffff ffff     ................
    492c:	ffff ffff ffff ffff ffff ffff ffff ffff     ................
    493c:	ffff ffff ffff ffff ffff ffff ffff ffff     ................
    494c:	ffff ffff ffff ffff ffff ffff ffff ffff     ................
    495c:	ffff ffff ffff ffff ffff ffff ffff ffff     ................
    496c:	ffff ffff dfff ffff dfff dfff ffff ffff     ................
    497c:	ffff fbde 1084 2842 c318 2000 0000 0000     ......B(... ....
	...
    49a4:	6108 8631 ae73 79ce ffff ffff dfff ffff     .a1.s..y........
    49b4:	ffff ffff ffff ffff ffff ffff ffff ffff     ................
    49c4:	ffff ffff ffff ffff ffff ffff ffff ffff     ................
    49d4:	ffff ffff ffff ffff ffff ffff ffff ffff     ................
    49e4:	ffff ffff ffff ffff ffff ffff ffff ffff     ................
    49f4:	ffff ffff ffff ffff ffff ffff ffff ffff     ................
    4a04:	ffff ffff ffff ffff ffff ffff ffff ffff     ................
    4a14:	ffff ffff ffff ffff ffff ffff ffff ffff     ................
    4a24:	ffff ffff ffff ffff ffff ffff ffff ffff     ................
    4a34:	ffff ffff ffff ffff dfff ffff dfff 79ce     ...............y
    4a44:	eb5a 8210 0000 0000 0000 0000 0000 2000     Z.............. 
	...
    4a68:	2000 2000 0000 2000 0000 4108 2842 96b5     . . ... ...AB(..
    4a78:	9ef7 ffff ffff dfff ffff ffff ffff ffff     ................
    4a88:	ffff ffff ffff ffff ffff ffff ffff ffff     ................
    4a98:	ffff ffff ffff ffff ffff ffff ffff ffff     ................
    4aa8:	ffff ffff ffff ffff ffff ffff ffff ffff     ................
    4ab8:	ffff ffff ffff ffff ffff ffff ffff ffff     ................
    4ac8:	ffff ffff ffff ffff ffff ffff ffff ffff     ................
    4ad8:	ffff ffff ffff ffff ffff ffff ffff ffff     ................
    4ae8:	ffff ffff ffff ffff ffff ffff ffff ffff     ................
    4af8:	ffff ffff ffff ffff ffff ffff ffff 9ad6     ................
    4b08:	cb5a 8210 2000 0000 0000 0000 2000 0000     Z.... ....... ..
	...
    4b34:	0000 2000 0000 0000 2000 2000 e739 b6b5     ... ..... . 9...
    4b44:	ffff ffff ffff ffff ffff ffff ffff ffff     ................
    4b54:	ffff ffff ffff ffff ffff ffff ffff ffff     ................
    4b64:	ffff ffff ffff ffff ffff ffff ffff ffff     ................
    4b74:	ffff ffff ffff ffff ffff ffff ffff ffff     ................
    4b84:	ffff ffff ffff ffff ffff ffff ffff ffff     ................
    4b94:	ffff ffff ffff ffff ffff ffff ffff ffff     ................
    4ba4:	ffff ffff ffff ffff ffff ffff ffff ffff     ................
    4bb4:	ffff ffff ffff ffff ffff ffff ffff dfff     ................
    4bc4:	ffff ffff ffff bef7 b6b5 2421 0000 2000     ..........!$... 
	...
    4bfc:	2000 0000 0000 0000 0000 0000 0000 6108     . .............a
    4c0c:	4d6b 3ce7 ffff dfff ffff dfff ffff ffff     kM.<............
    4c1c:	ffff ffff ffff ffff ffff ffff ffff ffff     ................
    4c2c:	ffff ffff ffff ffff ffff ffff ffff ffff     ................
    4c3c:	ffff ffff ffff ffff ffff ffff ffff ffff     ................
    4c4c:	ffff ffff ffff ffff ffff ffff ffff ffff     ................
    4c5c:	ffff ffff ffff ffff ffff ffff ffff ffff     ................
    4c6c:	ffff ffff ffff ffff ffff ffff ffff ffff     ................
    4c7c:	ffff ffff ffff ffff ffff ffff ffff ffff     ................
    4c8c:	ffff ffff ffff 4d6b 4108 0000 2000 0000     ......kM.A... ..
    4c9c:	2000 0000 0000 0000 0000 0000 0000 0000     . ..............
	...
    4cd4:	0000 e739 79ce ffff dfff ffff ffff ffff     ..9..y..........
    4ce4:	ffff ffff ffff ffff ffff ffff ffff ffff     ................
    4cf4:	ffff ffff ffff ffff ffff ffff ffff ffff     ................
    4d04:	ffff ffff ffff ffff ffff ffff ffff ffff     ................
    4d14:	ffff ffff ffff ffff ffff ffff ffff ffff     ................
    4d24:	ffff ffff ffff ffff ffff ffff ffff ffff     ................
    4d34:	ffff ffff ffff ffff ffff ffff ffff ffff     ................
    4d44:	ffff ffff ffff ffff ffff ffff ffff bef7     ................
    4d54:	ffff 1ce7 eb5a 0000 0000 2000 0000 0000     ....Z...... ....
	...
    4d8c:	0000 2000 0000 0000 2000 0000 0000 0000     ... ..... ......
    4d9c:	0000 0000 a210 96b5 ffff ffff ffff ffff     ................
    4dac:	ffff ffff ffff ffff ffff ffff ffff ffff     ................
    4dbc:	ffff ffff ffff ffff ffff ffff ffff ffff     ................
    4dcc:	ffff ffff ffff ffff ffff ffff ffff ffff     ................
    4ddc:	ffff ffff ffff ffff ffff ffff ffff ffff     ................
    4dec:	ffff ffff ffff ffff ffff ffff ffff ffff     ................
    4dfc:	ffff ffff ffff ffff ffff ffff ffff ffff     ................
    4e0c:	ffff ffff ffff ffff ffff ffff ffff ffff     ................
    4e1c:	bef7 6529 0000 0000 2000 2000 0000 2000     ..)e..... . ... 
	...
    4e34:	0000 2000 0000 0000 0000 0000 0000 0000     ... ............
	...
    4e58:	2000 0000 0000 0000 0000 0000 0000 0000     . ..............
    4e68:	0000 c318 75ad ffff ffff ffff ffff ffff     .....u..........
    4e78:	ffff ffff ffff ffff ffff ffff ffff ffff     ................
    4e88:	ffff ffff ffff ffff ffff ffff ffff ffff     ................
    4e98:	ffff ffff ffff ffff ffff ffff ffff ffff     ................
    4ea8:	ffff ffff ffff ffff ffff ffff ffff ffff     ................
    4eb8:	ffff ffff ffff ffff ffff ffff ffff ffff     ................
    4ec8:	ffff ffff ffff ffff ffff ffff ffff ffff     ................
    4ed8:	ffff ffff dfff ffff ffff 5def 494a 2000     ...........]JI. 
    4ee8:	0000 2000 0000 0000 0000 2000 0000 2000     ... ....... ... 
    4ef8:	0000 0000 2000 0000 0000 0000 0000 0000     ..... ..........
	...
    4f30:	2000 0000 4108 55ad ffff dfff ffff dfff     . ...A.U........
    4f40:	ffff ffff ffff ffff ffff ffff ffff ffff     ................
    4f50:	ffff ffff ffff ffff ffff ffff ffff ffff     ................
    4f60:	ffff ffff ffff ffff ffff ffff ffff ffff     ................
    4f70:	ffff ffff ffff ffff ffff ffff ffff ffff     ................
    4f80:	ffff ffff ffff ffff ffff ffff ffff ffff     ................
    4f90:	ffff ffff ffff ffff ffff ffff ffff ffff     ................
    4fa0:	ffff ffff ffff ffff bef7 694a 0000 0000     ..........Ji....
	...
    4fb8:	2000 0000 2000 0000 2000 0000 0000 0000     . ... ... ......
	...
    4ffc:	2000 e318 fbde ffff ffff ffff ffff dfff     . ..............
    500c:	ffff ffff ffff ffff ffff ffff ffff ffff     ................
    501c:	ffff ffff ffff ffff ffff ffff ffff ffff     ................
    502c:	ffff ffff ffff ffff ffff ffff ffff ffff     ................
    503c:	ffff ffff ffff ffff ffff ffff ffff ffff     ................
    504c:	ffff ffff ffff ffff ffff ffff ffff ffff     ................
    505c:	ffff ffff ffff ffff ffff ffff ffff ffff     ................
    506c:	ffff ffff 1084 0000 2000 0000 0000 0000     ......... ......
    507c:	0000 4108 0000 0000 2000 2000 0000 0000     ...A..... . ....
    508c:	0000 0000 0000 2000 0000 2000 0000 0000     ....... ... ....
	...
    50a4:	0000 2000 0000 0000 0000 0000 0000 0000     ... ............
	...
    50c8:	cb5a ffff ffff ffff ffff ffff ffff ffff     Z...............
    50d8:	ffff ffff ffff ffff ffff ffff ffff ffff     ................
    50e8:	ffff ffff ffff ffff ffff ffff ffff ffff     ................
    50f8:	ffff ffff ffff ffff ffff ffff ffff ffff     ................
    5108:	ffff ffff ffff ffff ffff ffff ffff ffff     ................
    5118:	ffff ffff ffff ffff ffff ffff ffff ffff     ................
    5128:	ffff ffff ffff ffff ffff ffff dfff d7bd     ................
    5138:	6108 0000 0000 0000 0000 0000 0000 0000     .a..............
    5148:	0000 2000 0000 0000 0000 2421 494a a631     ... ......!$JI1.
    5158:	8210 0000 0000 0000 0000 2000 0000 0000     ........... ....
    5168:	0000 0000 4108 0000 0000 a631 2842 6529     .....A....1.B()e
    5178:	2000 0000 0000 0000 0000 0000 0000 0000     . ..............
    5188:	0000 0000 2000 2000 2000 ef7b dfff ffff     ..... . . {.....
    5198:	dfff ffff ffff ffff ffff ffff ffff ffff     ................
    51a8:	ffff ffff ffff ffff ffff ffff ffff ffff     ................
    51b8:	ffff ffff ffff ffff ffff ffff ffff ffff     ................
    51c8:	ffff ffff ffff ffff ffff ffff ffff ffff     ................
    51d8:	ffff ffff ffff ffff ffff ffff ffff ffff     ................
    51e8:	ffff ffff ffff ffff ffff ffff ffff ffff     ................
    51f8:	ffff ffff 5def 4529 2000 2000 2000 0000     .....])E. . . ..
    5208:	0000 0000 0000 2000 2000 2000 0000 4108     ....... . . ...A
    5218:	d39c 3ce7 ffff dfff 75ad c739 0000 0000     ...<.....u9.....
    5228:	2000 0000 0000 2000 0000 0000 2000 c318     . ..... ..... ..
    5238:	718c 9ef7 ffff 7def 55ad c318 0000 0000     .q.....}.U......
	...
    5254:	0000 2000 4108 4108 38c6 ffff dfff ffff     ... .A.A.8......
    5264:	ffff ffff ffff ffff ffff ffff ffff ffff     ................
    5274:	ffff ffff ffff ffff ffff ffff ffff ffff     ................
    5284:	ffff ffff ffff ffff ffff ffff ffff ffff     ................
    5294:	ffff ffff ffff ffff ffff ffff ffff ffff     ................
    52a4:	ffff ffff ffff ffff ffff ffff ffff ffff     ................
    52b4:	ffff ffff ffff ffff ffff ffff ffff ffff     ................
    52c4:	14a5 0000 0000 0000 0000 0000 0000 0000     ................
    52d4:	0000 0000 2000 0000 6108 3084 ffff ffff     ..... ...a.0....
    52e4:	ffff ffff ffff fbde 8631 2000 0000 0000     ........1.. ....
    52f4:	2000 0000 0000 0000 6108 59ce ffff ffff     . .......a.Y....
    5304:	ffff dfff ffff 18c6 c318 0000 0000 0000     ................
	...
    5324:	eb5a bef7 ffff dfff ffff ffff ffff ffff     Z...............
    5334:	ffff ffff ffff ffff ffff ffff ffff ffff     ................
    5344:	ffff ffff ffff ffff ffff ffff ffff ffff     ................
    5354:	ffff ffff ffff ffff ffff ffff ffff ffff     ................
    5364:	ffff ffff ffff ffff ffff ffff ffff ffff     ................
    5374:	ffff ffff ffff ffff ffff ffff ffff ffff     ................
    5384:	ffff ffff ffff 3ce7 a210 2000 0000 0000     .......<... ....
	...
    539c:	0000 2000 0000 0000 eb5a bef7 ffff dfff     ... ....Z.......
    53ac:	ffff ffff dfff ffff 75ad 0000 0000 0000     .........u......
	...
    53c4:	4d6b ffff bef7 dfff dfff ffff dfff ffff     kM..............
    53d4:	d39c 4108 0000 0000 0000 0000 0000 0000     ...A............
	...
    53ec:	2000 14a5 ffff dfff ffff dfff ffff ffff     . ..............
    53fc:	ffff ffff ffff ffff ffff ffff ffff ffff     ................
    540c:	ffff ffff ffff ffff ffff ffff ffff ffff     ................
    541c:	ffff ffff ffff ffff ffff ffff ffff ffff     ................
    542c:	ffff ffff ffff ffff ffff ffff ffff ffff     ................
    543c:	ffff ffff ffff ffff ffff ffff dfff ffff     ................
    544c:	ffff ffff bef7 eb5a 2000 0000 0000 0000     ......Z.. ......
    545c:	0000 0000 0000 2000 2000 0000 2000 0000     ....... . ... ..
    546c:	bad6 ffff bef7 ffff ffff ffff ffff ffff     ................
    547c:	bef7 6529 0000 2000 0000 0000 0000 6108     ..)e... .......a
    548c:	1ce7 ffff ffff dfff dfff ffff ffff ffff     ................
    549c:	dfff 4108 2000 0000 0000 0000 0000 0000     ...A. ..........
	...
    54b4:	2000 c318 bef7 ffff dfff ffff ffff ffff     . ..............
    54c4:	ffff ffff ffff ffff ffff ffff ffff ffff     ................
    54d4:	ffff ffff ffff ffff ffff ffff ffff ffff     ................
    54e4:	ffff ffff ffff ffff ffff ffff ffff ffff     ................
    54f4:	ffff ffff ffff ffff ffff ffff ffff ffff     ................
    5504:	ffff ffff ffff ffff ffff ffff ffff ffff     ................
    5514:	ffff ffff dbde 8210 0000 0000 0000 0000     ................
	...
    5534:	ffff ffff ffff dfff ffff 3ce7 59ce 9ef7     ...........<.Y..
    5544:	ffff 34a5 0000 0000 0000 4108 0000 694a     ...4.......A..Ji
    5554:	ffff dfff ffff ffff ffff ffff ffff ffff     ................
    5564:	ffff c739 0000 0000 0000 0000 0000 0000     ..9.............
	...
    557c:	2000 4108 14a5 7def ffff ffff dfff ffff     . .A...}........
    558c:	ffff ffff ffff ffff ffff ffff ffff ffff     ................
    559c:	ffff ffff ffff ffff ffff ffff ffff ffff     ................
    55ac:	ffff ffff ffff ffff ffff ffff ffff ffff     ................
    55bc:	ffff ffff ffff ffff ffff ffff ffff ffff     ................
    55cc:	ffff ffff ffff ffff ffff ffff ffff ffff     ................
    55dc:	ffff ffff b294 0000 2000 0000 0000 0000     ......... ......
    55ec:	0000 0000 2000 0000 0000 0000 0000 a631     ..... ........1.
    55fc:	ffff ffff ffff ffff 59ce a631 a210 cb5a     .........Y1...Z.
    560c:	5def 3ce7 a210 2000 0000 2000 4108 55ad     .].<... ... .A.U
    561c:	dfff ffff ffff 5def fbde 7def ffff ffff     .......]...}....
    562c:	ffff 8e73 0000 0000 0000 0000 0000 0000     ..s.............
	...
    5644:	2000 2000 eb5a 9ef7 dfff ffff ffff ffff     . . Z...........
    5654:	ffff ffff ffff ffff ffff ffff ffff ffff     ................
    5664:	ffff ffff ffff ffff ffff ffff ffff ffff     ................
    5674:	ffff ffff ffff ffff ffff ffff ffff ffff     ................
    5684:	ffff ffff ffff ffff ffff ffff ffff ffff     ................
    5694:	ffff ffff ffff ffff ffff ffff ffff ffff     ................
    56a4:	dfff ffff 8631 0000 0000 0000 0000 0000     ....1...........
	...
    56bc:	2000 0000 0000 cb5a ffff dfff ffff ffff     . ....Z.........
    56cc:	494a 0000 2000 0000 34a5 9ef7 2421 0000     JI... ...4..!$..
    56dc:	2000 2000 6108 59ce ffff fbde 2c63 a210     . . .a.Y....c,..
    56ec:	4108 a210 0842 38c6 ffff 9294 0000 0000     .A..B..8........
	...
    570c:	0000 2000 4108 1ce7 ffff ffff ffff ffff     ... .A..........
    571c:	ffff ffff ffff ffff ffff ffff ffff ffff     ................
    572c:	ffff ffff ffff ffff ffff ffff ffff ffff     ................
    573c:	ffff ffff ffff ffff ffff ffff ffff ffff     ................
    574c:	ffff ffff ffff ffff ffff ffff ffff ffff     ................
    575c:	ffff ffff ffff ffff ffff ffff ffff ffff     ................
    576c:	ffff b6b5 0000 0000 0000 0000 0000 0000     ................
	...
    5788:	0000 aa52 ffff ffff ffff dfff a210 2000     ..R............ 
    5798:	2000 0000 6d6b dfff 0421 2000 2000 2000     . ..km..!.. . . 
    57a8:	8210 79ce bad6 c318 6108 694a eb5a a631     ...y.....aJiZ.1.
    57b8:	0000 ef7b ffff f39c 0000 0000 0000 0000     ..{.............
	...
    57d8:	2000 ae73 ffff bef7 dfff ffff ffff ffff     . s.............
    57e8:	ffff ffff ffff ffff ffff ffff ffff ffff     ................
    57f8:	ffff ffff ffff ffff ffff ffff ffff ffff     ................
    5808:	ffff ffff ffff ffff ffff ffff ffff ffff     ................
    5818:	ffff ffff ffff ffff ffff ffff ffff ffff     ................
    5828:	ffff ffff ffff ffff ffff ffff ffff 694a     ..............Ji
	...
    5850:	0000 a631 ffff ffff ffff ffff 2421 0000     ..1.........!$..
    5860:	2000 0000 ef7b 5def 0421 2000 0000 2000     . ..{..]!.. ... 
    5870:	4108 79ce 34a5 8631 18c6 ffff ffff 9ef7     .A.y.41.........
    5880:	d7bd 3ce7 ffff 518c 0000 0000 0000 0000     ...<...Q........
	...
    58a0:	2000 4108 5def ffff dfff dfff ffff ffff     . .A.]..........
    58b0:	ffff ffff ffff ffff ffff ffff ffff ffff     ................
    58c0:	ffff ffff ffff ffff ffff ffff ffff ffff     ................
    58d0:	ffff ffff ffff ffff ffff ffff ffff ffff     ................
    58e0:	ffff ffff ffff ffff ffff ffff ffff ffff     ................
    58f0:	ffff ffff ffff ffff ffff ffff fbde 8210     ................
	...
    5918:	0000 4108 ffff dfff ffff ffff 6d6b 0000     ...A........km..
    5928:	0000 4108 18c6 fbde 8210 2000 2000 2000     ...A....... . . 
    5938:	4108 75ad bef7 5def ffff ffff ffff ffff     .A.u...]........
    5948:	ffff ffff ffff 2842 0000 0000 0000 0000     ......B(........
	...
    5964:	0000 2000 0000 0000 96b5 ffff ffff ffff     ... ............
    5974:	ffff ffff ffff ffff ffff ffff ffff ffff     ................
    5984:	ffff ffff ffff ffff ffff ffff ffff ffff     ................
    5994:	ffff ffff ffff ffff ffff ffff ffff ffff     ................
    59a4:	ffff ffff ffff ffff ffff ffff ffff ffff     ................
    59b4:	ffff ffff ffff ffff ffff ffff ffff dfff     ................
    59c4:	96b5 0000 2000 0000 0000 0000 0000 0000     ..... ..........
	...
    59e4:	7def ffff fef7 ffff 7def cf7b 694a b294     .}.......}{.Ji..
    59f4:	dfff 55a5 0000 2000 2000 2000 0000 8a4a     ...U... . . ..J.
    5a04:	ffff ffff ffff ffff ffff ffff ffff ffff     ................
    5a14:	ffff 8108 2000 2000 0000 0000 0000 0000     ..... . ........
	...
    5a30:	2000 2000 6d6b ffff ffff ffff ffff ffff     . . km..........
    5a40:	ffff ffff ffff ffff ffff ffff ffff ffff     ................
    5a50:	ffff ffff ffff ffff ffff ffff ffff ffff     ................
    5a60:	ffff ffff ffff ffff ffff ffff ffff ffff     ................
    5a70:	ffff ffff ffff ffff ffff ffff ffff ffff     ................
    5a80:	ffff ffff ffff ffff dfff 9ef7 3084 0000     .............0..
	...
    5aa4:	0000 2000 0000 0000 8e7b ffff ffff bfff     ... ....{.......
    5ab4:	dfff ffff ffff ffff beff 8210 0000 0000     ................
    5ac4:	0008 2008 0008 2008 79d6 dfff ffff dfff     ... ... .y......
    5ad4:	ffff ffff ffff dfff 56ad 0100 2108 0000     .........V...!..
	...
    5afc:	494a bef7 dfff ffff ffff ffff ffff ffff     JI..............
    5b0c:	ffff ffff ffff ffff ffff ffff ffff ffff     ................
    5b1c:	ffff ffff ffff ffff ffff ffff ffff ffff     ................
    5b2c:	ffff ffff ffff ffff ffff ffff ffff ffff     ................
    5b3c:	ffff ffff ffff ffff ffff ffff ffff ffff     ................
    5b4c:	ffff ffff ffff ffff aa52 2000 0000 0000     ........R.. ....
	...
    5b6c:	4000 0000 2000 0000 8110 d6b5 ffff dfff     .@... ..........
    5b7c:	dfff dfff dfff ffff 3184 0000 2000 2100     .........1... .!
    5b8c:	2000 0000 0000 0000 494a ffff dfff ffff     . ......JI......
    5b9c:	ffff ffff ffff fbde a631 0000 0000 0000     ........1.......
	...
    5bc0:	2000 0000 2421 5def ffff ffff ffff ffff     . ..!$.]........
    5bd0:	ffff ffff ffff ffff ffff ffff ffff ffff     ................
    5be0:	ffff ffff ffff ffff ffff ffff ffff ffff     ................
    5bf0:	ffff ffff ffff ffff ffff ffff ffff ffff     ................
    5c00:	ffff ffff ffff ffff ffff ffff ffff ffff     ................
    5c10:	ffff ffff ffff ffff ffff dfff 2421 0000     ............!$..
	...
    5c34:	0100 0100 0000 0000 0000 a210 59ce ffff     .............Y..
    5c44:	ffff ffff feff 75ad e318 0000 2000 0000     .......u..... ..
    5c54:	2000 2000 2000 2000 2000 2f84 9df7 ffff     . . . . . ./....
    5c64:	ffff ffff 7def c731 0000 4000 2000 0000     .....}1....@. ..
	...
    5c8c:	6108 bad6 ffff ffff ffff ffff ffff ffff     .a..............
    5c9c:	ffff ffff ffff ffff ffff ffff ffff ffff     ................
    5cac:	ffff ffff ffff ffff ffff ffff ffff ffff     ................
    5cbc:	ffff ffff ffff ffff ffff ffff ffff ffff     ................
    5ccc:	ffff ffff ffff ffff ffff ffff ffff ffff     ................
    5cdc:	ffff ffff ffff 5def 2000 0000 0000 0000     .......]. ......
	...
    5cfc:	0008 0000 0000 0000 2000 0000 e318 8e73     ......... ....s.
    5d0c:	d7bd 55ad 4d6b 0000 0000 0000 2100 0100     ...UkM.......!..
    5d1c:	0000 2108 0000 0000 0000 0000 494a f39c     ...!........JI..
    5d2c:	54ad 508c 8631 0000 0000 0000 0000 0000     .T.P1...........
	...
    5d54:	0000 b6b5 ffff ffff ffff ffff ffff ffff     ................
    5d64:	ffff ffff ffff ffff ffff ffff ffff ffff     ................
    5d74:	ffff ffff ffff ffff ffff ffff ffff ffff     ................
    5d84:	ffff ffff ffff ffff ffff ffff ffff ffff     ................
    5d94:	ffff ffff ffff ffff ffff ffff ffff ffff     ................
    5da4:	ffff ffff ffff 18c6 0000 0000 0000 0000     ................
	...
    5dc4:	2000 0000 0000 0000 0000 2100 2100 0000     . .........!.!..
    5dd4:	0100 0000 0000 0000 0000 0000 0000 0000     ................
    5de4:	0100 0000 0000 0000 0000 0000 0000 0000     ................
    5df4:	0000 0100 0100 0100 4200 4100 2000 2000     .........B.A. . 
	...
    5e1c:	0000 cf7b ffff ffff ffff ffff ffff ffff     ..{.............
    5e2c:	ffff ffff ffff ffff ffff ffff ffff ffff     ................
    5e3c:	ffff ffff ffff ffff ffff ffff ffff ffff     ................
    5e4c:	ffff ffff ffff ffff ffff ffff ffff ffff     ................
    5e5c:	ffff ffff ffff ffff ffff ffff ffff ffff     ................
    5e6c:	ffff ffff ffff 518c 0000 0000 0000 0000     .......Q........
	...
    5e8c:	0100 0200 0200 0200 0100 0100 0000 0008     ................
    5e9c:	0000 0008 0008 4010 4018 4018 6020 8020     .......@.@.@ ` .
    5eac:	8028 6020 8028 6020 4020 4018 0010 0008     (. `(. ` @.@....
    5ebc:	2008 0000 0008 0100 0100 2200 2200 0100     . ........."."..
	...
    5ee0:	2000 0000 0000 e739 ffff ffff ffff ffff     . ....9.........
    5ef0:	ffff ffff ffff ffff ffff ffff ffff ffff     ................
    5f00:	ffff ffff ffff ffff ffff ffff ffff ffff     ................
    5f10:	ffff ffff ffff ffff ffff ffff ffff ffff     ................
    5f20:	ffff ffff ffff ffff ffff ffff ffff ffff     ................
    5f30:	ffff ffff ffff ffff ffff 0c63 0000 2000     ..........c.... 
	...
    5f54:	0000 0108 0008 0010 6028 c030 a151 436a     ........(`0.Q.jC
    5f64:	c272 638b 26a4 65b4 a5bc c5bc c5c4 e5c4     r..c.&.e........
    5f74:	c5cc c5cc a5cc 65c4 66c4 26b4 a5a3 6593     .......e.f.&...e
    5f84:	237b c272 a051 4141 a130 0010 0010 0110     {#r.Q.AA0.......
	...
    5fa8:	2000 0000 0000 a210 dfff ffff ffff ffff     . ..............
    5fb8:	ffff ffff ffff ffff ffff ffff ffff ffff     ................
    5fc8:	ffff ffff ffff ffff ffff ffff ffff ffff     ................
    5fd8:	ffff ffff ffff ffff ffff ffff ffff ffff     ................
    5fe8:	ffff ffff ffff ffff ffff ffff ffff ffff     ................
    5ff8:	ffff ffff ffff ffff ffff 4529 2000 0000     ..........)E. ..
    6008:	2000 0000 0100 0000 0000 0000 2100 0000     . ...........!..
    6018:	0008 0008 2010 e030 c372 05ac 86d4 c5dc     ..... 0.r.......
    6028:	84e5 c3ed c3f5 c3f5 a3f5 83f5 83fd 82fd     ................
    6038:	82f5 82f5 82fd 62fd 62fd 62fd 62fd 83fd     .......b.b.b.b..
    6048:	84f5 84f5 a4f5 c5f5 c5f5 64e5 e5d4 85ab     ...........d....
    6058:	8582 6159 6028 0010 0008 0000 0000 0000     ..Ya(`..........
	...
    6078:	1ce7 ffff ffff ffff ffff ffff ffff ffff     ................
    6088:	ffff ffff ffff ffff ffff ffff ffff ffff     ................
    6098:	ffff ffff ffff ffff ffff ffff ffff ffff     ................
    60a8:	ffff ffff ffff ffff ffff ffff ffff ffff     ................
    60b8:	ffff ffff ffff ffff ffff ffff ffff ffff     ................
    60c8:	9ef7 a210 0000 2000 0000 0000 0000 0000     ....... ........
    60d8:	2000 0000 0000 0008 2018 e251 869b 48dd     . ....... Q....H
    60e8:	c5ed c2ed 82fd 83fd a1fd 80fd 80f5 80fd     ................
    60f8:	80fd 60fd 60fd 40fd 40fd 60fd 60fd 60fd     ...`.`.@.@.`.`.`
    6108:	60fd 60fd 60fd 60fd 60fd 80fd 61f5 62f5     .`.`.`.`.`...a.b
    6118:	a3fd 81f5 a1f5 a3f5 a6f5 46e5 66b4 8372     ...........F.fr.
    6128:	8028 0008 2000 0000 0000 0000 0000 0000     (.... ..........
	...
    6140:	9ad6 ffff ffff ffff ffff ffff ffff ffff     ................
    6150:	ffff ffff ffff ffff ffff ffff ffff ffff     ................
    6160:	ffff ffff ffff ffff ffff ffff ffff ffff     ................
    6170:	ffff ffff ffff ffff ffff ffff ffff ffff     ................
    6180:	ffff ffff ffff ffff ffff ffff ffff ffff     ................
    6190:	3ce7 4108 0000 2000 0000 2000 0000 0000     .<.A... ... ....
    61a0:	0000 2000 2000 2110 0239 0ede 06ee 62ed     ... . .!9......b
    61b0:	a0f5 a0f5 60f5 81f5 81fd 60fd 60fd 60fd     .....`.....`.`.`
    61c0:	60fd 40fd 41fd 61fd 41fd 41fd 41fd 40fd     .`.@.A.a.A.A.A.@
    61d0:	60fd 80fd 80fd 60fd 60fd 61fd 62fd 61fd     .`.....`.`.a.b.a
    61e0:	61fd 41fd 61fd 40fd 41f5 62f5 e3e5 2cee     .a.A.a.@.A.b...,
    61f0:	0883 4118 2100 2100 0000 0000 0000 0000     ...A.!.!........
	...
    6208:	18c6 ffff ffff ffff ffff ffff ffff ffff     ................
    6218:	ffff ffff ffff ffff ffff ffff ffff ffff     ................
    6228:	ffff ffff ffff ffff ffff ffff ffff ffff     ................
    6238:	ffff ffff ffff ffff ffff ffff ffff ffff     ................
    6248:	ffff ffff ffff ffff ffff ffff ffff ffff     ................
    6258:	fbde 0000 0000 0000 0000 0000 2000 2000     ............. . 
    6268:	0000 0000 0000 0108 8028 47ac c4ed 62f5     ........(..G...b
    6278:	60f5 60f5 81fd 41fd 82fd 61fd 61fd 61fd     .`.`...A...a.a.a
    6288:	60fd 80fd 81fd 81fd 60fd 40fd 81fd 60fd     .`.......`.@...`
    6298:	60f5 80f5 80f5 80f5 61f5 61f5 81fd 81fd     .`.......a.a....
    62a8:	60fd 41fd 41fd 40fd 61f5 82f5 05ee 08cd     .`.A.A.@.a......
    62b8:	2562 2110 2100 2000 0000 0000 0000 0000     b%.!.!. ........
	...
    62d0:	96b5 ffff ffff ffff ffff ffff ffff ffff     ................
    62e0:	ffff ffff ffff ffff ffff ffff ffff ffff     ................
    62f0:	ffff ffff ffff ffff ffff ffff ffff ffff     ................
    6300:	ffff ffff ffff ffff ffff ffff ffff ffff     ................
    6310:	ffff ffff ffff ffff ffff ffff ffff ffff     ................
    6320:	dbde 0000 0000 0000 0000 0000 2000 0000     ............. ..
    6330:	2000 2000 2000 4108 0010 8028 0062 65bc     . . . .A..(.b..e
    6340:	e5ed c1f5 60fd 61fd 61fd 80fd 81fd 80fd     .....`.a.a......
    6350:	80fd 80f5 60f5 60f5 60fd 80fd 61fd 60f5     .....`.`.`...a.`
    6360:	60f5 80f5 80f5 80f5 60f5 61fd 40fd 60fd     .`.......`.a.@.`
    6370:	81fd 81fd 60f5 a1f5 e4f5 25dd 6493 2049     .....`.....%.dI 
    6380:	0010 2108 4000 0000 0000 0000 0000 0000     ...!.@..........
	...
    6398:	34a5 ffff ffff ffff ffff ffff ffff ffff     .4..............
    63a8:	ffff ffff ffff ffff ffff ffff ffff ffff     ................
    63b8:	ffff ffff ffff ffff ffff ffff ffff ffff     ................
    63c8:	ffff ffff ffff ffff ffff ffff ffff ffff     ................
    63d8:	ffff ffff ffff ffff ffff ffff ffff ffff     ................
    63e8:	bad6 2000 0000 0000 0000 0000 0000 0000     ... ............
    63f8:	0000 0000 4100 2000 2108 0008 0100 c120     .....A. .!.... .
    6408:	c36a 65b4 67ed a5fd 82f5 a1fd 81fd 80fd     j..e.g..........
    6418:	80f5 80fd 81fd 61fd 41fd 61fd 41fd 61fd     .......a.A.a.A.a
    6428:	81fd 80fd 60f5 60f5 60fd 60fd a0fd a0f5     .....`.`.`.`....
    6438:	82f5 c4f5 06f6 e6cc 238b 2049 0018 0110     .........#I ....
    6448:	0108 2000 2000 0000 0000 0000 0000 0000     ... . ..........
	...
    6460:	14a5 ffff ffff ffff ffff ffff ffff ffff     ................
    6470:	ffff ffff ffff ffff ffff ffff ffff ffff     ................
    6480:	ffff ffff ffff ffff ffff ffff ffff ffff     ................
    6490:	ffff ffff ffff ffff ffff ffff ffff ffff     ................
    64a0:	ffff ffff ffff ffff ffff ffff ffff ffff     ................
    64b0:	9ad6 0000 0000 0000 0000 0000 0000 2008     ............... 
    64c0:	0000 0000 4000 2000 0100 0108 2100 0008     .....@. .....!..
    64d0:	0008 6020 036a 449b e6d4 86f5 a4f5 c3f5     .. `j..D........
    64e0:	c2f5 81f5 81f5 61fd 61f5 60fd 60f5 80fd     .......a.a.`.`..
    64f0:	80fd 60fd 60fd 81fd 82fd 82fd c3ed c5e5     ...`.`..........
    6500:	47d5 c39b 826a a030 0010 0108 0208 0208     .G..j.0.........
    6510:	0108 0000 0000 2000 0000 0000 0000 0000     ....... ........
	...
    6528:	14a5 ffff ffff ffff ffff ffff ffff ffff     ................
    6538:	ffff ffff ffff ffff ffff ffff ffff ffff     ................
    6548:	ffff ffff ffff ffff ffff ffff ffff ffff     ................
    6558:	ffff ffff ffff ffff ffff ffff ffff ffff     ................
    6568:	ffff ffff ffff ffff ffff ffff ffff ffff     ................
    6578:	bad6 2000 2000 0000 0000 2000 2100 0000     ... . ..... .!..
    6588:	0100 2100 2000 2000 2100 2008 4100 2108     ...!. . .!. .A.!
    6598:	2000 0000 0000 2008 c028 e261 629b 44bc     . ..... (.a..b.D
    65a8:	25dd 85ed 85f5 a5fd a4f5 a3f5 c2f5 c2fd     .%..............
    65b8:	a3fd 84fd 85fd 46f5 05e5 a4dc c39b 0162     .......F......b.
    65c8:	4341 0010 0008 0108 2208 2200 2000 2100     AC.......".". .!
    65d8:	0100 0000 2000 0000 0000 0000 0000 0000     ..... ..........
	...
    65f0:	34a5 ffff ffff ffff ffff ffff ffff ffff     .4..............
    6600:	ffff ffff ffff ffff ffff ffff ffff ffff     ................
    6610:	ffff ffff ffff ffff ffff ffff ffff ffff     ................
    6620:	ffff ffff ffff ffff ffff ffff ffff ffff     ................
    6630:	ffff ffff ffff ffff ffff ffff ffff dfff     ................
    6640:	dbde 0000 4008 2000 2008 2100 2000 2000     .....@. . .!. . 
    6650:	2100 2100 2000 4000 2000 2000 2000 2000     .!.!. .@. . . . 
    6660:	2000 2000 2000 0000 0000 0000 0000 4010     . . . .........@
    6670:	e128 c351 846a 2483 a593 c493 c49b e49b     (.Q.j..$........
    6680:	8493 448b c472 c251 2139 8020 0000 0000     ...Dr.Q.9! .....
    6690:	0000 0000 0000 2100 4100 2100 2000 4000     .......!.A.!. .@
    66a0:	4000 0000 0000 0000 0000 0008 0100 0000     .@..............
    66b0:	2000 0000 0000 0000 75a5 dfff deff dfff     . .......u......
    66c0:	ffff ffff dfff ffff ffff ffff ffff ffff     ................
    66d0:	ffff ffff ffff ffff ffff ffff ffff ffff     ................
    66e0:	ffff ffff ffff ffff ffff ffff ffff ffff     ................
    66f0:	ffff ffff ffff ffff ffff ffff ffff ffff     ................
    6700:	ffff ffff ffef ffff 58de e340 2030 0020     .........X@.0  .
    6710:	0018 2000 2000 0000 0000 0000 2000 2000     ... . ....... . 
    6720:	2000 2000 2008 2008 2000 2000 0000 0000     . . . . . . ....
	...
    673c:	0000 0008 0000 0000 0108 0108 0000 0000     ................
	...
    675c:	0000 0100 2100 0000 2008 2000 0000 0000     .....!... . ....
    676c:	0000 2000 2000 0000 0000 2000 0008 0010     ... . ..... ....
    677c:	4120 0020 13bd ffff feff dfff ffff dfff      A .............
    678c:	ffff ffff ffff ffff ffff ffff ffff ffff     ................
    679c:	ffff ffff ffff ffff ffff ffff ffff ffff     ................
    67ac:	ffff ffff ffff ffff ffff ffff ffff ffff     ................
    67bc:	ffff ffff ffff ffff ffff ffff ffff ffff     ................
    67cc:	ffe7 bdf7 75ed e8b1 25a9 c390 8278 4150     .....u...%..x.PA
    67dc:	0040 0028 0018 0008 2008 0000 2000 4100     @.(...... ... .A
    67ec:	2000 2000 2000 2000 2000 0000 0000 2000     . . . . . ..... 
	...
    680c:	2000 2000 0000 0000 0000 0000 0000 0000     . . ............
    681c:	0008 0000 0000 0000 0000 0000 0100 2100     ...............!
    682c:	2100 2000 2000 0000 0000 0008 0018 0018     .!. . ..........
    683c:	4138 2050 a158 2481 2591 a8a9 4ecb feff     8AP X..$.%...N..
    684c:	fef7 ffff ffff ffff ffff ffff ffff ffff     ................
    685c:	ffff ffff ffff ffff ffff ffff ffff ffff     ................
    686c:	ffff ffff ffff ffff ffff ffff ffff ffff     ................
    687c:	ffff ffff ffff ffff ffff ffff ffff ffff     ................
    688c:	ffff ffff ffff ffff fff7 3bff 6dd3 46d9     ...........;.m.F
    689c:	45e1 25d9 46d9 25c1 05b9 e498 e380 a260     .E.%.F.%......`.
    68ac:	8250 0038 0028 0018 0010 0010 0008 0008     P.8.(...........
    68bc:	2000 2000 0000 2000 0000 0000 0000 2000     . . ... ....... 
    68cc:	2000 0000 0000 0000 0008 0000 0108 0100     . ..............
    68dc:	0100 2100 0000 2000 0108 0100 0100 2100     ...!... .......!
    68ec:	2100 0000 0008 0008 0008 0018 0020 2028     .!.......... .( 
    68fc:	2038 4160 a378 0489 46b9 05c9 45c9 25d1     8 `Ax....F...E.%
    690c:	05d1 47e1 88d1 fafe ddf7 feff ffff ffff     ...G............
    691c:	ffff ffff ffff ffff ffff ffff ffff ffff     ................
    692c:	ffff ffff ffff ffff ffff ffff ffff ffff     ................
    693c:	ffff ffff ffff ffff ffff ffff ffff ffff     ................
    694c:	ffff ffff ffff ffff ffff ffff ffff ffff     ................
    695c:	fef7 78fe a6c1 04e1 03e1 03d9 04e1 04d9     ...x............
    696c:	e4e0 05d9 65d9 26d1 46d1 e5b8 e5a0 c490     .....e.&.F......
    697c:	e370 c368 8258 4148 2038 0028 0020 0020     p.h.X.HA8 (. . .
    698c:	0018 0010 0008 0008 0008 0008 0008 0008     ................
    699c:	0010 0010 0010 0008 0008 0008 0008 0008     ................
    69ac:	0010 0010 0018 2020 4130 4140 6148 8258     ......  0A@AHaX.
    69bc:	c378 e480 0491 45a1 65b1 46c9 26d9 25d9     x......E.e.F.&.%
    69cc:	e5d8 e4e8 04e1 a3e0 e4e0 a3d8 26d9 f3ec     .............&..
    69dc:	9cff fef7 ffff dfff ffff ffff ffff ffff     ................
    69ec:	ffff ffff ffff ffff ffff ffff ffff ffff     ................
    69fc:	ffff ffff ffff ffff ffff ffff ffff ffff     ................
    6a0c:	ffff ffff ffff ffff ffff ffff ffff ffff     ................
    6a1c:	ffff ffff ffff ffff feff efd3 e4c8 04e9     ................
    6a2c:	03e1 23e1 03e1 e3e8 e3e8 e3e8 03e9 c3e0     ...#............
    6a3c:	e4e8 e4e8 25e9 46e1 45d9 65d1 65c9 65b9     .....%.F.E.e.e.e
    6a4c:	45b1 25a1 0491 e490 c488 c380 a370 a268     .E.%........p.h.
    6a5c:	8160 8160 8160 8160 6050 4158 6258 6258     `.`.`.`.P`XAXbXb
    6a6c:	6360 8368 8368 8370 a278 a380 e488 2599     `ch.h.p.x......%
    6a7c:	65a9 45b1 45b9 45c1 25d1 05d9 05d9 04d9     .e.E.E.E.%......
    6a8c:	24d9 04e1 e3e0 e3e0 e4e0 e3e0 c3d8 c4e8     .$..............
    6a9c:	c3e0 24e1 04d9 49c2 fafe feff ffff ffff     ...$...I........
    6aac:	ffff ffff dfff ffff ffff ffff ffff ffff     ................
    6abc:	ffff ffff ffff ffff ffff ffff ffff ffff     ................
    6acc:	ffff ffff ffff ffff ffff ffff ffff ffff     ................
    6adc:	ffff ffff ffff ffff ffff ffff ffff ffff     ................
    6aec:	3cff 67b1 c4d8 e4e8 e3e8 04e9 e3e8 c3f0     .<.g............
    6afc:	e3e8 03e9 03e1 e3e0 03e1 03e1 04e9 e4e8     ................
    6b0c:	e4f0 e4e8 e4e0 e4e0 04d9 24d9 25d9 45d9     ...........$.%.E
    6b1c:	25e1 05d9 25d9 25d1 25d1 25d1 45c9 45c9     .%...%.%.%.%.E.E
    6b2c:	66c9 65c9 65c9 45c9 45d1 45d1 24d9 24d9     .f.e.e.E.E.E.$.$
    6b3c:	24e1 24e1 04e1 e4e0 e3e0 e3e0 e3e0 e3e0     .$.$............
    6b4c:	c3e0 e3e0 e3e0 e3e8 e3e0 02e1 23d9 23e1     .............#.#
    6b5c:	03e1 03e1 e4e0 e4e8 e3e8 e3e0 04d9 c4b8     ................
    6b6c:	55ed feff ffff ffff ffff dfff ffff ffff     .U..............
    6b7c:	ffff ffff ffff ffff ffff ffff ffff ffff     ................
    6b8c:	ffff ffff ffff ffff ffff ffff ffff ffff     ................
    6b9c:	ffff ffff ffff ffff ffff ffff ffff ffff     ................
    6bac:	ffff ffff ffff ffff f4e4 a6c0 c5f0 e4e0     ................
    6bbc:	e4e0 e4e0 04e1 e3e8 e4e8 e4e8 c3e8 e3e8     ................
    6bcc:	e3e0 03e9 e3e8 e3e8 e4e0 e4e0 e4e0 e4e0     ................
    6bdc:	e4e0 e4e0 e4e0 e4e0 e4e8 c4e0 e4e0 e4e0     ................
    6bec:	e4e0 e4e0 e4e0 e4e0 e4e8 e4e0 e4e0 e4e0     ................
    6bfc:	03e1 03e1 03e9 e3e8 02e1 02e1 03e9 e3e8     ................
    6c0c:	e3e8 e3e8 e3e8 e3e0 e2e0 02e1 e2e0 c2e8     ................
    6c1c:	c2e8 e2e0 03e1 e3e0 03d9 e3e0 e4e0 c4e0     ................
    6c2c:	e4e8 03e1 04d9 05d1 6fcb feff fef7 ffff     .........o......
    6c3c:	dfff dfff ffff ffff ffff ffff ffff ffff     ................
    6c4c:	ffff ffff ffff ffff ffff ffff ffff ffff     ................
    6c5c:	ffff ffff ffff ffff ffff ffff ffff ffff     ................
    6c6c:	ffff ffff ffff ffff dfff ffff feff 7cff     ...............|
    6c7c:	caca 24d1 02e1 04e9 c4e0 04e1 e3e8 c2e8     ...$............
    6c8c:	e3e0 e3e0 04e9 c3e8 e4f0 e4f0 e3e0 04e9     ................
    6c9c:	e4e0 e4e0 e4e0 e4e0 e4e0 e4e0 e4e8 e3e0     ................
    6cac:	e3e0 e3e0 e3e0 e3e0 e3e0 e3e0 e4e0 e4e0     ................
    6cbc:	03e1 e3e0 e3e0 e3e0 e3e0 03e1 03e1 03e1     ................
    6ccc:	e3e8 e3e8 e3e8 c3e8 c3e8 c3e8 e3e8 c3e0     ................
    6cdc:	03e1 03e1 e3e0 03e1 c3e0 04e9 e3e0 e4e0     ................
    6cec:	03e1 03e1 e3e0 e3e8 e3e0 e4e8 e4e0 25d1     ...............%
    6cfc:	e9c1 daf6 ffef dfff ffff def7 ffff ffff     ................
    6d0c:	ffff ffff ffff ffff ffff ffff ffff ffff     ................
    6d1c:	ffff ffff ffff ffff ffff ffff ffff ffff     ................
    6d2c:	ffff ffff ffff ffff ffff ffff ffff ffff     ................
    6d3c:	ffff fff7 def7 bafe a6b9 23d9 22e9 e2e8     ...........#."..
    6d4c:	c4e8 04e9 e4e8 04e9 03e9 03e9 e2e0 03e9     ................
    6d5c:	e3e0 e2e0 23e1 03e1 e4e0 e4e0 e4e0 e4e0     .....#..........
    6d6c:	e4e0 e4e0 e3e0 e3e0 e4e8 e3e8 e3e8 e3e8     ................
    6d7c:	e3e0 e3e0 e4e0 e4e0 e4e0 e3e0 e3e0 e3e0     ................
    6d8c:	e3e0 03e1 03e1 e3e0 03e1 03e1 03e1 e3e0     ................
    6d9c:	e3e0 e3e0 e3e0 e4e0 c3e8 e3e8 e3e8 e3e8     ................
    6dac:	e3e8 c3e0 03e9 e3e0 e3e0 e4e0 e4e8 e4e8     ................
    6dbc:	e3e0 c3e8 a4e8 e4e0 47c1 d4ec 5df7 ffff     .........G...]..
    6dcc:	ffff ffff ffff dfff ffff ffff ffff ffff     ................
    6ddc:	ffff ffff ffff ffff ffff ffff ffff ffff     ................
    6dec:	ffff ffff ffff ffff ffff ffff ffff ffff     ................
    6dfc:	ffff ffff ffff ffff ffff fff7 beff 73dc     ...............s
    6e0c:	04c9 02e9 01e9 e1e0 e3e8 04e1 c3e0 04e9     ................
    6e1c:	c3e8 e3e8 04e9 e3e0 03e1 03e9 e3e8 e3e8     ................
    6e2c:	e4e0 e4e0 e3e0 e3e0 e3e0 e3e0 e3e0 e3e0     ................
    6e3c:	e3e8 e3e8 e3e8 e3e8 e3e8 e3e8 e3e8 e3e8     ................
    6e4c:	e4e0 e3e0 e3e0 e3e0 e3e0 03e1 03e1 e3e0     ................
    6e5c:	e4e8 e3e8 e3e8 e3e8 e3e8 e3e8 e3e0 e3e0     ................
    6e6c:	e3e8 04e9 e3e8 c2e0 03e1 e3e0 e3e0 03e1     ................
    6e7c:	e3e0 e4e0 e4e0 e4e0 03e1 c3e8 c3e8 e4e0     ................
    6e8c:	e6d0 adda dbfe ffff dfff ffff ffff ffff     ................
    6e9c:	ffff ffff ffff ffff ffff ffff ffff ffff     ................
    6eac:	ffff ffff ffff ffff ffff ffff ffff ffff     ................
    6ebc:	ffff ffff ffff ffff ffff ffff ffff dfff     ................
    6ecc:	9fff dfff dcfe caa1 66d1 44e1 22e1 03e9     .........f.D."..
    6edc:	03e9 e3d8 e3e8 e4e0 04e9 e4e8 04e9 c3e0     ................
    6eec:	04e9 e3e0 e4e8 e4e0 e4e0 e3e0 e3e0 e3e0     ................
    6efc:	e3e0 03e1 03e1 e3e0 03e1 e3e0 e3e0 e3e0     ................
    6f0c:	e3e0 e3e8 e3e8 e3e8 e4e8 e3e0 e3e0 e3e8     ................
    6f1c:	e3e8 e3e8 e3e8 e3e0 04e9 e4e8 e3e8 e3e8     ................
    6f2c:	e3e8 e3e8 03e1 e3e0 e4e0 c3e0 c3e0 e3e8     ................
    6f3c:	e3e8 c3e0 c3e0 03e9 04e1 04e1 e4e0 e4e0     ................
    6f4c:	03e1 e3e8 e4f0 24e1 66c9 a8b1 97e5 ffff     .......$.f......
    6f5c:	dfff dfff ffff ffff ffff ffff ffff ffff     ................
    6f6c:	ffff ffff ffff ffff ffff ffff ffff ffff     ................
    6f7c:	ffff ffff ffff ffff ffff ffff ffff ffff     ................
    6f8c:	fff7 ffff ffff ffff bfff ffff 92ac 8460     ..............`.
    6f9c:	0589 44a9 64c1 45d9 44d9 44d1 24e9 e4e0     ...D.d.E.D.D.$..
    6fac:	24e1 a2e0 e4f0 04e9 03e1 e4e0 e3e0 04e1     .$..............
    6fbc:	e4e0 e3e0 e3e0 e3e0 03e1 03e1 03e1 02e1     ................
    6fcc:	03e1 03e1 03e1 03e1 e3e0 e3e0 e3e0 e3e8     ................
    6fdc:	e4e8 e3e8 e3e0 e3e8 e3e8 e3e8 e3e0 e3e0     ................
    6fec:	e4e0 e4e0 e4e0 e3e0 e3e0 e3e0 03e1 03e1     ................
    6ffc:	03e1 03e1 e3e0 03e9 c3e0 e3e8 04e9 c3e0     ................
    700c:	c2e8 c3e0 e4e8 04e9 24e1 24e1 25d9 65c9     .........$.$.%.e
    701c:	4489 c358 cb72 ffff dfff dfff ffff ffff     .DX.r...........
    702c:	ffff ffff ffff ffff ffff ffff ffff ffff     ................
    703c:	ffff ffff ffff ffff ffff ffff ffff ffff     ................
    704c:	ffff ffff ffff ffff fff7 ffff ffff ffff     ................
    705c:	dfff dff7 a631 0018 0028 2040 8160 a380     ....1...(.@ `...
    706c:	2491 44a1 45c9 66e1 44d1 24e9 c3e0 e3e0     .$.D.E.f.D.$....
    707c:	03d9 04e9 e3e8 03e1 e4e0 e4e0 e3e0 e3e0     ................
    708c:	e3e0 03e1 03e1 02e1 03e1 03e1 03e1 03e1     ................
    709c:	e3e0 e3e0 e3e0 e3e0 e4e8 e3e8 e3e0 e3e8     ................
    70ac:	e3e8 03e1 e3e0 e4e0 c4e8 c4e8 e4e8 e3e8     ................
    70bc:	e3e8 e3e8 e4e8 e4e0 e3e8 03e9 e3e8 e3e8     ................
    70cc:	e3e0 e4e0 c3d8 24e1 24e1 25d9 46d9 66c1     .......$.$.%.F.f
    70dc:	24a1 c280 6168 4040 0028 0008 0000 7df7     .$..ha@@(......}
    70ec:	ffff dfff ffff ffff ffff ffff ffff ffff     ................
    70fc:	ffff ffff ffff ffff ffff ffff ffff ffff     ................
    710c:	ffff ffff ffff ffff ffff ffff ffff ffff     ................
    711c:	ffff ffff ffff fff7 ffff bad6 c210 4008     ...............@
    712c:	0110 0010 0010 0020 4028 4030 4058 c378     ...... .(@0@X@x.
    713c:	0481 25a1 87b9 85b1 44b9 c3c8 e4e8 e4e8     ...%.....D......
    714c:	e4e0 e4e0 e3e0 03e1 e3e0 03e1 03e1 e2e0     ................
    715c:	e3e0 e3e0 e3e0 e4e0 e4e8 e4e8 e4e8 e4e8     ................
    716c:	e4e8 e3e0 e3e0 e3e0 e3e0 03e1 04e1 e4e0     ................
    717c:	e4e8 e4e8 e4e8 e4e8 e4e8 e4e0 e4e0 e4e0     ................
    718c:	e5e0 c4d8 c4d8 e4d0 25c9 25c1 c7c9 04a9     .........%.%....
    719c:	c390 8378 6260 4140 2020 0018 0010 2000     ..x.`b@A  ..... 
    71ac:	0008 2000 0000 55ad ffff ffff dfff ffff     ... ...U........
    71bc:	ffff ffff ffff ffff ffff ffff ffff ffff     ................
    71cc:	ffff ffff ffff ffff ffff ffff ffff ffff     ................
    71dc:	ffff ffff ffff ffff ffff dfff ffff fff7     ................
    71ec:	bef7 729c 4110 0000 0000 4000 4000 0010     ...r.A.....@.@..
    71fc:	0000 2000 0000 6000 4008 0020 55dd 95e5     ... ...`.@ ..U..
    720c:	91e4 ebe2 05d9 e4e0 04e1 04e1 e3e0 03e1     ................
    721c:	e3e0 03e1 e3e0 e2e0 e3e8 c3e8 c3e8 c4e8     ................
    722c:	c4e8 c4e8 c4e8 c4e8 e4e8 e3e0 e3e0 e3e0     ................
    723c:	e3e0 03e1 04e1 e4e0 24d1 03d1 03d1 e3c8     .........$......
    724c:	e3c8 03c9 04c9 04c9 26b9 c8c1 6aca 4dd3     .........&...j.M
    725c:	10dc 13e5 58fe 8138 0020 0010 0008 2000     .....X8. ...... 
    726c:	2000 0000 0108 2200 0100 0000 0000 694a     . ....."......Ji
    727c:	dff7 dfff ffff ffff ffff ffff ffff ffff     ................
    728c:	ffff ffff ffff ffff ffff ffff ffff ffff     ................
    729c:	ffff ffff ffff ffff ffff ffff ffff ffff     ................
    72ac:	ffff ffff ffff ffff 9ef7 8631 0000 0000     ..........1.....
    72bc:	2000 2000 2000 2000 0000 0000 0000 0000     . . . . ........
    72cc:	0000 0008 3cef feff ddff 79f6 29ca e4e8     .....<.....y.)..
    72dc:	e4e0 03e1 e3e0 e3e0 e3e8 e3e0 e3e0 e3e0     ................
    72ec:	e4e0 e3e8 e2d8 85c9 e4c0 24c9 04c1 25c1     ...........$...%
    72fc:	24c9 24c9 04c1 03c9 24c9 24c9 44c9 65c9     .$.$.....$.$.D.e
    730c:	a6b9 07c2 48c2 caca 8dd3 0fdc 91e4 14ed     .....H..........
    731c:	d8ed 7af6 5dff bdff ffff feff ffff a639     ...z.]........9.
    732c:	0000 0000 2000 0000 0000 0000 0000 0100     ..... ..........
    733c:	0000 0000 0000 4108 59ce ffff ffff ffff     .......A.Y......
    734c:	ffff ffff ffff ffff ffff ffff ffff ffff     ................
    735c:	ffff ffff ffff ffff ffff ffff ffff ffff     ................
    736c:	ffff ffff ffff ffff ffff ffff ffff ffff     ................
    737c:	b6b5 0000 0000 0000 0000 2000 2000 2000     ........... . . 
	...
    7394:	0000 4529 def7 deff feff dafe 49ca e4e0     ..)E.........I..
    73a4:	03e1 e3e0 e3e0 e3e0 e3e8 e3e0 e3e0 e3e0     ................
    73b4:	a3f0 c2e0 a4c9 73fd 33ed 32dd 33dd 33dd     .......s.3.2.3.3
    73c4:	13dd 33e5 33e5 53e5 94ed 95ed b5ed f6f5     ...3.3.S........
    73d4:	38ee 79f6 baf6 1bff 7dff 9eff beff ffff     .8.y.....}......
    73e4:	dfff ffff ffff ffff ffff dfff dfff ab62     ..............b.
	...
    7400:	0000 0100 0000 0000 0000 0000 8e73 ffff     ............s...
    7410:	ffff dfff ffff ffff ffff ffff ffff ffff     ................
    7420:	ffff ffff ffff ffff ffff ffff ffff ffff     ................
    7430:	ffff ffff ffff ffff ffff ffff ffff ffff     ................
    7440:	dfff ffff 694a 0000 0000 0000 0000 0000     ....Ji..........
    7450:	2000 2000 2000 0000 0000 0000 0000 494a     . . . ........JI
    7460:	ffff def7 ffff fbfe 09ba 05d9 03e1 e3e0     ................
    7470:	e3e0 e3e8 e3e8 e3e8 e4e0 e4e0 a3f8 e3e0     ................
    7480:	26ba 9bff fdff fef7 ffff ffff ffff ffff     .&..............
    7490:	ffff ffff ffff ffff ffff ffff ffff ffff     ................
    74a0:	ffff ffff ffff ffff ffff ffff ffff fff7     ................
    74b0:	fff7 fff7 ffff dfff ffff f083 0000 0000     ................
	...
    74d4:	e318 ffff ffff ffff ffff ffff ffff ffff     ................
    74e4:	ffff ffff ffff ffff ffff ffff ffff ffff     ................
    74f4:	ffff ffff ffff ffff ffff ffff ffff ffff     ................
    7504:	ffff ffff dfff dfff 6108 2000 0000 0000     .........a. ....
    7514:	0000 0000 0000 2000 2000 2000 0000 0000     ....... . . ....
    7524:	0000 cb5a fff7 ffff ffff dbf6 09ba 25e1     ..Z............%
    7534:	03e1 e3e0 e3e0 e3e8 e3e8 e4e0 e4e0 e4e0     ................
    7544:	c3e8 03d9 48c2 3bff ffff ffff dfff dfff     .....H.;........
    7554:	dfff ffff ffff dfff dfff dfff dfff dfff     ................
    7564:	ffff ffff ffff ffff ffff ffff ffff ffff     ................
    7574:	dfff dfff dfff ffff ffff ffff ffff 149d     ................
	...
    759c:	0000 fbde ffff ffff ffff ffff ffff ffff     ................
    75ac:	ffff ffff ffff ffff ffff ffff ffff ffff     ................
    75bc:	ffff ffff ffff ffff ffff ffff ffff ffff     ................
    75cc:	ffff ffff dfff 79ce 0000 0000 0000 0000     .......y........
	...
    75ec:	2000 ae7b ffff ffff ffff dbfe 09ba e5d8     . {.............
    75fc:	e3e0 e3e0 e3e8 e3e8 e3e8 e4e0 e4e0 e4e0     ................
    760c:	e4e8 e4e0 08c2 3cff ffff ffff bfff ffff     .......<........
    761c:	ffff ffff ffff ffff ffff ffff dfff ffff     ................
    762c:	fff7 fff7 ffff ffff fff7 fff7 ffff dff7     ................
    763c:	ffff ffff dfff dfff bfff dfff ffff d7bd     ................
    764c:	2008 0000 0000 0000 0000 0000 0000 0000     . ..............
    765c:	0000 2000 0000 2000 0000 918c ffff ffff     ... ... ........
    766c:	ffff ffff ffff ffff ffff ffff ffff ffff     ................
    767c:	ffff ffff ffff ffff ffff ffff ffff ffff     ................
    768c:	ffff ffff ffff ffff ffff ffff dfff 518c     ...............Q
	...
    76b4:	2000 308c ffff feff ffff dbfe 0ac2 05e1     . .0............
    76c4:	e3e0 e3e8 e3e0 e3e0 e3e8 e4e0 e4e0 e4e0     ................
    76d4:	e4f0 e4e8 a7b9 7dff fff7 fff7 dfff ffff     .......}........
    76e4:	ffff ffff ffff ffff ffff ffff ffff ffff     ................
    76f4:	ffff ffff ffff dfff dfff ffff ffff ffff     ................
    7704:	fff7 ffff ffff ffff dfff ffff dfff 38c6     ...............8
    7714:	2000 0000 0000 0000 0000 0000 0000 0000     . ..............
    7724:	0000 2000 0000 2000 0000 073a dfff ffff     ... ... ..:.....
    7734:	ffff ffff ffff ffff ffff ffff ffff ffff     ................
    7744:	ffff ffff ffff ffff ffff ffff ffff ffff     ................
    7754:	ffff ffff ffff ffff ffff ffff 9ef7 8631     ..............1.
	...
    7778:	0000 2000 2000 7194 ffff deff ffff bafe     ... . .q........
    7788:	09c2 05e1 e3e8 e3e8 e3e0 e3e8 e3e0 e3e0     ................
    7798:	e4e0 e4e0 c4e8 e5e8 c7c1 7cff dff7 ffff     ...........|....
    77a8:	ffff dfff dfff dfff ffff ffff ffff dfff     ................
    77b8:	dfff dfff ffff ffff ffff ffff ffff ffff     ................
    77c8:	ffff ffff ffff ffff ffff ffff ffff ffff     ................
    77d8:	ffff 9ace 2108 0000 0000 0000 0000 0000     .....!..........
    77e8:	0000 0000 0000 2000 2000 2000 0000 6108     ....... . . ...a
    77f8:	38c6 ffff ffff ffff ffff ffff ffff ffff     .8..............
    7808:	ffff ffff ffff ffff ffff ffff ffff ffff     ................
    7818:	ffff ffff ffff ffff ffff ffff ffff dfff     ................
    7828:	59ce 0000 0000 0000 0000 0000 0000 0000     .Y..............
	...
    7844:	2000 9294 ffff def7 deff dafe 4aca e4e0     . ...........J..
    7854:	e3e8 e3e8 e3e8 e3e8 e3e0 e3e0 e4e0 04e1     ................
    7864:	24e1 04e1 08c2 3bff ffff fff7 ffff ffff     .$.....;........
    7874:	ffff ffff ffff ffff ffff ffff ffff ffff     ................
    7884:	ffff ffff ffff ffff ffff ffff dfff dfff     ................
    7894:	ffff ffff ffff dfff dfff dfff dfff 7bd6     ...............{
    78a4:	4108 0000 0000 0000 0000 0000 0000 0000     .A..............
    78b4:	0000 0000 2000 0000 2100 0000 518c ffff     ..... ...!...Q..
    78c4:	ffff ffff ffff ffff ffff ffff ffff ffff     ................
    78d4:	ffff ffff ffff ffff ffff ffff ffff ffff     ................
    78e4:	ffff ffff ffff ffff ffff ffff ef7b 0000     ............{...
	...
    78fc:	0000 2000 0000 0000 0000 0000 0000 0000     ... ............
    790c:	2000 9194 ffff def7 deff dafe 49c2 e5e0     . ...........I..
    791c:	c4e8 c4e8 e4e8 e3e0 e4e0 e4e8 e3e8 e4e8     ................
    792c:	03e1 e4e8 07ca 5bff dfff ffff ffff ffff     .......[........
    793c:	ffff ffff ffff ffff ffff ffff ffff ffff     ................
    794c:	ffff ffff ffff ffff ffff ffff ffff ffff     ................
    795c:	ffff ffff dfff ffff ffff ffff ffff 79ce     ...............y
    796c:	4108 0000 0000 0000 0000 2000 0000 0000     .A......... ....
    797c:	0000 0000 0000 2100 0000 2000 2842 ffff     .......!... B(..
    798c:	ffff ffff ffff ffff ffff ffff ffff ffff     ................
    799c:	ffff ffff ffff ffff ffff ffff ffff ffff     ................
    79ac:	ffff ffff ffff ffff dfff ffff e739 0000     ............9...
	...
    79c8:	2000 0000 0000 0000 0000 0000 0000 9194     . ..............
    79d8:	ffff ffff deff 99fe 08ca c4f0 e3e0 e3e0     ................
    79e8:	e3e0 e3e0 e3e0 e3e0 04e1 04e1 04e1 e4e8     ................
    79f8:	29ca 3bff dfff ffff ffff fff7 ffff ffff     .).;............
    7a08:	ffff ffff ffff ffff ffff ffff ffff ffff     ................
    7a18:	ffff ffff ffff ffff ffff ffff ffff ffff     ................
    7a28:	ffff ffff dfff ffff ffff 79ce 4108 0000     ...........y.A..
	...
    7a48:	2100 4100 0000 0000 8210 bef7 ffff ffff     .!.A............
    7a58:	ffff ffff ffff ffff ffff ffff ffff ffff     ................
    7a68:	ffff ffff ffff ffff ffff ffff ffff ffff     ................
    7a78:	ffff ffff ffff ffff 4108 0000 0000 0000     .........A......
	...
    7a98:	2000 0000 0000 7294 ffff fef7 fef7 f9fe     . .....r........
    7aa8:	47c2 e3e8 e2e8 e3e8 e3e8 e3e8 e3e8 e3e0     .G..............
    7ab8:	04e1 04e1 24e1 e4d8 28c2 1bff dfff ffff     .....$...(......
    7ac8:	ffff ffff ffff ffff ffff ffff ffff ffff     ................
    7ad8:	ffff ffff ffff ffff ffff ffff ffff ffff     ................
    7ae8:	ffff ffff ffff ffff ffff ffff ffff ffff     ................
    7af8:	ffff 39c6 4108 0000 0000 0000 2000 0000     ...9.A....... ..
    7b08:	2000 0000 0000 0000 0000 2100 2100 0000     . .........!.!..
    7b18:	0000 1ce7 ffff ffff ffff ffff ffff ffff     ................
    7b28:	ffff ffff ffff ffff ffff ffff ffff ffff     ................
    7b38:	ffff ffff ffff ffff ffff ffff ffff fbde     ................
	...
    7b58:	2000 0000 2000 0000 2000 2000 0000 3084     . ... ... . ...0
    7b68:	ffff fff7 fef7 fafe 27b2 04d9 e2d8 e2e0     .........'......
    7b78:	e3e8 e3e8 c3e8 e3e8 e3e8 03e1 c3e8 04e1     ................
    7b88:	28ca 3cff bfff ffff ffff ffff ffff ffff     .(.<............
    7b98:	ffff ffff ffff ffff ffff ffff ffff ffff     ................
    7ba8:	ffff ffff ffff ffff ffff ffff ffff ffff     ................
    7bb8:	ffff dfff ffff ffff ffff 59ce 4108 0000     ...........Y.A..
    7bc8:	2000 0000 0000 0000 0000 0000 0000 0000     . ..............
    7bd8:	2000 2100 0000 0000 0000 75ad ffff ffff     . .!.......u....
    7be8:	ffff ffff ffff ffff ffff ffff ffff ffff     ................
    7bf8:	ffff ffff ffff ffff ffff ffff ffff ffff     ................
    7c08:	ffff ffff ffff 34a5 0000 0000 0000 0000     .......4........
	...
    7c20:	2000 0000 0000 0000 2000 2000 4008 ae73     . ....... . .@s.
    7c30:	dfff dfff dfff 5afe 09b2 c5c8 04d1 04d9     .......Z........
    7c40:	c4e0 c4e0 c4e8 c4e8 e4e8 e4e0 84f0 a3d8     ................
    7c50:	e7b9 5cff dfff ffff ffff fff7 ffff ffff     ...\............
    7c60:	ffff ffff ffff ffff ffff ffff ffff ffff     ................
    7c70:	ffff ffff ffff ffff ffff ffff ffff ffff     ................
    7c80:	ffff dfff ffff ffff ffff d7bd 4108 0000     .............A..
    7c90:	2000 0000 0000 0000 0000 0000 2100 0000     . ...........!..
    7ca0:	0000 2000 0000 2000 0000 8e73 ffff ffff     ... ... ..s.....
    7cb0:	ffff ffff ffff ffff ffff ffff ffff ffff     ................
    7cc0:	ffff ffff ffff ffff ffff ffff ffff ffff     ................
    7cd0:	ffff ffff ffff cf7b 0000 0000 0000 0000     ......{.........
	...
    7ce8:	4108 4108 0000 0000 2000 0000 0000 0c63     .A.A..... ....c.
    7cf8:	dfff ffff dfff dcfe 12cc cdc2 8aca 29ca     ...............)
    7d08:	c8c1 67c1 46c1 46c1 66c1 66c1 46d1 86c1     ...g.F.F.f.f.F..
    7d18:	caba 7cff ffff ffff dfff ffff ffff ffff     ...|............
    7d28:	ffff ffff ffff ffff ffff ffff ffff ffff     ................
    7d38:	ffff ffff ffff ffff ffff ffff ffff ffff     ................
    7d48:	ffff ffff ffff dfff ffff f39c 2000 2000     ............. . 
    7d58:	0000 2000 0000 2000 2000 0000 0000 4100     ... ... . .....A
    7d68:	0000 2000 2000 4000 0000 0842 ffff ffff     ... . .@..B.....
    7d78:	ffff ffff ffff ffff ffff ffff ffff ffff     ................
    7d88:	ffff ffff ffff ffff ffff ffff ffff ffff     ................
    7d98:	ffff ffff ffff aa52 0000 2000 0000 0000     ......R.... ....
    7da8:	0000 0000 0000 2842 a631 0000 2000 0000     ......B(1.... ..
    7db8:	0000 0000 0000 2842 ffff dfff dfff ffff     ......B(........
    7dc8:	dfff 7eff 3cff fbfe 79f6 18f6 d7ed d7ed     ...~.<...y......
    7dd8:	d7ed d7ed b7f5 17fe b9fe feff beff ffff     ................
    7de8:	dfff ffff ffff ffff ffff ffff ffff ffff     ................
    7df8:	ffff ffff ffff ffff ffff ffff ffff ffff     ................
    7e08:	ffff ffff ffff ffff ffff dfff ffff ffff     ................
    7e18:	ffff 1084 0000 4000 2000 2000 2000 4108     .......@. . . .A
    7e28:	a210 0c5b 0000 2000 2000 4000 2000 0000     ..[.... . .@. ..
    7e38:	2000 0321 5cef ffff ffff ffff ffff ffff     . !..\..........
    7e48:	ffff ffff ffff ffff ffff ffff ffff ffff     ................
    7e58:	ffff ffff ffff ffff ffff ffff 7def c739     .............}9.
	...
    7e74:	a210 5def 694a 0000 0000 0000 0000 0000     ...]Ji..........
    7e84:	0000 c210 bef7 deff bfff ffff fff7 ffff     ................
    7e94:	ffff ffff ffff ffff ffff ffff ffff ffff     ................
    7ea4:	ffff def7 feff fff7 ffff ffff deff fff7     ................
    7eb4:	ffff ffff ffff ffff ffff ffff ffff ffff     ................
    7ec4:	ffff ffff ffff ffff ffff ffff ffff ffff     ................
    7ed4:	ffff ffff ffff ffff ffff ffff dfff cb5a     ..............Z.
    7ee4:	0000 2000 2000 2000 2000 0000 2421 5de7     ... . . . ..!$.]
    7ef4:	0842 0000 4000 2000 4000 2000 2000 6108     B....@. .@. . .a
    7f04:	59ce ffff ffff dfff ffff ffff ffff ffff     .Y..............
    7f14:	ffff ffff ffff ffff ffff ffff ffff ffff     ................
    7f24:	ffff ffff ffff ffff dbde e318 0000 0000     ................
    7f34:	0000 0000 2000 0000 f39c ffff 0c63 0000     ..... ......c...
	...
    7f4c:	2000 0000 dbde ffff dfff ffff ffff ffff     . ..............
    7f5c:	ffff ffff ffff ffff ffff ffff ffff ffff     ................
    7f6c:	ffff ffff ffff ffff ffff ffff ffff ffff     ................
    7f7c:	ffff ffff ffff ffff ffff ffff ffff ffff     ................
    7f8c:	ffff ffff ffff ffff ffff ffff ffff ffff     ................
    7f9c:	ffff ffff ffff ffff dfff ffff ffff a210     ................
    7fac:	2000 0000 2000 0000 4000 0000 4421 bef7     . ... ...@..!D..
    7fbc:	79ce 8210 0000 2000 2000 2000 2000 4008     .y..... . . . .@
    7fcc:	34a5 ffff ffff ffff ffff ffff ffff ffff     .4..............
    7fdc:	ffff ffff ffff ffff ffff ffff ffff ffff     ................
    7fec:	ffff ffff ffff ffff 18c6 8210 0000 0000     ................
    7ffc:	0000 4108 0000 494a bef7 ffff cf7b 0000     ...A..JI....{...
    800c:	2000 0000 0000 0000 0000 2000 b6b5 ffff     . ......... ....
    801c:	ffff ffff ffff ffff ffff ffff ffff ffff     ................
    802c:	ffff ffff ffff ffff ffff ffff ffff ffff     ................
    803c:	ffff ffff ffff ffff ffff ffff ffff ffff     ................
    804c:	ffff ffff ffff ffff ffff ffff ffff ffff     ................
    805c:	ffff ffff ffff ffff ffff ffff ffff ffff     ................
    806c:	ffff ffff 5def 0000 2000 0000 2000 2000     .....]... ... . 
    807c:	0000 2000 a631 ffff ffff 3084 0000 2000     ... 1......0... 
    808c:	4000 0000 2000 2000 3084 dfff ffff ffff     .@... . .0......
    809c:	ffff ffff ffff ffff ffff ffff ffff ffff     ................
    80ac:	ffff ffff ffff ffff ffff ffff ffff ffff     ................
    80bc:	d7bd 4108 0000 0000 0000 0000 8631 fbde     ...A........1...
    80cc:	dfff ffff 55ad 0000 0000 0000 2000 0000     .....U....... ..
    80dc:	0000 0000 6d6b ffff ffff ffff ffff ffff     ....km..........
    80ec:	ffff ffff ffff ffff ffff ffff ffff ffff     ................
    80fc:	ffff ffff ffff ffff ffff ffff ffff ffff     ................
    810c:	ffff ffff ffff ffff ffff ffff ffff ffff     ................
    811c:	ffff ffff ffff ffff ffff ffff ffff ffff     ................
    812c:	ffff ffff ffff ffff ffff ffff d7bd 0000     ................
    813c:	0000 4000 0000 4000 0000 2000 4c63 ffff     ...@...@... cL..
    814c:	ffff ffff eb5a 0000 2000 0000 2000 4000     ....Z.... ... .@
    815c:	cf7b ffff ffff ffff ffff ffff ffff ffff     {...............
    816c:	ffff ffff ffff ffff ffff ffff ffff ffff     ................
    817c:	ffff ffff ffff ffff b6b5 4108 2000 0000     ...........A. ..
    818c:	2000 2000 38c6 ffff ffff ffff 9ad6 4108     . . .8.........A
    819c:	2000 0000 0000 0000 2000 0000 4529 ffff     . ....... ..)E..
    81ac:	dfff ffff ffff ffff ffff ffff ffff ffff     ................
    81bc:	ffff ffff ffff ffff ffff ffff ffff ffff     ................
    81cc:	ffff ffff ffff ffff ffff ffff ffff ffff     ................
    81dc:	ffff ffff ffff ffff ffff ffff ffff ffff     ................
    81ec:	ffff ffff ffff ffff ffff ffff ffff ffff     ................
    81fc:	ffff ffff ae73 0000 0000 0000 2000 0000     ....s........ ..
    820c:	2000 0000 75ad ffff ffff ffff 5cef e318     . ...u.......\..
    821c:	0000 4108 2000 2000 ef7b ffff ffff ffff     ...A. . {.......
    822c:	ffff ffff ffff ffff ffff ffff ffff ffff     ................
    823c:	ffff ffff ffff ffff ffff ffff ffff ffff     ................
    824c:	d7bd 4108 4108 2000 0000 ef7b ffff dfff     ...A.A. ..{.....
    825c:	ffff dfff ffff 2842 0000 0000 2000 0000     ......B(..... ..
    826c:	0000 0000 4108 3ce7 ffff ffff ffff ffff     .....A.<........
    827c:	ffff ffff ffff ffff ffff ffff ffff ffff     ................
    828c:	ffff ffff ffff ffff ffff ffff ffff ffff     ................
    829c:	ffff ffff ffff ffff ffff ffff ffff ffff     ................
    82ac:	ffff ffff ffff ffff ffff ffff ffff ffff     ................
    82bc:	ffff ffff ffff ffff dfff bff7 8631 0000     ............1...
    82cc:	0000 2000 2000 0000 0000 4108 7def ffff     ... . .....A.}..
    82dc:	ffff deff ffff 95b5 a210 0000 0000 4008     ...............@
    82ec:	ef7b deff ffff ffff ffff ffff ffff ffff     {...............
    82fc:	ffff ffff ffff ffff ffff ffff ffff ffff     ................
    830c:	ffff ffff ffff ffff bad6 8210 4108 0000     .............A..
    831c:	ef7b ffff dfff ffff ffff dfff ffff 79ce     {..............y
    832c:	0000 2000 0000 2000 0000 0000 0000 34a5     ... ... .......4
    833c:	ffff dfff ffff ffff ffff ffff ffff ffff     ................
    834c:	ffff ffff ffff ffff ffff ffff ffff ffff     ................
    835c:	ffff ffff ffff ffff ffff ffff ffff ffff     ................
    836c:	ffff ffff ffff ffff ffff ffff ffff ffff     ................
    837c:	ffff ffff ffff ffff ffff ffff ffff ffff     ................
    838c:	ffff dbde 8210 2000 2000 0000 0000 2000     ....... . ..... 
    839c:	0000 518c ffff dfff ffff ffff ffff ffff     ...Q............
    83ac:	75ad 0000 2000 4108 9194 deff ffff ffff     .u... .A........
    83bc:	ffff ffff dfff ffff ffff ffff ffff ffff     ................
    83cc:	ffff ffff ffff ffff ffff ffff ffff ffff     ................
    83dc:	9ef7 c739 6108 cb5a dfff ffff dfff dfff     ..9..aZ.........
    83ec:	dfff ffff ffff bef7 c739 0000 4108 0000     ........9....A..
    83fc:	0000 0000 0000 8a52 9ef7 ffff ffff ffff     ......R.........
    840c:	ffff ffff ffff ffff ffff ffff ffff ffff     ................
    841c:	ffff ffff ffff ffff ffff ffff ffff ffff     ................
    842c:	ffff ffff ffff ffff ffff ffff ffff ffff     ................
    843c:	ffff ffff ffff ffff ffff ffff ffff ffff     ................
    844c:	ffff ffff dfff dfff ffff f49c 4108 0000     .............A..
    845c:	2000 2000 0000 0000 a210 bad6 ffff ffff     . . ............
    846c:	ffff ffff ffff ffff ffff ef7b 8210 6108     ..........{....a
    847c:	58ce ffff ffff ffff ffff ffff ffff ffff     .X..............
    848c:	ffff ffff ffff ffff ffff ffff ffff ffff     ................
    849c:	ffff ffff ffff ffff ffff b6b5 34a5 bef7     .............4..
    84ac:	dfff dfff dfff ffff ffff ffff ffff dfff     ................
    84bc:	9294 0000 0000 0000 0000 2000 0000 0000     ........... ....
    84cc:	f7bd dfff ffff ffff ffff ffff ffff ffff     ................
    84dc:	ffff ffff ffff ffff ffff ffff ffff ffff     ................
    84ec:	ffff ffff ffff ffff ffff ffff ffff ffff     ................
    84fc:	ffff ffff ffff ffff ffff ffff ffff ffff     ................
    850c:	ffff ffff ffff ffff ffff ffff ffff ffff     ................
    851c:	bff7 8a52 0000 2000 2000 0000 0000 0000     ..R.... . ......
    852c:	cb5a dfff ffff ffff ffff ffff ffff ffff     Z...............
    853c:	dfff ffff f7bd f39c ffff ffff dfff ffff     ................
    854c:	ffff ffff ffff ffff ffff ffff ffff ffff     ................
    855c:	ffff ffff ffff ffff ffff ffff ffff ffff     ................
    856c:	ffff ffff ffff ffff ffff ffff ffff ffff     ................
    857c:	ffff ffff dfff ffff dbde c318 2000 0000     ............. ..
    858c:	2000 0000 0000 0000 294a ffff dfff ffff     . ......J)......
    859c:	ffff dfff ffff ffff ffff ffff ffff ffff     ................
    85ac:	ffff ffff ffff ffff ffff ffff ffff ffff     ................
    85bc:	ffff ffff ffff ffff ffff ffff ffff ffff     ................
    85cc:	ffff ffff ffff ffff ffff ffff ffff ffff     ................
    85dc:	ffff ffff ffff ffff 38c6 2000 0000 2000     .........8. ... 
    85ec:	0000 2100 0000 0000 96b5 ffff ffff ffff     ...!............
    85fc:	ffff ffff ffff ffff ffff ffff ffff ffff     ................
    860c:	ffff ffff ffff ffff ffff ffff ffff ffff     ................
    861c:	ffff ffff ffff ffff ffff ffff ffff ffff     ................
    862c:	ffff ffff ffff ffff ffff ffff ffff ffff     ................
    863c:	ffff ffff ffff ffff ffff ffff ffff dfff     ................
    864c:	ffff f39c 0000 0000 0000 2000 2000 2000     ........... . . 
    865c:	0000 9ad6 ffff ffff ffff ffff dfff ffff     ................
    866c:	ffff ffff ffff ffff ffff ffff ffff ffff     ................
    867c:	ffff ffff ffff ffff ffff ffff ffff ffff     ................
    868c:	ffff ffff ffff ffff ffff dfff ffff ffff     ................
    869c:	ffff ffff ffff ffff ffff dfff ffff bef7     ................
    86ac:	4529 0000 2000 0000 2000 0000 0000 8a52     )E... ... ....R.
    86bc:	ffff ffff dfff ffff ffff ffff ffff ffff     ................
    86cc:	ffff ffff ffff ffff ffff ffff ffff ffff     ................
    86dc:	ffff ffff ffff ffff ffff ffff ffff ffff     ................
    86ec:	ffff ffff ffff ffff ffff ffff ffff ffff     ................
    86fc:	ffff ffff ffff ffff ffff ffff ffff ffff     ................
    870c:	ffff ffff ffff ffff ffff bef7 cb5a 0000     ............Z...
    871c:	2000 0000 0000 2000 0000 494a bef7 dfff     . ..... ..JI....
    872c:	ffff ffff ffff ffff ffff ffff ffff ffff     ................
    873c:	ffff ffff ffff ffff ffff ffff ffff ffff     ................
    874c:	ffff ffff ffff ffff ffff ffff ffff ffff     ................
    875c:	ffff ffff ffff ffff ffff ffff ffff ffff     ................
    876c:	ffff ffff dfff 518c 2000 0000 0000 0000     .......Q. ......
    877c:	0000 2000 6529 5def ffff dfff ffff ffff     ... )e.]........
    878c:	ffff ffff ffff ffff ffff ffff ffff ffff     ................
    879c:	ffff ffff ffff ffff ffff ffff ffff ffff     ................
    87ac:	ffff ffff ffff ffff ffff ffff ffff ffff     ................
    87bc:	ffff ffff ffff ffff ffff ffff ffff ffff     ................
    87cc:	ffff ffff ffff ffff ffff ffff dfff ffff     ................
    87dc:	bef7 ffff 79ce a210 0000 0000 4108 2000     .....y.......A. 
    87ec:	2000 2000 8e73 ffff ffff ffff dfff dfff     . . s...........
    87fc:	ffff ffff ffff ffff ffff ffff ffff ffff     ................
    880c:	ffff ffff ffff ffff ffff ffff ffff ffff     ................
    881c:	ffff ffff ffff ffff dfff ffff dfff ffff     ................
    882c:	ffff dfff ffff ffff bef7 ffff fbe6 e418     ................
	...
    8844:	4108 0000 d39c ffff ffff ffff ffff ffff     .A..............
    8854:	ffff ffff ffff ffff ffff ffff ffff ffff     ................
    8864:	ffff ffff ffff ffff ffff ffff ffff ffff     ................
    8874:	ffff ffff ffff ffff ffff ffff ffff ffff     ................
    8884:	ffff ffff ffff ffff ffff ffff ffff ffff     ................
    8894:	ffff ffff ffff ffff ffff ffff ffff ffff     ................
    88a4:	ffff dfff ffff 9294 6108 0000 0000 0000     .........a......
    88b4:	4100 2000 0000 f8c5 ffff ffff ffff ffff     .A. ............
    88c4:	ffff ffff ffff ffff ffff ffff ffff ffff     ................
    88d4:	ffff ffff ffff ffff ffff ffff ffff ffff     ................
    88e4:	ffff ffff ffff ffff ffff ffff dfff ffff     ................
    88f4:	ffff ffff ffff ffff ffff 1ce7 a631 0000     ............1...
	...
    890c:	0000 aa52 ffff ffff ffff ffff ffff ffff     ..R.............
    891c:	ffff ffff ffff ffff ffff ffff ffff ffff     ................
    892c:	ffff ffff ffff ffff ffff ffff ffff ffff     ................
    893c:	ffff ffff ffff ffff ffff ffff ffff ffff     ................
    894c:	ffff ffff ffff ffff ffff ffff ffff ffff     ................
    895c:	ffff ffff ffff ffff ffff ffff ffff ffff     ................
    896c:	ffff dfff ffff ffff d39c 0000 0000 4000     ...............@
    897c:	2000 2000 0000 2421 f7bd ffff ffff ffff     . . ..!$........
    898c:	ffff ffff dfff ffff ffff ffff ffff ffff     ................
    899c:	ffff ffff ffff ffff ffff ffff ffff ffff     ................
    89ac:	ffff ffff ffff ffff ffff ffff ffff ffff     ................
    89bc:	ffff ffff ffff ffff bef7 494a 0000 0000     ..........JI....
    89cc:	0000 0000 2000 0000 8a52 7def ffff ffff     ..... ..R..}....
    89dc:	ffff ffff ffff ffff ffff ffff ffff ffff     ................
    89ec:	ffff ffff ffff ffff ffff ffff ffff ffff     ................
    89fc:	ffff ffff ffff ffff ffff ffff ffff ffff     ................
    8a0c:	ffff ffff ffff ffff ffff ffff ffff ffff     ................
    8a1c:	ffff ffff ffff ffff ffff ffff ffff ffff     ................
    8a2c:	ffff ffff ffff ffff ffff dfff dfff ffff     ................
    8a3c:	9ef7 cb5a 0000 2000 4100 0000 2000 0000     ..Z.... .A... ..
    8a4c:	a210 18c6 ffff ffff ffff ffff ffff dfff     ................
    8a5c:	ffff ffff ffff ffff ffff ffff ffff ffff     ................
    8a6c:	ffff ffff ffff ffff ffff ffff ffff ffff     ................
    8a7c:	ffff ffff ffff ffff ffff ffff ffff 7def     ...............}
    8a8c:	694a 2000 2100 0000 0000 0000 2008 6531     Ji. .!....... 1e
    8a9c:	fbde ffff ffff dfff ffff dfff ffff ffff     ................
    8aac:	ffff ffff ffff ffff ffff ffff ffff ffff     ................
    8abc:	ffff ffff ffff ffff ffff ffff ffff ffff     ................
    8acc:	ffff ffff ffff ffff ffff ffff ffff ffff     ................
    8adc:	ffff ffff ffff ffff ffff ffff ffff ffff     ................
    8aec:	ffff ffff ffff ffff ffff ffff ffff ffff     ................
    8afc:	ffff ffff ffff dfff dfff ffff cf73 0000     ............s...
    8b0c:	2000 4100 0000 2000 0000 c318 18c6 ffff     . .A... ........
    8b1c:	ffff ffff ffff ffff ffff ffff ffff ffff     ................
    8b2c:	ffff ffff ffff ffff ffff ffff ffff ffff     ................
    8b3c:	ffff ffff ffff ffff ffff ffff ffff ffff     ................
    8b4c:	ffff ffff 1ce7 2842 0000 4100 2000 2100     ......B(...A. .!
    8b5c:	0000 2008 6952 9cf7 ffff ffff dfff ffff     ... Ri..........
    8b6c:	ffff ffff ffff ffff ffff ffff ffff ffff     ................
    8b7c:	ffff ffff ffff ffff ffff ffff ffff ffff     ................
    8b8c:	ffff ffff ffff ffff ffff ffff ffff ffff     ................
    8b9c:	ffff ffff ffff ffff ffff ffff ffff ffff     ................
    8bac:	ffff ffff ffff ffff ffff ffff ffff ffff     ................
    8bbc:	ffff ffff ffff feff ffff ffff bfff feff     ................
    8bcc:	fdff b9ff 78ff 4a83 0018 0010 2000 2100     .....x.J..... .!
    8bdc:	0008 0000 0319 107c 7eef dfff dfff bfff     ......|..~......
    8bec:	ffff ffff ffff ffff dfff ffff ffff ffff     ................
    8bfc:	ffff ffff ffff ffff ffff ffff dfff ffff     ................
    8c0c:	ffff ffff ffff ffff ffff 13a5 e320 0000     ............ ...
    8c1c:	2100 2100 2000 2010 0010 a451 b5e6 d8ff     .!.!. . ..Q.....
    8c2c:	dcff feff ffff ffff dfff ffff ffff fff7     ................
    8c3c:	ffff ffff ffff ffff ffff ffff ffff ffff     ................
    8c4c:	ffff ffff ffff ffff ffff ffff ffff ffff     ................
    8c5c:	ffff ffff ffff ffff ffff ffff ffff ffff     ................
    8c6c:	ffff ffff ffff ffff ffff ffff ffff ffff     ................
    8c7c:	ffff ffff ffff ffff dfff ffff ffff ffff     ................
    8c8c:	ffff dfff deff 99ff 31ff 8cf6 e8e5 eaed     .........1......
    8c9c:	e8a3 8028 0000 4000 4000 0000 0000 0000     ..(....@.@......
    8cac:	084a 13a5 def7 ffff dfff ffff dfff ffff     J...............
    8cbc:	ffff ffff ffff ffff ffff ffff ffff ffff     ................
    8ccc:	ffff ffff ffff ffff ffff dfff dfff d7bd     ................
    8cdc:	aa52 4108 0000 2100 2000 2100 0008 0010     R..A...!. .!....
    8cec:	c47a 69d5 c8dd 29e6 11ef b7ff fcff ffff     z..i...)........
    8cfc:	fff7 ffff ffff ffff ffff ffff ffff ffff     ................
    8d0c:	ffff ffff ffff ffff ffff ffff ffff ffff     ................
    8d1c:	ffff ffff ffff ffff ffff ffff ffff ffff     ................
    8d2c:	ffff ffff ffff ffff ffff ffff ffff ffff     ................
    8d3c:	ffff ffff ffff ffff ffff ffff ffff ffff     ................
    8d4c:	ffff ffff dff7 fdf7 fdff 57f7 d2f6 6ce6     ...........W...l
    8d5c:	a4ed 61ed 60fd 80fd c5fd 65bc 025a 4010     ...a.`.....eZ..@
    8d6c:	0200 2100 0000 0000 0000 0000 6942 b284     ...!........Bi..
    8d7c:	1be7 dfff ffff ffff deff ffff ffff ffff     ................
    8d8c:	dfff ffff ffff ffff ffff dfff ffff dfff     ................
    8d9c:	7def 76ad cc5a 2208 0200 0100 4100 6000     .}.vZ..".....A.`
    8dac:	2108 0000 a028 6593 a7ed 62ed 21ed 62ed     .!..(..e...b.!.b
    8dbc:	85ed a9e5 31ee 38ff fcff fdff feff ffff     .....1.8........
    8dcc:	ffff ffff ffff ffff ffff ffff ffff ffff     ................
    8ddc:	ffff ffff ffff ffff ffff ffff ffff ffff     ................
    8dec:	ffff ffff ffff ffff ffff ffff ffff ffff     ................
    8dfc:	ffff ffff ffff ffff ffff ffff ffff ffff     ................
    8e0c:	ffff ffff ffff ffff ffff ffff fdff f9ff     ................
    8e1c:	33ff 4bee a5e5 a2e5 a0ed a0f5 60fd 20fd     .3.K.........`. 
    8e2c:	40fd 02fe a6e5 6393 4149 0010 0108 0100     .@.....cIA......
    8e3c:	0000 2000 0008 0000 c218 6952 7294 18c6     ... ......Ri.r..
    8e4c:	fce6 7ef7 bfff ffff ffff ffff ffff bef7     ...~............
    8e5c:	3ce7 38c6 f4a4 cb5a 8631 0000 0000 0000     .<.8..Z.1.......
    8e6c:	2108 2108 0008 0008 8030 a472 08cd c4ed     .!.!....0.r.....
    8e7c:	80f5 60fd 60fd 41fd 80fd 62f5 45f5 caed     ...`.`.A...b.E..
    8e8c:	b0ee b7f7 fcff feff ffff ffff ffff ffff     ................
    8e9c:	ffff ffff ffff ffff ffff ffff ffff ffff     ................
    8eac:	ffff ffff ffff ffff ffff ffff ffff ffff     ................
    8ebc:	ffff ffff ffff ffff ffff ffff ffff ffff     ................
    8ecc:	ffff ffff ffff ffff ffff ffff ffff ffff     ................
    8edc:	ffff feff dbff 11ff a8ed 62ed 21f5 61fd     ...........b.!.a
    8eec:	80ed a0f5 81fd 62fd 81fd 80f5 81f5 a5f5     .......b........
    8efc:	47dd 448b a028 0008 0000 2000 0000 2108     .G.D(...... ...!
    8f0c:	0000 0000 0000 2108 8210 4429 c639 0842     .......!..)D9.B.
    8f1c:	0742 2742 e639 a529 2319 0000 0000 0000     B.B'9.)..#......
    8f2c:	0000 2000 2000 0000 0000 0008 2020 266a     ... . ......  j&
    8f3c:	44c4 66ed a3f5 80f5 60fd 40f5 60fd 61fd     .D.f.....`.@.`.a
    8f4c:	a0ed a1fd 61fd 21ed 85e5 8fee baff ffff     .....a.!........
    8f5c:	ffff ffff ffff ffff ffff ffff ffff ffff     ................
    8f6c:	ffff ffff ffff ffff ffff ffff ffff ffff     ................
    8f7c:	ffff ffff ffff ffff ffff ffff ffff ffff     ................
    8f8c:	ffff ffff ffff ffff ffff ffff ffff ffff     ................
    8f9c:	ffff ffff ffff ffff ffff feff 99ff cadd     ................
    8fac:	64ed 60fd 20fd 00fd 61fd 41fd 40fd 60fd     .d.`. ...a.A.@.`
    8fbc:	40fd 40fd 62fd 01fd 62f5 a4ed 24cd a393     .@.@.b...b...$..
    8fcc:	a041 c020 0000 0000 0000 0000 0100 0000     A. .............
    8fdc:	0000 0000 2000 0000 0000 0000 0000 0000     ..... ..........
    8fec:	0000 0000 6110 0000 0100 0108 0008 a118     .....a..........
    8ffc:	6131 447b c6bc 86e5 82fd 62fd 41f5 21f5     1a{D.......b.A.!
    900c:	41f5 61f5 61f5 61f5 a1f5 40f5 20fd 60fd     .A.a.a.a...@. .`
    901c:	61f5 a7dd d5ee ffff ffff ffff ffff ffff     .a..............
    902c:	ffff ffff ffff ffff ffff ffff ffff ffff     ................
    903c:	ffff ffff ffff ffff ffff ffff ffff ffff     ................
    904c:	ffff ffff ffff ffff ffff ffff ffff ffff     ................
    905c:	ffff ffff ffff ffff ffff ffff ffff ffff     ................
    906c:	ffff feff 7aff abcd 65dd 61ed 61f5 61f5     .....z...e.a.a.a
    907c:	60fd 60fd 60fd 61fd 40fd 60fd 40fd 40fd     .`.`.`.a.@.`.@.@
    908c:	60fd 80fd 80fd c2fd 63e5 c5c4 8593 025a     .`.......c....Z.
    909c:	4239 8020 0010 0008 0000 0000 0000 0100     9B .............
	...
    90b4:	0000 0008 0010 6020 a040 a369 e592 a7c4     ...... `@.i.....
    90c4:	65dd e3ed e1f5 60f5 40f5 61fd 41fd 62fd     .e.....`.@.a.A.b
    90d4:	61f5 61f5 81f5 61ed 61fd 42fd 41fd 61fd     .a.a...a.a.B.A.a
    90e4:	61ed a6dd 13ef fdff ffff ffff ffff ffff     .a..............
    90f4:	ffff ffff ffff ffff ffff ffff ffff ffff     ................
    9104:	ffff ffff ffff ffff ffff ffff ffff ffff     ................
    9114:	ffff ffff ffff ffff ffff ffff ffff ffff     ................
    9124:	ffff ffff ffff ffff ffff ffff ffff ffff     ................
    9134:	ffff feff fdff 75ef 4ee6 e8e5 e7e5 c5dd     .......u.N......
    9144:	87e5 84e5 82e5 63e5 44ed 84ed 83ed 84f5     .......c.D......
    9154:	84f5 84ed 84f5 43ed 65ed 86ed e8e5 a8d5     .......C.e......
    9164:	69d5 e9c4 28a4 a78b 2673 e762 a85a 8a5a     .i...(..s&b.Z.Z.
    9174:	a952 8952 8952 895a c96a 6a83 aa9b 8cb4     R.R.R.Z.j..j....
    9184:	27cd 68dd a7ed a4ed c3ed a2e5 62e5 64ed     .'.h.........b.d
    9194:	45f5 44f5 44f5 64fd 44f5 23ed 24ed 44ed     .E.D.D.d.D.#.$.D
    91a4:	65ed a6ed c7e5 e8e5 4bee d0f6 b9ff feff     .e.......K......
    91b4:	ffff ffff ffff ffff ffff ffff ffff ffff     ................
    91c4:	ffff ffff ffff ffff ffff ffff ffff ffff     ................
    91d4:	ffff ffff ffff dfff ffff ffff ffff ffff     ................
    91e4:	ffff ffff ffff ffff ffff ffff ffff ffff     ................
    91f4:	ffff ffff ffff ffff ffff ffff ffff feff     ................
    9204:	fcff daff 97ff 55ff 34f7 33f7 33ef 33ef     .......U.4.3.3.3
    9214:	12ef f2ee f1ee d1ee f1ee d1ee b2f6 b2f6     ................
    9224:	d2f6 d2f6 f2f6 12f7 f5fe 37ff 99ff dbff     ...........7....
    9234:	fbff fcff feff feff ffff feff feff feff     ................
    9244:	fcff dbff baf7 79f7 55ff 34f7 32f7 31f7     .......y.U.4.2.1
    9254:	10f7 f0f6 b1ee b1ee b1ee b1f6 b1f6 b1fe     ................
    9264:	d2fe f2f6 f3f6 13f7 35f7 55f7 77ff 99ff     .........5.U.w..
    9274:	bcff beff dfff dfff ffff ffff ffff ffff     ................
    9284:	ffff ffff ffff ffff ffff ffff ffff ffff     ................
    9294:	ffff ffff ffff ffff ffff ffff dfff dfff     ................
    92a4:	dfff dfff ffff ffff ffff ffff ffff ffff     ................
    92b4:	ffff ffff ffff ffff ffff ffff ffff ffff     ................
    92c4:	ffff ffff ffff feff ffff ffff ffff ffff     ................
    92d4:	ffff ffff ffff ffff ffff ffff ffff ffff     ................
    92e4:	feff feff ffff ffff ffff deff feff feff     ................
    92f4:	deff deff ffff ffff ffff feff feff ffff     ................
    9304:	ffff feff feff ffff feff feff feff ddff     ................
    9314:	ffff ffff ffff ffff ffff ffff deff feff     ................
    9324:	fdff fdff feff feff feff feff feff feff     ................
    9334:	ffff ffff feff feff ffff ffff fff7 ffff     ................
    9344:	ffff ffff ffff ffff ffff ffff ffff ffff     ................
    9354:	ffff ffff ffff ffff ffff ffff ffff ffff     ................
    9364:	dfff dfff dfff dfff dfff dfff dfff ffff     ................
    9374:	ffff ffff ffff ffff ffff ffff ffff ffff     ................
    9384:	ffff ffff ffff ffff ffff ffff ffff feff     ................
    9394:	feff ffff ffff ffff dfff dfff dfff ffff     ................
    93a4:	ffff ffff dfff ffff ffff ffff ffff ffff     ................
    93b4:	ffff ffff ffff ffff feff feff ffff ffff     ................
    93c4:	deff feff ffff ffff ffff dfff dfff dfff     ................
    93d4:	dfff dfff ffff deff feff deff dfff dfff     ................
    93e4:	dfff dfff deff fdff feff feff feff ffff     ................
    93f4:	ffff ffff ffff ffff ffff ffff feff feff     ................
    9404:	feff ffff ffff ffff ffff ffff ffff ffff     ................
    9414:	ffff ffff ffff ffff ffff ffff ffff ffff     ................
    9424:	ffff ffff ffff ffff dfff dfff dfff bef7     ................
    9434:	dfff dfff dfff dfff ffff ffff ffff ffff     ................
    9444:	ffff ffff ffff ffff ffff ffff ffff ffff     ................
    9454:	ffff ffff ffff ffff ffff ffff ffff ffff     ................
    9464:	ffff ffff ffff ffff ffff ffff ffff ffff     ................
    9474:	ffff ffff dfff ffff ffff feff feff feff     ................
    9484:	feff ffff ffff ffff deff ffff ffff ffff     ................
    9494:	ffff dfff dfff ffff ffff ffff feff feff     ................
    94a4:	ffff ffff ffff ffff dfff ffff ffff feff     ................
    94b4:	feff feff ffff ffff ffff ffff ffff ffff     ................
    94c4:	ffff ffff feff feff ffff ffff ffff ffff     ................
    94d4:	ffff ffff ffff ffff ffff ffff ffff ffff     ................
    94e4:	ffff ffff ffff ffff ffff ffff ffff ffff     ................
    94f4:	dfff dfff dfff dfff                         ........

000094fc <gImage_7>:
    94fc:	4335 4335 4335 4335 4335 4335 4335 4335     5C5C5C5C5C5C5C5C
    950c:	422d 422d 422d 432d 432d 432d 432d 4335     -B-B-B-C-C-C-C5C
    951c:	432d 432d 4335 4335 4335 4335 4335 4335     -C-C5C5C5C5C5C5C
    952c:	4335 4335 4335 4335 4335 4335 4335 6335     5C5C5C5C5C5C5C5c
    953c:	632d 632d 6335 6335 6335 6335 4335 6335     -c-c5c5c5c5c5C5c
    954c:	4335 4335 6335 6335 6335 6435 6335 6335     5C5C5c5c5c5d5c5c
    955c:	6335 4335 4335 4335 4335 4335 4335 6335     5c5C5C5C5C5C5C5c
    956c:	6335 6335 6335 6335 6335 6335 6335 6335     5c5c5c5c5c5c5c5c
    957c:	4435 4435 6435 6435 6435 6435 642d 642d     5D5D5d5d5d5d-d-d
    958c:	4335 4335 4335 4335 4335 4335 4335 4335     5C5C5C5C5C5C5C5C
    959c:	4335 4335 4335 4335 4335 4335 4335 4335     5C5C5C5C5C5C5C5C
    95ac:	4335 4335 4335 432d 432d 432d 432d 432d     5C5C5C-C-C-C-C-C
    95bc:	432d 432d 432d 432d 0225 0125 0125 0125     -C-C-C-C%.%.%.%.
    95cc:	0125 0125 0125 0125 0125 0125 0125 0125     %.%.%.%.%.%.%.%.
    95dc:	0125 0125 0125 0125 e124 0125 0125 0125     %.%.%.%.$.%.%.%.
    95ec:	0225 0225 0225 0225 0225 0225 0225 0225     %.%.%.%.%.%.%.%.
    95fc:	0225 0225 0225 0225 2225 2225 222d 022d     %.%.%.%.%"%"-"-.
    960c:	022d 022d 222d 222d 022d 022d 022d 222d     -.-.-"-"-.-.-.-"
    961c:	222d 222d 222d 222d 222d 022d 022d 022d     -"-"-"-"-"-.-.-.
    962c:	022d 022d 022d 222d 222d 222d 222d 222d     -.-.-.-"-"-"-"-"
    963c:	222d 222d 222d 222d 222d 222d 222d 022d     -"-"-"-"-"-"-"-.
    964c:	022d 2225 2225 2225 2225 0225 0225 0225     -.%"%"%"%"%.%.%.
    965c:	0225 0225 0225 0225 0225 0225 0225 0225     %.%.%.%.%.%.%.%.
    966c:	0225 0225 0225 0225 0225 0225 0225 0125     %.%.%.%.%.%.%.%.
    967c:	0125 0125 0125 0125 0125 0125 0125 0125     %.%.%.%.%.%.%.%.
    968c:	2125 2125 0125 2125 2125 2125 2025 2025     %!%!%.%!%!%!% % 
    969c:	0125 0125 0125 0125 0125 0125 0125 0125     %.%.%.%.%.%.%.%.
    96ac:	e124 e124 0125 0125 0125 0125 0125 0125     $.$.%.%.%.%.%.%.
    96bc:	0125 0125 0125 0125 0125 0125 2125 2125     %.%.%.%.%.%.%!%!
    96cc:	2125 2125 0125 012d 012d 012d 0125 0125     %!%!%.-.-.-.%.%.
    96dc:	0125 0125 212d 212d 212d 212d 212d 212d     %.%.-!-!-!-!-!-!
    96ec:	2225 2125 0125 2125 2125 0125 2125 2225     %"%!%.%!%!%.%!%"
    96fc:	2225 2225 2225 2225 2225 2225 2225 2225     %"%"%"%"%"%"%"%"
    970c:	222d 222d 2225 2125 2125 2125 2125 2125     -"-"%"%!%!%!%!%!
    971c:	2125 2125 2125 0125 2125 2125 2125 2125     %!%!%!%.%!%!%!%!
    972c:	0125 0125 0125 0125 0125 0125 0125 0125     %.%.%.%.%.%.%.%.
    973c:	0125 0125 0125 0125 0125 0125 0125 0125     %.%.%.%.%.%.%.%.
    974c:	0125 0125 0125 0125 211d 201d 201d 201d     %.%.%.%..!. . . 
    975c:	201d 201d 201d 201d 211d 211d 2125 0125     . . . . .!.!%!%.
    976c:	0125 0125 0125 0125 0125 0125 0125 0125     %.%.%.%.%.%.%.%.
    977c:	2125 2125 2125 2125 2125 2125 2125 2125     %!%!%!%!%!%!%!%!
    978c:	2125 2125 2125 2125 2125 212d 212d 212d     %!%!%!%!%!-!-!-!
    979c:	212d 212d 0125 2125 2125 2125 2125 2125     -!-!%.%!%!%!%!%!
    97ac:	2125 222d 222d 222d 2225 2225 2125 2225     %!-"-"-"%"%"%!%"
    97bc:	2225 2125 2225 2225 2125 2125 2125 2125     %"%!%"%"%!%!%!%!
    97cc:	2225 2225 2225 2225 2225 2225 2125 2125     %"%"%"%"%"%"%!%!
    97dc:	2125 2125 2125 2125 2125 2125 2125 2125     %!%!%!%!%!%!%!%!
    97ec:	2125 2125 2125 2125 0125 2125 2125 2125     %!%!%!%!%.%!%!%!
    97fc:	2125 0125 0125 0125 0125 0125 0125 0125     %!%.%.%.%.%.%.%.
    980c:	0125 0125 0125 0125 0125 0125 0125 0125     %.%.%.%.%.%.%.%.
    981c:	0125 0125 0125 0125 0125 0125 0125 0125     %.%.%.%.%.%.%.%.
    982c:	011d 011d 011d 0125 0125 0125 0125 0125     ......%.%.%.%.%.
    983c:	e124 0125 0125 0125 0125 2125 2125 211d     $.%.%.%.%.%!%!.!
    984c:	2125 2125 2125 2125 2125 2125 2125 2125     %!%!%!%!%!%!%!%!
    985c:	2125 0125 012d 012d 012d 0125 0125 2125     %!%.-.-.-.%.%.%!
    986c:	2125 2125 2225 2225 2225 2225 2225 2225     %!%!%"%"%"%"%"%"
    987c:	2125 2125 2125 2125 2125 2125 2125 2125     %!%!%!%!%!%!%!%!
    988c:	2125 2125 2125 2125 2125 2125 2225 2225     %!%!%!%!%!%!%"%"
    989c:	2225 2225 2225 2225 2225 2125 2125 2125     %"%"%"%"%"%!%!%!
    98ac:	2125 0125 0125 0125 0125 0125 0125 0125     %!%.%.%.%.%.%.%.
    98bc:	0125 0125 0125 0125 0125 0125 0125 0125     %.%.%.%.%.%.%.%.
    98cc:	0125 0125 0125 0125 0125 0125 0125 0125     %.%.%.%.%.%.%.%.
    98dc:	0125 0125 011d 011d 0125 0125 0125 0125     %.%.....%.%.%.%.
    98ec:	0125 0125 0125 0125 011d 011d 011d 0125     %.%.%.%.......%.
    98fc:	0125 0125 0125 0125 0125 0125 0125 2125     %.%.%.%.%.%.%.%!
    990c:	2125 2125 2125 2125 2225 2225 2225 2225     %!%!%!%!%"%"%"%"
    991c:	2225 2225 2225 2225 222d 222d 222d 222d     %"%"%"%"-"-"-"-"
    992c:	222d 222d 2225 222d 2225 2225 2225 2225     -"-"%"-"%"%"%"%"
    993c:	2225 2225 2225 2225 222d 212d 212d 212d     %"%"%"%"-"-!-!-!
    994c:	212d 212d 212d 222d 4225 4225 4225 4225     -!-!-!-"%B%B%B%B
    995c:	4225 4225 4225 4225 2225 2225 2225 2225     %B%B%B%B%"%"%"%"
    996c:	2225 2225 2225 2225 2225 2225 0225 0225     %"%"%"%"%"%"%.%.
    997c:	0225 222d 222d 0225 0225 0225 0225 0225     %.-"-"%.%.%.%.%.
    998c:	0225 0225 0225 0225 2125 2125 2125 2125     %.%.%.%.%!%!%!%!
    999c:	2125 0125 0125 0125 0125 0125 0125 0125     %!%.%.%.%.%.%.%.
    99ac:	0125 0125 0125 0125 0125 0125 0125 0125     %.%.%.%.%.%.%.%.
    99bc:	011d 011d 0125 0125 0125 0125 0125 0125     ....%.%.%.%.%.%.
    99cc:	0125 0125 0125 2125 2125 2225 2225 2225     %.%.%.%!%!%"%"%"
    99dc:	2225 2225 2225 2225 2225 2225 222d 222d     %"%"%"%"%"%"-"-"
    99ec:	222d 222d 022d 022d 222d 222d 222d 2225     -"-"-.-.-"-"-"%"
    99fc:	222d 222d 222d 222d 222d 222d 222d 222d     -"-"-"-"-"-"-"-"
    9a0c:	222d 2225 2225 2225 2225 2225 2225 222d     -"%"%"%"%"%"%"-"
    9a1c:	422d 422d 422d 422d 2225 2225 2225 2225     -B-B-B-B%"%"%"%"
    9a2c:	2225 2225 2225 2225 2225 2225 2125 2125     %"%"%"%"%"%"%!%!
    9a3c:	2225 2225 2225 2225 2225 2225 2225 2225     %"%"%"%"%"%"%"%"
    9a4c:	2125 2125 2125 2125 2125 2125 0125 0125     %!%!%!%!%!%!%.%.
    9a5c:	0125 0125 0125 0125 0125 0125 0125 0125     %.%.%.%.%.%.%.%.
    9a6c:	0125 0125 0125 0125 011d 011d 011d 011d     %.%.%.%.........
    9a7c:	011d 011d 011d 011d 011d 011d 0125 0125     ............%.%.
    9a8c:	0125 0125 0125 0125 0125 0125 0125 2125     %.%.%.%.%.%.%.%!
    9a9c:	2125 2225 2225 2225 2125 2125 2125 2125     %!%"%"%"%!%!%!%!
    9aac:	212d 212d 212d 212d 212d 212d 212d 212d     -!-!-!-!-!-!-!-!
    9abc:	212d 222d 422d 422d 422d 422d 422d 422d     -!-"-B-B-B-B-B-B
    9acc:	422d 422d 222d 222d 4225 4225 2225 2225     -B-B-"-"%B%B%"%"
    9adc:	2225 2225 4225 4225 422d 422d 422d 422d     %"%"%B%B-B-B-B-B
    9aec:	422d 2225 2225 2225 422d 4225 4225 4225     -B%"%"%"-B%B%B%B
    9afc:	4125 2125 2125 2125 4225 4225 2125 2125     %A%!%!%!%B%B%!%!
    9b0c:	2125 2125 2125 2125 0125 0125 0125 0125     %!%!%!%!%.%.%.%.
    9b1c:	0125 0125 0125 0125 0125 0125 0125 0125     %.%.%.%.%.%.%.%.
    9b2c:	0125 0125 0125 0125 0125 0125 0125 0125     %.%.%.%.%.%.%.%.
    9b3c:	0125 0125 0125 011d 011d 011d 0125 0225     %.%.%.......%.%.
    9b4c:	0125 0125 0125 0125 0125 0125 0125 0125     %.%.%.%.%.%.%.%.
    9b5c:	0125 0125 0125 0125 2125 2125 2125 2125     %.%.%.%.%!%!%!%!
    9b6c:	2125 2125 2125 212d 212d 2125 2125 2125     %!%!%!-!-!%!%!%!
    9b7c:	4225 2225 222d 222d 222d 222d 2225 2225     %B%"-"-"-"-"%"%"
    9b8c:	2125 2125 422d 422d 422d 422d 422d 422d     %!%!-B-B-B-B-B-B
    9b9c:	422d 422d 422d 4225 4225 4225 4225 6225     -B-B-B%B%B%B%B%b
    9bac:	4225 4225 4225 422d 4225 422d 4225 2125     %B%B%B-B%B-B%B%!
    9bbc:	4225 4225 222d 222d 222d 222d 4225 4225     %B%B-"-"-"-"%B%B
    9bcc:	2125 2125 2125 2125 2125 2125 2125 2125     %!%!%!%!%!%!%!%!
    9bdc:	2125 2125 2125 2125 2125 2125 0125 0125     %!%!%!%!%!%!%.%.
    9bec:	2125 2125 2125 0125 0125 0125 0125 0125     %!%!%!%.%.%.%.%.
    9bfc:	0125 0125 0125 0125 0125 0125 0125 011d     %.%.%.%.%.%.%...
    9c0c:	011d 011d 0225 0225 0125 0125 0125 0125     ....%.%.%.%.%.%.
    9c1c:	0125 0125 0125 0125 0125 0125 0125 2125     %.%.%.%.%.%.%.%!
    9c2c:	2125 2125 2125 2125 2125 2125 2125 212d     %!%!%!%!%!%!%!-!
    9c3c:	212d 212d 2125 2125 2225 2225 2225 222d     -!-!%!%!%"%"%"-"
    9c4c:	222d 222d 222d 422d 422d 422d 422d 422d     -"-"-"-B-B-B-B-B
    9c5c:	422d 422d 422d 422d 422d 422d 422d 422d     -B-B-B-B-B-B-B-B
    9c6c:	422d 4225 6225 6225 422d 422d 422d 422d     -B%B%b%b-B-B-B-B
    9c7c:	422d 422d 4225 4225 4225 4225 222d 222d     -B-B%B%B%B%B-"-"
    9c8c:	222d 222d 4225 4225 222d 2125 2125 2125     -"-"%B%B-"%!%!%!
    9c9c:	2125 2125 2125 2125 2125 2125 2125 2125     %!%!%!%!%!%!%!%!
    9cac:	2125 2125 0125 0125 2125 2125 2125 2125     %!%!%.%.%!%!%!%!
    9cbc:	0125 0125 0125 0125 0125 0125 0125 0125     %.%.%.%.%.%.%.%.
    9ccc:	0125 0125 0125 0125 011d 0125 0125 0225     %.%.%.%...%.%.%.
    9cdc:	0125 0125 0125 0125 0125 0125 0125 0125     %.%.%.%.%.%.%.%.
    9cec:	0125 0125 2125 2125 2225 2225 2225 2225     %.%.%!%!%"%"%"%"
    9cfc:	2125 2125 2125 212d 212d 212d 222d 222d     %!%!%!-!-!-!-"-"
    9d0c:	2225 2225 222d 222d 222d 222d 422d 422d     %"%"-"-"-"-"-B-B
    9d1c:	422d 422d 422d 422d 422d 422d 422d 422d     -B-B-B-B-B-B-B-B
    9d2c:	422d 422d 422d 422d 422d 4225 6225 6225     -B-B-B-B-B%B%b%b
    9d3c:	422d 422d 422d 422d 422d 422d 422d 4225     -B-B-B-B-B-B-B%B
    9d4c:	4225 4225 222d 222d 222d 222d 4225 4225     %B%B-"-"-"-"%B%B
    9d5c:	222d 222d 2125 2125 222d 222d 2125 2125     -"-"%!%!-"-"%!%!
    9d6c:	2125 2125 2125 2125 2125 2125 2125 2125     %!%!%!%!%!%!%!%!
    9d7c:	2125 2125 2125 2125 0125 0125 0125 2125     %!%!%!%!%.%.%.%!
    9d8c:	0125 0125 0125 0125 0125 0125 0125 0125     %.%.%.%.%.%.%.%.
    9d9c:	0125 0125 0125 0125 0125 0125 0125 0125     %.%.%.%.%.%.%.%.
    9dac:	0125 0125 2125 2125 0125 2125 2125 2225     %.%.%!%!%.%!%!%"
    9dbc:	2225 2225 2225 2225 2125 2125 222d 222d     %"%"%"%"%!%!-"-"
    9dcc:	222d 222d 222d 422d 4225 422d 422d 222d     -"-"-"-B%B-B-B-"
    9ddc:	222d 422d 422d 422d 422d 422d 422d 422d     -"-B-B-B-B-B-B-B
    9dec:	422d 422d 422d 422d 422d 422d 422d 422d     -B-B-B-B-B-B-B-B
    9dfc:	422d 422d 4225 4225 422d 422d 422d 422d     -B-B%B%B-B-B-B-B
    9e0c:	422d 422d 422d 422d 422d 422d 422d 222d     -B-B-B-B-B-B-B-"
    9e1c:	222d 422d 422d 422d 422d 422d 222d 222d     -"-B-B-B-B-B-"-"
    9e2c:	222d 222d 222d 2125 2125 2125 2125 2125     -"-"-"%!%!%!%!%!
    9e3c:	2125 2125 2125 2125 2125 2125 2125 2125     %!%!%!%!%!%!%!%!
    9e4c:	0125 0125 0125 0125 2125 0125 0125 0125     %.%.%.%.%!%.%.%.
    9e5c:	0125 0125 0125 0125 0125 0125 0125 0125     %.%.%.%.%.%.%.%.
    9e6c:	0125 0125 0125 0125 2125 2125 2125 2125     %.%.%.%.%!%!%!%!
    9e7c:	2125 2125 2225 2225 2225 2225 2225 2225     %!%!%"%"%"%"%"%"
    9e8c:	2125 222d 222d 222d 222d 222d 222d 422d     %!-"-"-"-"-"-"-B
    9e9c:	422d 422d 422d 422d 422d 422d 422d 422d     -B-B-B-B-B-B-B-B
    9eac:	422d 422d 422d 422d 422d 422d 422d 422d     -B-B-B-B-B-B-B-B
    9ebc:	422d 422d 422d 422d 422d 422d 422d 422d     -B-B-B-B-B-B-B-B
    9ecc:	422d 422d 422d 422d 422d 422d 422d 422d     -B-B-B-B-B-B-B-B
    9edc:	422d 422d 422d 422d 422d 422d 422d 422d     -B-B-B-B-B-B-B-B
    9eec:	422d 422d 422d 422d 422d 422d 222d 222d     -B-B-B-B-B-B-"-"
    9efc:	2125 222d 222d 222d 2125 2125 2125 2125     %!-"-"-"%!%!%!%!
    9f0c:	2125 2125 2125 2125 0125 0125 0125 0125     %!%!%!%!%.%.%.%.
    9f1c:	2125 2125 0125 0125 0125 0125 0125 0125     %!%!%.%.%.%.%.%.
    9f2c:	0125 0125 0125 0125 0125 0125 0125 2125     %.%.%.%.%.%.%.%!
    9f3c:	2125 2125 2125 2125 2125 2125 2225 2225     %!%!%!%!%!%!%"%"
    9f4c:	2225 2225 2225 2225 2125 222d 222d 222d     %"%"%"%"%!-"-"-"
    9f5c:	222d 222d 222d 422d 422d 422d 422d 422d     -"-"-"-B-B-B-B-B
    9f6c:	422d 422d 412d 412d 422d 422d 422d 422d     -B-B-A-A-B-B-B-B
    9f7c:	422d 422d 422d 422d 622d 622d 622d 622d     -B-B-B-B-b-b-b-b
    9f8c:	622d 622d 622d 622d 622d 622d 422d 422d     -b-b-b-b-b-b-B-B
    9f9c:	422d 422d 422d 422d 422d 422d 422d 422d     -B-B-B-B-B-B-B-B
    9fac:	422d 422d 422d 422d 422d 422d 422d 422d     -B-B-B-B-B-B-B-B
    9fbc:	422d 422d 222d 222d 222d 222d 222d 222d     -B-B-"-"-"-"-"-"
    9fcc:	222d 2125 2125 2125 2125 2125 2125 2125     -"%!%!%!%!%!%!%!
    9fdc:	0125 0125 0125 0125 0125 0125 0125 0125     %.%.%.%.%.%.%.%.
    9fec:	0125 0125 0125 0125 0125 0125 0125 0125     %.%.%.%.%.%.%.%.
    9ffc:	0125 0125 0125 2125 2125 2125 2125 2125     %.%.%.%!%!%!%!%!
    a00c:	0125 0125 2225 2225 2225 2225 2225 2225     %.%.%"%"%"%"%"%"
    a01c:	2125 222d 222d 222d 222d 222d 222d 222d     %!-"-"-"-"-"-"-"
    a02c:	422d 422d 422d 4225 4225 4125 4125 4125     -B-B-B%B%B%A%A%A
    a03c:	422d 422d 422d 422d 422d 422d 422d 422d     -B-B-B-B-B-B-B-B
    a04c:	622d 622d 622d 622d 622d 622d 622d 622d     -b-b-b-b-b-b-b-b
    a05c:	622d 622d 622d 622d 622d 422d 422d 422d     -b-b-b-b-b-B-B-B
    a06c:	422d 422d 422d 422d 422d 422d 422d 422d     -B-B-B-B-B-B-B-B
    a07c:	422d 422d 422d 422d 422d 422d 222d 222d     -B-B-B-B-B-B-"-"
    a08c:	222d 222d 222d 222d 222d 2125 2125 2125     -"-"-"-"-"%!%!%!
    a09c:	2125 2125 2125 2125 0125 0125 0125 0125     %!%!%!%!%.%.%.%.
    a0ac:	0125 0125 0125 0125 0125 0125 0125 0125     %.%.%.%.%.%.%.%.
    a0bc:	0125 0125 0125 0125 0125 0125 0125 2125     %.%.%.%.%.%.%.%!
    a0cc:	2125 2125 2125 2125 0125 0125 2225 2225     %!%!%!%!%.%.%"%"
    a0dc:	2225 2225 2225 2225 2125 222d 222d 222d     %"%"%"%"%!-"-"-"
    a0ec:	222d 222d 222d 222d 422d 422d 422d 4225     -"-"-"-"-B-B-B%B
    a0fc:	4125 4125 4125 4125 2125 2125 2125 2125     %A%A%A%A%!%!%!%!
    a10c:	222d 422d 422d 422d 622d 622d 622d 622d     -"-B-B-B-b-b-b-b
    a11c:	622d 622d 622d 622d 622d 622d 422d 422d     -b-b-b-b-b-b-B-B
    a12c:	422d 422d 422d 422d 422d 422d 422d 622d     -B-B-B-B-B-B-B-b
    a13c:	422d 422d 422d 422d 422d 422d 422d 422d     -B-B-B-B-B-B-B-B
    a14c:	422d 422d 222d 222d 222d 222d 222d 222d     -B-B-"-"-"-"-"-"
    a15c:	222d 2125 2125 2125 2125 2125 2125 2125     -"%!%!%!%!%!%!%!
    a16c:	0125 0125 0125 0125 0125 0125 0125 0125     %.%.%.%.%.%.%.%.
    a17c:	0125 0125 0125 0125 0125 0125 0125 2125     %.%.%.%.%.%.%.%!
    a18c:	0125 0125 0125 0125 2125 2125 2225 2225     %.%.%.%.%!%!%"%"
    a19c:	0225 2125 2125 2125 2125 212d 222d 222d     %.%!%!%!%!-!-"-"
    a1ac:	222d 212d 4125 4125 2125 4125 422d 012d     -"-!%A%A%!%A-B-.
    a1bc:	2225 0225 032d 0335 4445 654d 8755 a955     %"%.-.5.EDMeU.U.
    a1cc:	ca65 ca65 ca5d c85d a755 a645 843d 833d     e.e.].].U.E.=.=.
    a1dc:	4235 0125 2225 6325 6325 632d 422d 4235     5B%.%"%c%c-c-B5B
    a1ec:	2235 433d 4235 422d 412d 412d 6235 432d     5"=C5B-B-A-A5b-C
    a1fc:	4335 432d 432d 422d 422d 622d 422d 6335     5C-C-C-B-B-b-B5c
    a20c:	422d 422d 422d 422d 422d 422d 422d 422d     -B-B-B-B-B-B-B-B
    a21c:	222d 222d 222d 222d 222d 2125 2125 2125     -"-"-"-"-"%!%!%!
    a22c:	222d 2125 2125 2125 2125 2125 2125 2125     -"%!%!%!%!%!%!%!
    a23c:	212d 0125 0125 0125 0125 0125 0125 0125     -!%.%.%.%.%.%.%.
    a24c:	0125 0125 0125 0125 2125 2125 2125 2125     %.%.%.%.%!%!%!%!
    a25c:	2125 2225 2225 2225 2225 222d 022d 022d     %!%"%"%"%"-"-.-.
    a26c:	022d 2125 2125 2125 2125 422d 2125 0125     -.%!%!%!%!-B%!%.
    a27c:	022d c22c c334 4545 e85d 6c76 f39e 78bf     -.,.4.EE].vl...x
    a28c:	bbd7 bce7 dcef ddf7 deff fef7 fef7 fdf7     ................
    a29c:	dcef dae7 b9df 98d7 34b7 9196 ed75 6955     .........4..u.Ui
    a2ac:	0635 e32c 232d 632d 6235 422d 422d 642d     5.,.-#-c5b-B-B-d
    a2bc:	632d 6125 812d 6335 422d 422d 622d 632d     -c%a-.5c-B-B-b-c
    a2cc:	6335 422d 222d 6335 422d 422d 422d 422d     5c-B-"5c-B-B-B-B
    a2dc:	422d 422d 422d 422d 422d 422d 422d 422d     -B-B-B-B-B-B-B-B
    a2ec:	222d 222d 2125 2125 222d 222d 2125 2125     -"-"%!%!-"-"%!%!
    a2fc:	2125 2125 2125 2125 212d 0125 0125 0125     %!%!%!%!-!%.%.%.
    a30c:	0125 0125 0125 0125 0125 0125 0125 2125     %.%.%.%.%.%.%.%!
    a31c:	2225 2225 2225 2225 2225 2225 2225 2225     %"%"%"%"%"%"%"%"
    a32c:	4125 2225 022d 212d 4125 2125 0225 022d     %A%"-.-!%A%!%.-.
    a33c:	4125 0125 e22c e544 495d 0e86 13af f8cf     %A%.,.D.]I......
    a34c:	faef fdf7 fff7 dfff dfff bfff dfff ffff     ................
    a35c:	dfff dfff dfff ffff ffff feff feff feff     ................
    a36c:	feff fef7 fdef dad7 76bf b296 cd75 e854     .........v..u.T.
    a37c:	222d 6025 a01d a225 632d 6335 6235 622d     -"%`..%.-c5c5b-b
    a38c:	832d 8335 622d 422d 6335 6335 632d 422d     -.5.-b-B5c5c-c-B
    a39c:	622d 422d 422d 422d 422d 422d 422d 422d     -b-B-B-B-B-B-B-B
    a3ac:	422d 422d 422d 422d 422d 222d 222d 222d     -B-B-B-B-B-"-"-"
    a3bc:	222d 222d 222d 2125 2125 2125 2125 2125     -"-"-"%!%!%!%!%!
    a3cc:	212d 2125 0125 0125 0125 0125 0125 0125     -!%!%.%.%.%.%.%.
    a3dc:	0125 0125 0225 2125 2225 2225 2225 2225     %.%.%.%!%"%"%"%"
    a3ec:	2225 2225 222d 222d 2125 222d 222d 2125     %"%"-"-"%!-"-"%!
    a3fc:	401d 611d 2225 032d 8434 c644 cc75 13af     .@.a%"-.4.D.u...
    a40c:	dadf fdf7 ffff ffff dfff dfff bfff beff     ................
    a41c:	deff deff deff bff7 deff deff deff deff     ................
    a42c:	deff deff deff deff beff dfff deff ffff     ................
    a43c:	feff feff fdf7 5bdf 909e c965 6235 4125     .......[..e.5b%A
    a44c:	622d 8335 622d 832d 622d 622d 622d 6335     -b5.-b-.-b-b-b5c
    a45c:	432d 432d 8335 622d 622d 422d 422d 422d     -C-C5.-b-b-B-B-B
    a46c:	422d 422d 422d 422d 422d 422d 422d 422d     -B-B-B-B-B-B-B-B
    a47c:	422d 422d 222d 222d 222d 222d 222d 2125     -B-B-"-"-"-"-"%!
    a48c:	2125 2125 2125 2125 212d 2125 0125 0125     %!%!%!%!-!%!%.%.
    a49c:	0225 0225 0125 0125 0125 0125 0125 0125     %.%.%.%.%.%.%.%.
    a4ac:	2225 2125 2125 2125 222d 222d 222d 222d     %"%!%!%!-"-"-"-"
    a4bc:	2225 012d 012d 022d 4225 4025 0125 042d     %"-.-.-.%B%@%.-.
    a4cc:	f29d 58cf fcef fdf7 feff ffff dfff bff7     ...X............
    a4dc:	dfff dfff beff beff beff bdff deff deff     ................
    a4ec:	bfff bfff bfff bfff bfff bfff 9fff 9fff     ................
    a4fc:	bfff bfff beff bfff bfff dfff ffff ffff     ................
    a50c:	ffff ddef 16b7 aa65 2435 632d 642d 8435     ......e.5$-c-d5.
    a51c:	8335 822d 622d 8335 632d 432d 622d 622d     5.-.-b5.-c-C-b-b
    a52c:	622d 422d 422d 422d 422d 422d 422d 422d     -b-B-B-B-B-B-B-B
    a53c:	422d 422d 422d 422d 422d 222d 222d 222d     -B-B-B-B-B-"-"-"
    a54c:	222d 222d 2125 2125 2125 2125 2125 2125     -"-"%!%!%!%!%!%!
    a55c:	2125 0125 0125 0125 0225 0225 0125 0125     %!%.%.%.%.%.%.%.
    a56c:	0125 0125 0125 0125 2125 0125 0125 0125     %.%.%.%.%!%.%.%.
    a57c:	222d 222d 222d 222d 0125 2225 6125 4125     -"-"-"-"%.%"%a%A
    a58c:	e224 c644 0f86 f9d7 fef7 feff feff deff     $.D.............
    a59c:	deff deff def7 ffff ffff ffff ffff feff     ................
    a5ac:	fdf7 fdf7 fdf7 fdf7 fdf7 fdf7 fdf7 fef7     ................
    a5bc:	fef7 fef7 def7 dff7 fef7 feff fef7 feff     ................
    a5cc:	feff fef7 ffff ffff ffff dfff dfff bbef     ................
    a5dc:	14bf ac6d e534 0225 6435 8335 8235 622d     ..m.4.%.5d5.5.-b
    a5ec:	632d 8335 422d 622d 622d 422d 422d 422d     -c5.-B-b-b-B-B-B
    a5fc:	422d 422d 422d 422d 422d 422d 422d 422d     -B-B-B-B-B-B-B-B
    a60c:	422d 422d 222d 222d 222d 222d 2125 2125     -B-B-"-"-"-"%!%!
    a61c:	2125 2125 2125 2125 2125 2125 0125 0125     %!%!%!%!%!%!%.%.
    a62c:	0225 0125 0125 0125 0125 0125 2125 2125     %.%.%.%.%.%.%!%!
    a63c:	0125 0125 0125 0125 222d 022d 222d 222d     %.%.%.%.-"-.-"-"
    a64c:	222d 432d e224 e22c ec75 59cf ffff dfff     -"-C$.,.u..Y....
    a65c:	ffff def7 def7 feff deff feff ffff dff7     ................
    a66c:	feef feef fdef fdf7 fdf7 fdf7 fef7 def7     ................
    a67c:	fef7 fdf7 fdf7 fdf7 fdf7 fef7 fef7 fff7     ................
    a68c:	feef fef7 fef7 fdf7 fdf7 feff ffff deff     ................
    a69c:	fdff feff bdff bdff feff ddef b396 4745     ..............EG
    a6ac:	2435 2335 8235 822d 622d 832d 622d 6235     5$5#5.-.-b-.-b5b
    a6bc:	622d 622d 422d 422d 422d 422d 422d 422d     -b-b-B-B-B-B-B-B
    a6cc:	422d 422d 422d 422d 422d 422d 422d 222d     -B-B-B-B-B-B-B-"
    a6dc:	222d 222d 222d 222d 2125 2125 222d 222d     -"-"-"-"%!%!-"-"
    a6ec:	2125 2125 2125 2125 0125 0225 0225 0125     %!%!%!%!%.%.%.%.
    a6fc:	0125 2125 2125 2125 222d 222d 222d 222d     %.%!%!%!-"-"-"-"
    a70c:	022d 022d 222d 222d e42c a22c 264d 929e     -.-.-"-",.,.M&..
    a71c:	ddef ffff beff def7 9fff dfff dfff dfff     ................
    a72c:	deff fef7 fef7 fef7 dfff ffff ffff feff     ................
    a73c:	fff7 fef7 fef7 fef7 fef7 fef7 fef7 fef7     ................
    a74c:	fef7 fef7 def7 dff7 dfff deff feff fef7     ................
    a75c:	fdf7 fdf7 ddf7 feff deff feff fdf7 feff     ................
    a76c:	dfff ffff fef7 79df 6a66 2335 412d a22d     .......yfj5#-A-.
    a77c:	6225 632d 632d 4235 622d 622d 422d 422d     %b-c-c5B-b-b-B-B
    a78c:	422d 622d 422d 422d 422d 422d 422d 422d     -B-b-B-B-B-B-B-B
    a79c:	422d 422d 422d 422d 422d 422d 222d 222d     -B-B-B-B-B-B-"-"
    a7ac:	222d 222d 222d 222d 222d 2125 2125 2125     -"-"-"-"-"%!%!%!
    a7bc:	0125 2125 2125 2125 2125 2125 2125 2125     %.%!%!%!%!%!%!%!
    a7cc:	411d 0125 022d 0225 2225 222d 222d 2225     .A%.-.%.%"-"-"%"
    a7dc:	a32c 6a5d 78c7 ffff def7 def7 deff beff     ,.]j.x..........
    a7ec:	deff deff deff dfff dfff dfff dfff feff     ................
    a7fc:	deff deff deff dfff dfff dfff dfff deff     ................
    a80c:	dfff dfff dfff dfff dfff dfff deff deff     ................
    a81c:	deff deff deff deff deff deff deff deff     ................
    a82c:	deff deff deff deff deff deff deff deff     ................
    a83c:	f9df 7096 e53c 622d a125 622d 622d 622d     ...p<.-b%.-b-b-b
    a84c:	622d 822d 622d 622d 622d 622d 632d 422d     -b-.-b-b-b-b-c-B
    a85c:	422d 422d 422d 422d 422d 422d 422d 422d     -B-B-B-B-B-B-B-B
    a86c:	422d 422d 422d 222d 222d 2125 222d 422d     -B-B-B-"-"%!-"-B
    a87c:	4225 2125 2125 2125 0125 2125 2125 2125     %B%!%!%!%.%!%!%!
    a88c:	2125 2125 2125 2125 0225 222d 0125 2125     %!%!%!%!%.-"%.%!
    a89c:	4225 2125 022d c32c 0d76 d7c7 fdf7 feff     %B%!-.,.v.......
    a8ac:	ffff deff ddf7 bef7 deff deff dfff dfff     ................
    a8bc:	dfff dfff feff feff deff deff deff dfff     ................
    a8cc:	dfff dfff deff deff deff deff deff deff     ................
    a8dc:	deff deff dfff dfff deff deff deff deff     ................
    a8ec:	deff deff deff deff deff deff deff deff     ................
    a8fc:	deff deff deff deff fdf7 fcef f4ae 074d     ..............M.
    a90c:	2335 643d 4335 6335 6335 6335 432d 6335     5#=d5C5c5c5c-C5c
    a91c:	622d 422d 622d 622d 422d 422d 422d 422d     -b-B-b-b-B-B-B-B
    a92c:	422d 422d 422d 422d 422d 422d 422d 222d     -B-B-B-B-B-B-B-"
    a93c:	222d 2125 222d 222d 4225 2125 2125 2125     -"%!-"-"%B%!%!%!
    a94c:	0125 0125 2125 2125 2125 2125 2125 2125     %.%.%!%!%!%!%!%!
    a95c:	e22c 0125 2125 0125 4125 2025 a22c 0e86     ,.%.%!%.%A% ,...
    a96c:	fbe7 fef7 deff ffff ffff def7 ffff def7     ................
    a97c:	deff dfff dfff dfff dfff deff feff feff     ................
    a98c:	deff deff deff dfff dfff dfff deff deff     ................
    a99c:	deff deff deff deff deff deff dfff dfff     ................
    a9ac:	deff deff deff deff deff deff deff deff     ................
    a9bc:	deff deff deff deff deff deff deff deff     ................
    a9cc:	deff dfff feff 56c7 e854 e53c 4435 822d     .......VT.<.5D-.
    a9dc:	6335 4335 4335 6435 4335 422d 622d 622d     5c5C5C5d5C-B-b-b
    a9ec:	422d 422d 422d 422d 422d 422d 422d 422d     -B-B-B-B-B-B-B-B
    a9fc:	422d 422d 422d 222d 222d 2125 222d 222d     -B-B-B-"-"%!-"-"
    aa0c:	4225 2125 2125 2125 0125 2125 2125 2125     %B%!%!%!%.%!%!%!
    aa1c:	2125 2125 2125 2125 2225 2125 212d 2125     %!%!%!%!%"%!-!%!
    aa2c:	411d e124 4e86 dce7 ffff bfff bfff dfff     .A$..N..........
    aa3c:	deff feff fef7 fff7 deff dfff dfff dfff     ................
    aa4c:	deff deff feff feff deff deff deff deff     ................
    aa5c:	dfff deff deff deff fdff feff feff deff     ................
    aa6c:	deff deff dfff dfff deff deff deff deff     ................
    aa7c:	deff deff deff deff deff deff deff deff     ................
    aa8c:	deff deff deff deff deff bfff dfff fdf7     ................
    aa9c:	75bf 0855 0335 a22d 822d 622d 432d 4335     .uU.5.-.-.-b-C5C
    aaac:	6335 6335 622d 6225 422d 422d 422d 422d     5c5c-b%b-B-B-B-B
    aabc:	422d 422d 422d 422d 422d 422d 422d 222d     -B-B-B-B-B-B-B-"
    aacc:	222d 2125 2125 2125 4225 2125 2125 2125     -"%!%!%!%B%!%!%!
    aadc:	0125 2125 2125 2125 2125 0125 2125 2125     %.%!%!%!%!%.%!%!
    aaec:	2125 2025 2125 4225 a224 ec75 fae7 ffff     %!% %!%B$.u.....
    aafc:	9fff bfff ffff beff feff ffff def7 ffff     ................
    ab0c:	dfff dfff dfff dfff deff deff deff feff     ................
    ab1c:	deff deff deff deff deff deff deff deff     ................
    ab2c:	fdff fdff feff deff deff deff deff dfff     ................
    ab3c:	deff deff deff deff deff deff deff deff     ................
    ab4c:	deff deff deff deff deff deff deff deff     ................
    ab5c:	ffff deff feff dcef fcef 55bf 064d 622d     ...........UM.-b
    ab6c:	822d a22d 622d 422d 622d 632d 622d 622d     -.-.-b-B-b-c-b-b
    ab7c:	422d 422d 422d 422d 422d 422d 422d 422d     -B-B-B-B-B-B-B-B
    ab8c:	422d 422d 422d 422d 222d 222d 2125 2125     -B-B-B-B-"-"%!%!
    ab9c:	4225 2125 2125 2125 2125 2125 2125 2125     %B%!%!%!%!%!%!%!
    abac:	2125 2125 2125 2125 212d 2025 6125 e224     %!%!%!%!-!% %a$.
    abbc:	6b65 dbe7 ffff def7 ffff bef7 beff feff     ek..............
    abcc:	deff deff feff ffff deff deff deff dfff     ................
    abdc:	deff deff deff feff feff deff deff deff     ................
    abec:	deff deff deff deff feff feff deff deff     ................
    abfc:	deff deff deff deff deff deff deff deff     ................
    ac0c:	deff deff deff deff deff deff deff deff     ................
    ac1c:	deff deff deff deff def7 deff feff feff     ................
    ac2c:	def7 ddf7 14b7 e644 6125 822d 822d 622d     ......D.%a-.-.-b
    ac3c:	622d 6335 622d 632d 622d 622d 622d 622d     -b5c-b-c-b-b-b-b
    ac4c:	422d 422d 422d 422d 422d 422d 422d 422d     -B-B-B-B-B-B-B-B
    ac5c:	422d 222d 2125 2125 222d 2125 2125 2125     -B-"%!%!-"%!%!%!
    ac6c:	2125 2125 2125 2125 2125 2125 2125 2125     %!%!%!%!%!%!%!%!
    ac7c:	022d 2025 0125 e744 58c7 ffff dfff ffff     -.% %.D..X......
    ac8c:	bef7 ffff dfff dfff dfff deff feff deff     ................
    ac9c:	deff feff deff deff deff deff deff feff     ................
    acac:	feff deff deff deff deff deff deff deff     ................
    acbc:	deff deff deff deff deff deff deff deff     ................
    accc:	deff deff deff deff deff deff deff deff     ................
    acdc:	deff deff deff deff deff deff deff deff     ................
    acec:	feff ffff deff deff dfff dfff fcef 1196     ................
    acfc:	4435 232d 632d 832d 822d 8335 6335 6335     5D-#-c-.-.5.5c5c
    ad0c:	622d 622d 622d 622d 622d 622d 422d 422d     -b-b-b-b-b-b-B-B
    ad1c:	422d 422d 422d 422d 422d 422d 222d 2125     -B-B-B-B-B-B-"%!
    ad2c:	2125 2125 2125 2125 2125 2125 2125 2125     %!%!%!%!%!%!%!%!
    ad3c:	2125 2125 2125 2125 0125 2125 a32c b39e     %!%!%!%!%.%!,...
    ad4c:	feef def7 deff bfff dfff dff7 dfff dfff     ................
    ad5c:	dfff dfff feff fdff feff feff deff deff     ................
    ad6c:	deff deff deff feff feff deff deff deff     ................
    ad7c:	deff deff deff deff deff deff deff deff     ................
    ad8c:	deff deff deff deff deff deff deff deff     ................
    ad9c:	deff deff deff deff deff deff deff deff     ................
    adac:	deff deff deff deff fef7 deff dfff deff     ................
    adbc:	beff bfff feff dbe7 874d 0435 2335 632d     ........M.5.5#-c
    adcc:	622d 622d 8335 6335 622d 622d 622d 622d     -b-b5.5c-b-b-b-b
    addc:	622d 622d 622d 622d 422d 422d 422d 422d     -b-b-b-b-B-B-B-B
    adec:	422d 422d 222d 2125 2125 2125 2125 222d     -B-B-"%!%!%!%!-"
    adfc:	2125 0125 022d 222d 0225 2225 2125 2125     %!%.-.-"%.%"%!%!
    ae0c:	2225 c21c 0c7e dcf7 9fff bfff deff dff7     %"..~...........
    ae1c:	bfff def7 feff deff deff fef7 fef7 dfff     ................
    ae2c:	fdff deff dfff dfff dfff deff deff ffff     ................
    ae3c:	deff deff deff feff feff feff feff feff     ................
    ae4c:	feff dfff fdff fff7 dff7 ddff feff dfff     ................
    ae5c:	deff fef7 fff7 dff7 bfff dfff fef7 fdef     ................
    ae6c:	deff feff fdf7 feff dfff deff feff deff     ................
    ae7c:	fef7 fef7 dfff dfff dfff dfff fef7 fef7     ................
    ae8c:	f5b6 874c 243d 622d 822d 422d 6335 622d     ..L.=$-b-.-B5c-b
    ae9c:	622d 622d 622d 622d 622d 622d 622d 422d     -b-b-b-b-b-b-b-B
    aeac:	422d 422d 422d 422d 422d 222d 222d 2125     -B-B-B-B-B-"-"%!
    aebc:	2125 2125 2125 2125 2125 2125 0125 0125     %!%!%!%!%!%!%.%.
    aecc:	2225 2125 0125 2125 0225 063d 75b7 fdff     %"%!%.%!%.=..u..
    aedc:	bfff beff deff dff7 dfff def7 def7 ffff     ................
    aeec:	dfff beff feff deff fff7 ffff feff feff     ................
    aefc:	def7 fef7 ffff bdf7 deff deff deff deff     ................
    af0c:	deff deff deff deff deff ffff deff ffff     ................
    af1c:	dfff feff 9ef7 ffff dfff ffff ffff ffff     ................
    af2c:	ffff beff deff dfff deff feff feff deff     ................
    af3c:	dfff deff deff deff deff deff deff dfff     ................
    af4c:	deff deff fdf7 fdf7 fbe7 ee7d c334 622d     ..........}.4.-b
    af5c:	a22d 632d 6335 622d 622d 622d 622d 622d     -.-c5c-b-b-b-b-b
    af6c:	622d 622d 622d 422d 422d 422d 422d 422d     -b-b-b-B-B-B-B-B
    af7c:	422d 422d 222d 2125 2125 2125 2125 2125     -B-B-"%!%!%!%!%!
    af8c:	0125 2225 0125 0125 2125 2125 2125 212d     %.%"%.%.%!%!%!-!
    af9c:	c124 ee75 fdef fef7 deff deff deff dfff     $.u.............
    afac:	dfff ffff ddf7 feff deff bfff bfff dfff     ................
    afbc:	fff7 ffff ddff ddff dfff bff7 dfff feff     ................
    afcc:	deff deff deff deff deff dfff dfff dfff     ................
    afdc:	feff deff deff ffff deff deff dfff feff     ................
    afec:	fce7 36b7 9196 5086 9096 74bf fbef feff     ...6...P...t....
    affc:	feff deff feff deff deff ffff deff deff     ................
    b00c:	deff deff deff deff deff fdf7 fcf7 fcef     ................
    b01c:	fef7 76bf 464d 832d 822d 622d 6335 622d     ...vMF-.-.-b5c-b
    b02c:	622d 622d 622d 622d 622d 622d 622d 422d     -b-b-b-b-b-b-b-B
    b03c:	422d 422d 422d 422d 422d 422d 222d 222d     -B-B-B-B-B-B-"-"
    b04c:	2125 2125 2125 2125 0125 222d 0125 2225     %!%!%!%!%.-"%.%"
    b05c:	2125 2125 212d 012d 043d 37bf ffff fef7     %!%!-!-.=..7....
    b06c:	fdf7 feff def7 deff dfff bdf7 feff fcf7     ................
    b07c:	fdff 9fff dfff fef7 fce7 dadf faef fcff     ................
    b08c:	dfff bfff bfff feff deff deff deff deff     ................
    b09c:	dfff dfff dfff dfff feff deff feff dfff     ................
    b0ac:	deff deff ffff 77cf 0966 6335 2125 0225     .......wf.5c%!%.
    b0bc:	2225 432d eb65 78cf fef7 deff beff ffff     %"-Ce..x........
    b0cc:	fef7 feff ffff deff deff deff deff deff     ................
    b0dc:	feff feff fdf7 fdf7 bfff fbe7 0b6e 422d     ............n.-B
    b0ec:	822d 8335 8335 622d 622d 622d 622d 622d     -.5.5.-b-b-b-b-b
    b0fc:	622d 622d 622d 422d 422d 422d 422d 422d     -b-b-b-B-B-B-B-B
    b10c:	422d 422d 222d 222d 222d 2125 2125 2125     -B-B-"-"-"%!%!%!
    b11c:	2125 2225 0225 2125 2125 2125 222d c124     %!%"%.%!%!%!-"$.
    b12c:	c965 fdf7 9fff def7 fef7 ffff fff7 dfff     e...............
    b13c:	fef7 ffff deff fdff feff fdf7 bad7 9296     ................
    b14c:	aa65 6755 4755 0d76 36bf fdef ffff dfff     e.UgUGv..6......
    b15c:	deff deff deff deff dfff dfff dfff dfff     ................
    b16c:	deff feff ffff def7 deff feff 58cf 6b6d     .............Xmk
    b17c:	6125 a01d a125 412d 612d 811d 032d 6b5d     %a..%.-A-a..-.]k
    b18c:	98cf fef7 bfff ffff fef7 def7 ffff deff     ................
    b19c:	feff feff deff feff dfff dfff feff feff     ................
    b1ac:	bfff fdf7 12a7 253d 8335 a335 622d 8335     ......=%5.5.-b5.
    b1bc:	622d 622d 622d 622d 622d 622d 622d 422d     -b-b-b-b-b-b-b-B
    b1cc:	422d 422d 422d 422d 422d 422d 422d 222d     -B-B-B-B-B-B-B-"
    b1dc:	222d 222d 2125 2125 2125 0125 0225 2225     -"-"%!%!%!%.%.%"
    b1ec:	2125 2125 0225 a224 b19e ffff 9fff deff     %!%!%.$.........
    b1fc:	fef7 def7 ffff ffff fef7 ffff bfff bfff     ................
    b20c:	fcf7 35bf 4855 022d 8225 c225 a015 4115     ...5UH-.%.%....A
    b21c:	242d 6e86 fbe7 deff deff deff deff deff     -$.n............
    b22c:	deff dfff dfff dfff deff feff ffff dfff     ................
    b23c:	deff fdf7 ed7d e32c a125 a125 8125 622d     ....}.,.%.%.%.-b
    b24c:	6125 8125 622d e32c 2e86 fcef dfff deff     %a%.-b,.........
    b25c:	fef7 deff dfff feff feff fef7 deff dfff     ................
    b26c:	dfff dfff dfff dfff bfff feff fadf 8a65     ..............e.
    b27c:	443d 8235 622d 6335 622d 622d 622d 622d     =D5.-b5c-b-b-b-b
    b28c:	622d 622d 622d 422d 422d 422d 422d 422d     -b-b-b-B-B-B-B-B
    b29c:	422d 422d 422d 422d 222d 222d 2125 2125     -B-B-B-B-"-"%!%!
    b2ac:	2125 0125 0225 2125 4125 2125 c224 0535     %!%.%.%!%A%!$.5.
    b2bc:	58c7 def7 bfff deff fef7 def7 feff feff     .X..............
    b2cc:	fef7 dfff 9fff dfff d9d7 064d 0125 a025     ..........M.%.%.
    b2dc:	e115 e11d e115 0016 a015 222d 4e8e fcf7     ..........-".N..
    b2ec:	fff7 fff7 fef7 deff deff deff deff deff     ................
    b2fc:	ffff fdff def7 ffff dfff 99d7 454d a11d     ............ME..
    b30c:	811d a125 6125 8125 a125 8025 8025 6025     ..%.%a%.%.%.%.%`
    b31c:	474d d9d7 ffff deff feff deff dfff feff     MG..............
    b32c:	feff deff deff deff deff deff deff deff     ................
    b33c:	dfff ffff fef7 ef8d e434 a32d 8235 4335     ........4.-.5.5C
    b34c:	622d 622d 622d 622d 622d 622d 622d 422d     -b-b-b-b-b-b-b-B
    b35c:	422d 422d 422d 422d 422d 422d 422d 422d     -B-B-B-B-B-B-B-B
    b36c:	422d 222d 2125 2125 2125 0125 2225 0125     -B-"%!%!%!%.%"%.
    b37c:	4125 0125 c324 8845 dee7 fff7 beff feff     %A%.$.E.........
    b38c:	fff7 ffff ddff fef7 deff deff ffff fdf7     ................
    b39c:	2f86 e324 a11d c225 c125 8225 8335 8025     ./$...%.%.%.5.%.
    b3ac:	e025 401d 6755 f8d7 fff7 fff7 fff7 fef7     %..@Ug..........
    b3bc:	feff feff deff deff deff feff deff ffff     ................
    b3cc:	ffff 57c7 4235 e00d 8025 801d 8125 812d     ...W5B..%...%.-.
    b3dc:	6125 8225 a125 a025 243d 96c7 ffff dfff     %a%.%.%.=$......
    b3ec:	deff dfff bfff deff dfff deff deff feff     ................
    b3fc:	feff feff feff feff fef7 dfff dfff b5b6     ................
    b40c:	e53c 622d 822d 4335 622d 622d 622d 622d     <.-b-.5C-b-b-b-b
    b41c:	622d 622d 622d 422d 422d 422d 422d 422d     -b-b-b-B-B-B-B-B
    b42c:	422d 422d 422d 422d 422d 222d 2125 2125     -B-B-B-B-B-"%!%!
    b43c:	2125 2125 0225 2125 2125 6125 001d 2e7e     %!%!%.%!%!%a..~.
    b44c:	fff7 def7 bfff deff deff feff feff ffff     ................
    b45c:	deff feef fef7 fbdf 6955 811d c11d a225     ........Ui....%.
    b46c:	e125 a12d 8125 c125 a12d 8125 023d b6be     %.-.%.%.-.%.=...
    b47c:	fff7 fff7 def7 feff feff deff deff deff     ................
    b48c:	dfff feff fdff ffff dfff 96c7 4335 c00d     ............5C..
    b49c:	a125 6025 812d a125 8025 8125 8025 c01d     %.%`-.%.%.%.%...
    b4ac:	253d 99d7 deff feff feff def7 fef7 fdf7     =%..............
    b4bc:	dfff dfff deff feff deff deff deff deff     ................
    b4cc:	dfff fef7 ffff 57cf 264d 4235 6235 822d     .......WM&5B5b-.
    b4dc:	622d 622d 422d 622d 622d 622d 6335 422d     -b-b-B-b-b-b5c-B
    b4ec:	422d 422d 422d 422d 422d 422d 422d 222d     -B-B-B-B-B-B-B-"
    b4fc:	222d 2125 2125 2125 0125 2125 022d 2125     -"%!%!%!%.%!-.%!
    b50c:	0125 211d e124 b196 ffff dfff dfff deff     %..!$...........
    b51c:	deff fef7 deff dfff deff feff deff bae7     ................
    b52c:	484d a21d a01d a12d 8125 a22d e225 c125     MH....-.%.-.%.%.
    b53c:	812d a22d 233d 74b6 fff7 fff7 def7 deff     -.-.=#.t........
    b54c:	feff deff deff deff dfff feff feff beff     ................
    b55c:	ffff f9d7 c855 611d 621d 8125 6125 a125     ....U..a.b%.%a%.
    b56c:	a125 a01d c025 8015 cb65 dbe7 ffff fef7     %...%...e.......
    b57c:	feff ffff ffff beff feff deff feff feff     ................
    b58c:	ffff feff feff feff ddff feff ffff dbe7     ................
    b59c:	8855 632d 6335 832d 8435 632d 422d 8335     U.-c5c-.5.-c-B5.
    b5ac:	832d 4225 422d 622d 422d 422d 422d 422d     -.%B-B-b-B-B-B-B
    b5bc:	422d 422d 422d 222d 222d 2125 2125 2125     -B-B-B-"-"%!%!%!
    b5cc:	0125 2125 0225 2125 0125 011d e22c 13af     %.%!%.%!%...,...
    b5dc:	ffff dfff dfff deff deff fef7 feff dfff     ................
    b5ec:	deff feff beff dbef aa55 8115 0126 a025     ........U...&.%.
    b5fc:	a225 a225 c225 a12d a135 a12d 0235 16c7     %.%.%.-.5.-.5...
    b60c:	fff7 dff7 def7 feff feff deff deff feff     ................
    b61c:	deff feff feff ffff deff fdef f296 e42c     ..............,.
    b62c:	622d 612d 812d 612d 8125 8125 4225 2535     -b-a-.-a%.%.%B5%
    b63c:	f4ae def7 dfff dfff deff beff feff ffff     ................
    b64c:	dfff dfff dfff ffff ffff feff feff feff     ................
    b65c:	fef7 fff7 bff7 feef aa5d 232d 4335 6335     ........].-#5C5c
    b66c:	4335 6335 632d 632d 6335 6235 622d 6225     5C5c-c-c5c5b-b%b
    b67c:	422d 422d 422d 422d 422d 422d 422d 222d     -B-B-B-B-B-B-B-"
    b68c:	222d 2125 2125 2125 0125 2125 0225 2125     -"%!%!%!%.%!%.%!
    b69c:	2225 0125 e32c 55bf ffff bfff bfff deff     %"%.,..U........
    b6ac:	deff feff feff feff def7 fef7 feff fdf7     ................
    b6bc:	d086 421d c11d c125 e11d c22d a22d c12d     ...B..%...-.-.-.
    b6cc:	a025 601d c655 f9e7 fff7 def7 def7 feff     %..`U...........
    b6dc:	feff deff deff feff feff feff deff ffff     ................
    b6ec:	ddff fef7 fcdf 308e 422d 6025 8025 611d     .......0-B%`%..a
    b6fc:	a125 401d 4445 f096 fcef deff beff feff     %..@ED..........
    b70c:	deff ffff feff fdff fadf 98cf 16bf b4ae     ................
    b71c:	b4ae 93a6 729e 529e b39e 15af 17bf d7c7     .....r.R........
    b72c:	295e 622d 8235 822d 812d 822d 6335 6335     ^)-b5.-.-.-.5c5c
    b73c:	6235 4235 4235 232d 422d 422d 422d 422d     5b5B5B-#-B-B-B-B
    b74c:	422d 422d 422d 222d 222d 2125 2125 2125     -B-B-B-"-"%!%!%!
    b75c:	0125 4125 2225 211d 4225 0125 e334 56c7     %.%A%".!%B%.4..V
    b76c:	ffff bfff bfff deff deff feff feff feff     ................
    b77c:	fff7 fef7 deff ddff d7c7 4a66 2225 611d     ..........fJ%".a
    b78c:	c01d c02d 8025 e125 4115 863d 31a7 fcff     ..-.%.%..A=..1..
    b79c:	ffff deff feff feff feff feff deff feff     ................
    b7ac:	feff deff feff deff deff bfff dff7 dbef     ................
    b7bc:	339f 0c6e 474d 484d 684d 2b6e 73b7 fae7     .3n.MGMHMhn+.s..
    b7cc:	deef 9eff beff fdff faf7 98d7 b49e f07d     ..............}.
    b7dc:	8d75 ce7d 0f86 318e 7296 739e 749e 749e     u.}....1.r.s.t.t
    b7ec:	7296 508e ee7d ed75 6645 232d 842d a325     .r.P}.u.Ef-#-.%.
    b7fc:	a22d 8235 8235 6235 822d 832d 6335 0335     -.5.5.5b-.-.5c5.
    b80c:	422d 422d 422d 422d 422d 422d 422d 222d     -B-B-B-B-B-B-B-"
    b81c:	222d 2125 2125 2125 0125 411d 2225 211d     -"%!%!%!%..A%".!
    b82c:	211d 0125 032d 76c7 ffff bfff dfff deff     .!%.-..v........
    b83c:	fef7 fef7 feff deff dfff fef7 beff deff     ................
    b84c:	fcf7 96c7 eb7d 063d 4125 402d 402d 4125     ....}.=.%A-@-@%A
    b85c:	894d 16af fdf7 deff deff feff feff feff     M...............
    b86c:	feff feff feff feff deff feff feff deff     ................
    b87c:	feff beff 9eff deff dfff def7 bcef bdef     ................
    b88c:	bdef ddef fff7 bfff ffff deff 7be7 b4a6     .............{..
    b89c:	0e76 ee6d 5286 f6be 9adf fcef fdf7 fdf7     v.m..R..........
    b8ac:	fdf7 feff ffff ffff ffff fdf7 fbef fae7     ................
    b8bc:	d7df f4be f095 4b75 263d 032d 612d 822d     ......uK=&-.-a-.
    b8cc:	832d 632d 432d 622d 422d 422d 422d 422d     -.-c-C-b-B-B-B-B
    b8dc:	422d 422d 422d 222d 222d 2125 2125 2125     -B-B-B-"-"%!%!%!
    b8ec:	0125 211d 2225 2125 2125 0125 e22c 55bf     %..!%"%!%!%.,..U
    b8fc:	ffff dfff dfff dfff fef7 fef7 feff deff     ................
    b90c:	deff feff deff bfff bef7 fdff fbef 56bf     ...............V
    b91c:	908e ec7d 4e8e f2ae b9df ffff deff dfff     ..}..N..........
    b92c:	deff deff feff feff feff feff feff feff     ................
    b93c:	feff ffff deff deff feff feff feff beff     ................
    b94c:	bfff bef7 feff ffff dfff bfff dff7 ffef     ................
    b95c:	fadf b2a6 ed75 307e 38c7 fef7 fff7 fdf7     ....u.~0.8......
    b96c:	fef7 deff bdf7 bdff bdff deff deff bdff     ................
    b97c:	ddff fcff fdf7 fdf7 fcf7 fdff feff fdf7     ................
    b98c:	f5b6 cd75 063d 232d 632d 8335 622d 8225     ..u.=.-#-c5.-b%.
    b99c:	422d 422d 422d 422d 422d 422d 422d 222d     -B-B-B-B-B-B-B-"
    b9ac:	222d 2125 2125 2125 2225 011d 0225 2125     -"%!%!%!%"..%.%!
    b9bc:	2125 0125 c22c 34b7 dfff bfff dfff dfff     %!%.,..4........
    b9cc:	fef7 fef7 feff deff deff ddf7 feff dfff     ................
    b9dc:	ffff bfff dfff fff7 ffff ffff ffff feff     ................
    b9ec:	feff bfff ffff dfff deff deff deff feff     ................
    b9fc:	feff feff feff feff feff deff feff fef7     ................
    ba0c:	fef7 fdf7 fcef ffff bff7 ffff fdf7 fdef     ................
    ba1c:	def7 deff fdf7 f6be cd6d 4f8e 97cf fdf7     ........m..O....
    ba2c:	deff deff fff7 deff fef7 fef7 deff deff     ................
    ba3c:	deff deff deff feff deff feff bff7 fff7     ................
    ba4c:	def7 fef7 dff7 feff ffff fdef 77c7 2b6e     .............wn+
    ba5c:	422d 8025 812d 422d 422d 422d 422d 422d     -B%.-.-B-B-B-B-B
    ba6c:	422d 422d 422d 222d 222d 2125 2125 2125     -B-B-B-"-"%!%!%!
    ba7c:	0125 2125 211d 2225 0225 4025 c12c d1ae     %.%!.!%"%.%@,...
    ba8c:	ffff bfff bfff ffff ddf7 feff deff fef7     ................
    ba9c:	fef7 feff feff feff deff deff deff deff     ................
    baac:	dfff dfff dfff dfff dfff dfff dfff dfff     ................
    babc:	deff deff deff feff fef7 feff deff deff     ................
    bacc:	deff deff deff deff deff deff dfff dfff     ................
    badc:	fdff dfff fff7 dff7 ffff dbe7 0f8e ae85     ................
    baec:	59cf fce7 fdf7 fdf7 ddff deff deff deff     .Y..............
    bafc:	deff deff deff deff deff deff deff ffff     ................
    bb0c:	deff deff deff deff dfff dfff dfff dfff     ................
    bb1c:	dfff bfff ffff fbdf 129f 885d c334 232d     ..........].4.-#
    bb2c:	622d 4125 422d 422d 4225 6225 6225 2125     -b%A-B-B%B%b%b%!
    bb3c:	4125 2125 2125 2225 0125 2125 211d 2225     %A%!%!%"%.%!.!%"
    bb4c:	222d 4025 c12c 2d86 ffff ffff dfff fef7     -"%@,..-........
    bb5c:	fef7 feff feff deff feff feff feff feff     ................
    bb6c:	deff deff deff deff dfff dfff dfff dfff     ................
    bb7c:	dfff dfff dfff dfff deff deff deff feff     ................
    bb8c:	feff feff deff deff deff deff deff deff     ................
    bb9c:	deff deff deff deff deff fdf7 fef7 ffff     ................
    bbac:	9acf eb6d 8f9e fdef feef fef7 def7 def7     ..m.............
    bbbc:	deff beff deff deff deff deff deff deff     ................
    bbcc:	feff feff deff deff deff deff deff deff     ................
    bbdc:	dfff dfff dfff dfff deff feff ffff dfff     ................
    bbec:	ffff 9adf 2d7e 2435 6225 822d 412d 222d     ....~-5$%b-.-A-"
    bbfc:	432d 4225 4125 422d 4125 2125 2125 2225     -C%B%A-B%A%!%!%"
    bc0c:	011d 0125 2125 2125 222d 4125 e124 495d     ..%.%!%!-"%A$.]I
    bc1c:	fdf7 ffff ffff fef7 fef7 fef7 feff deff     ................
    bc2c:	feff feff feff deff deff deff deff deff     ................
    bc3c:	deff deff deff deff deff deff deff deff     ................
    bc4c:	deff deff deff feff feff feff deff deff     ................
    bc5c:	dfff dfff dfff dfff deff deff deff deff     ................
    bc6c:	def7 feff deff 7acf 6c65 52a7 fbef deff     .......zel.R....
    bc7c:	dff7 bef7 bef7 beff deff beff deff feff     ................
    bc8c:	deff feff feff feff deff feff feff dfff     ................
    bc9c:	dfff dfff dfff dfff deff deff deff deff     ................
    bcac:	feff ddff 9df7 dfff 7fff bfff fbe7 908e     ................
    bcbc:	242d 4125 4025 6335 2335 622d 4125 422d     -$%A%@5c5#-b%A-B
    bccc:	4125 2125 2125 2225 211d 0125 2125 0125     %A%!%!%".!%.%!%.
    bcdc:	222d 4125 2125 e53c 5adf deff dfff fef7     -"%A%!<..Z......
    bcec:	fdf7 fef7 deff deff feff feff feff deff     ................
    bcfc:	deff deff deff dfff deff deff deff deff     ................
    bd0c:	deff deff deff deff deff deff deff deff     ................
    bd1c:	deff deff deff deff dff7 dff7 dfff dfff     ................
    bd2c:	dfff deff deff deff ffff bfff 59d7 8b6d     .............Ym.
    bd3c:	35b7 deff bfff beff beff beff deff beff     .5..............
    bd4c:	bdff ddff deff deff fef7 fef7 feff feff     ................
    bd5c:	feff deff dfff ffff dfff dfff dfff dfff     ................
    bd6c:	deff deff deff deff ddf7 feff deff feff     ................
    bd7c:	ffff deff fef7 fde7 908e e334 6125 4125     ..........4.%a%A
    bd8c:	222d 422d 4125 4225 4125 2125 2125 2225     -"-B%A%B%A%!%!%"
    bd9c:	411d 0125 2125 0125 222d 4125 4125 c32c     .A%.%!%.-"%A%A,.
    bdac:	33ae feff bfff dff7 fef7 fef7 feff deff     .3..............
    bdbc:	feff feff deff deff deff dfff dfff dfff     ................
    bdcc:	deff deff deff deff deff deff deff deff     ................
    bddc:	deff deff deff deff deff deff deff deff     ................
    bdec:	fef7 fef7 dfff dfff dfff dfff dfff bfff     ................
    bdfc:	bfff fbe7 cc6d f2a6 deff 7fff 9fff bdff     ....m...........
    be0c:	ddf7 ddff ddff bdff beff deff deff deff     ................
    be1c:	def7 def7 def7 feff feff deff deff dfff     ................
    be2c:	dfff dfff dfff dfff deff deff deff deff     ................
    be3c:	fdf7 deff dfff feff fdef fcf7 fdff fef7     ................
    be4c:	fdef 6f86 2225 401d 422d 222d 422d 4125     ...o%".@-B-"-B%A
    be5c:	4125 2125 2125 2225 211d e224 2125 2125     %A%!%!%".!$.%!%!
    be6c:	222d 2125 4125 e224 2b75 fcef dfff bfff     -"%!%A$.u+......
    be7c:	ffff def7 feff def7 feff feff deff deff     ................
    be8c:	dfff dfff dfff dfff deff deff deff deff     ................
    be9c:	deff deff deff deff feff feff deff deff     ................
    beac:	deff deff deff deff feff feff deff dfff     ................
    bebc:	dfff dfff dfff bfff def7 4c7e ee86 fcef     ..........~L....
    becc:	bfff bfff bff7 bdff def7 bef7 def7 def7     ................
    bedc:	def7 dfff dff7 dfff feff fef7 fef7 fef7     ................
    beec:	feff feff dfff dfff dfff dfff dfff dfff     ................
    befc:	deff deff deff deff def7 dfff bfff ffff     ................
    bf0c:	feff ddff feff fdf7 bfff fbdf a95d 2125     ............].%!
    bf1c:	612d 422d 422d 411d 4125 2125 2125 2225     -a-B-B.A%A%!%!%"
    bf2c:	201d 0225 2125 2125 222d 2125 4125 0125     . %.%!%!-"%!%A%.
    bf3c:	e43c 34b7 fef7 dfff ffff deff ffff def7     <..4............
    bf4c:	deff deff deff deff dfff dfff dfff dfff     ................
    bf5c:	deff deff deff deff deff deff deff deff     ................
    bf6c:	fef7 feff deff deff deff deff deff deff     ................
    bf7c:	feff deff deff deff dfff dfff deff deff     ................
    bf8c:	15bf cd75 f9df fef7 9ef7 deff ddf7 def7     ..u.............
    bf9c:	bef7 bef7 bef7 def7 fef7 fef7 feef fff7     ................
    bfac:	fef7 fef7 feff fef7 deff feff dfff dfff     ................
    bfbc:	deff deff deff deff dfff dfff dfff dfff     ................
    bfcc:	bfff bfff dfff def7 feff feff bdff ffff     ................
    bfdc:	bfff feff 98c7 4645 4125 412d 222d 4225     ......EF%A-A-"%B
    bfec:	4125 2125 2125 2225 201d 022d 2125 2125     %A%!%!%". -.%!%!
    bffc:	2225 422d 4125 222d 0125 ec75 fdf7 feff     %"-B%A-"%.u.....
    c00c:	deff dfff dfff dff7 deff deff deff dfff     ................
    c01c:	dfff dfff dfff dfff deff deff deff deff     ................
    c02c:	deff deff deff deff fef7 deff deff deff     ................
    c03c:	deff deff deff deff dfff dfff dfff dfff     ................
    c04c:	feff feff deff def7 ad75 37d7 def7 dff7     ........u..7....
    c05c:	bdff bdff beff bef7 beff deff def7 ddf7     ................
    c06c:	fef7 fdef 9bdf 5acf 7ce7 ddf7 feff feff     .......Z.|......
    c07c:	deff deff deff deff deff deff deff deff     ................
    c08c:	dfff dfff dfff dfff fef7 ffff dfff ffff     ................
    c09c:	deff deff feff fef7 fdff 9fff fef7 f096     ................
    c0ac:	2125 6125 422d 2225 4125 2125 2125 2225     %!%a-B%"%A%!%!%"
    c0bc:	0125 0125 0125 0125 2125 2125 2125 2125     %.%.%.%.%!%!%!%!
    c0cc:	401d 0545 56bf ffff bfff deff feff deff     .@E..V..........
    c0dc:	feff deff deff dfff ffff dfff deff fff7     ................
    c0ec:	deff fef7 fef7 fef7 deff deff deff deff     ................
    c0fc:	deff deff deff deff deff deff deff deff     ................
    c10c:	ffff def7 ffff bfff ffff 9eff feff 55b7     ...............U
    c11c:	f085 fcf7 9eff beff def7 deff beff def7     ................
    c12c:	def7 deff bdf7 feff bbe7 8e7e c63d 074d     ..........~.=.M.
    c13c:	684d ac75 f7cf fcf7 def7 fef7 dfff deff     Mhu.............
    c14c:	def7 ffff deff dfff bfff dfff feff feff     ................
    c15c:	dcef 9bdf dce7 ffff 9fff bfff deff feff     ................
    c16c:	fdf7 fdf7 fdf7 badf 4955 611d 801d 212d     ........UI.a..-!
    c17c:	4125 2125 2125 2225 0125 0125 0125 0125     %A%!%!%"%.%.%.%.
    c18c:	2125 2125 2125 2125 422d 0125 0a66 fadf     %!%!%!%!-B%.f...
    c19c:	feff fef7 fdf7 deff feff deff deff dfff     ................
    c1ac:	dfff dfff dfff ffff feff fef7 fef7 fef7     ................
    c1bc:	feff deff deff deff deff deff deff deff     ................
    c1cc:	deff deff deff deff dfff ffff dfff dfff     ................
    c1dc:	deff ffff fdf7 ef85 15b7 feff 9eff beff     ................
    c1ec:	fef7 def7 bef7 def7 beff 9fff bfff dcef     ................
    c1fc:	ed7d e124 8025 6125 6125 0335 aa65 dadf     }.$.%.%a%a5.e...
    c20c:	dfff def7 bef7 fdf7 feff ffff ffff bfff     ................
    c21c:	deff fcf7 f8d7 8f8e 885d 674d 8a5d 7096     ........].Mg]..p
    c22c:	fadf fdf7 ffff dfff def7 fef7 feff fdf7     ................
    c23c:	7096 232d 6025 2125 4125 2125 2125 2225     .p-#%`%!%A%!%!%"
    c24c:	0125 0125 0125 0125 2125 2125 2125 2125     %.%.%.%.%!%!%!%!
    c25c:	022d 4125 0125 119f fef7 deff def7 deff     -.%A%...........
    c26c:	feff feff feff dfff dfff deff dfff dfff     ................
    c27c:	feff feff fef7 fef7 feff deff deff deff     ................
    c28c:	deff deff deff deff deff deff deff deff     ................
    c29c:	bfff deff bfff ffff deff ffff 9ad7 ae75     ..............u.
    c2ac:	fbe7 ffff 9eff def7 fef7 deff dfff feef     ................
    c2bc:	fdf7 bff7 ffff 56c7 443d 6025 812d 8125     .......V=D%`-.%.
    c2cc:	e01d 811d 242d 16b7 dfff deff def7 fdef     ....-$..........
    c2dc:	deff bef7 ffff bfff feff f9e7 2b76 222d     ............v+-"
    c2ec:	a01d a01d 2125 0235 8b76 fbdf dfff dfff     ....%!5.v.......
    c2fc:	fff7 feff ddff feff 78cf e644 4225 2225     .........xD.%B%"
    c30c:	4125 2125 2125 2225 0125 0125 0125 0125     %A%!%!%"%.%.%.%.
    c31c:	2125 2125 2125 2125 222d 4125 422d e74c     %!%!%!%!-"%A-BL.
    c32c:	39cf dfff dfff deff deff deff deff dfff     .9..............
    c33c:	dfff dfff deff deff feff feff feff fef7     ................
    c34c:	feff feff deff deff deff deff deff deff     ................
    c35c:	deff deff deff deff dfff feff dfff ffff     ................
    c36c:	deff ffff b4ae 7196 feff dfff bfff def7     .......q........
    c37c:	fef7 beff dfff fef7 beff dfff deff f3ae     ................
    c38c:	0125 a11d 822d a125 c01d c125 0125 118e     %...-.%...%.%...
    c39c:	def7 def7 ffff fef7 ffff deff dfff deff     ................
    c3ac:	feff 35bf e544 622d a225 a11d 6125 612d     ...5D.-b%...%a-a
    c3bc:	8335 76bf bfff ffff fff7 feff ddf7 deff     5..v............
    c3cc:	dcf7 2a65 222d 2125 4125 2125 2125 2225     ..e*-"%!%A%!%!%"
    c3dc:	0125 0125 0125 0125 2125 2125 2125 2125     %.%.%.%.%!%!%!%!
    c3ec:	0225 622d 0125 8434 ec6c bcef ffff deff     %.-b%.4.l.......
    c3fc:	deff deff deff dfff dfff ffff feff fef7     ................
    c40c:	deff feff feff fef7 feff feff deff deff     ................
    c41c:	deff deff deff deff deff deff deff deff     ................
    c42c:	dfff fef7 dfff def7 dfff ffff f095 b3a6     ................
    c43c:	feff dfff ffff fef7 feff beff bfff def7     ................
    c44c:	ffff deff feff f5b6 c32c a225 a11d a125     ........,.%...%.
    c45c:	e01d a025 e12c f5b6 ffff deef deff deff     ..%.,...........
    c46c:	def7 ffff dfff ffff fef7 5096 e334 c025     ...........P4.%.
    c47c:	8225 a125 822d a12d 2025 f2a6 ffff ddff     %.%.-.-.% ......
    c48c:	fef7 fef7 fdff deff feff ed7d 2225 4125     ..........}.%"%A
    c49c:	4125 2125 2125 2225 0125 0125 0125 0125     %A%!%!%"%.%.%.%.
    c4ac:	2125 2125 2125 2125 032d 6125 601d 022d     %!%!%!%!-.%a.`-.
    c4bc:	c43c cc75 f9d7 ffff ffff ffff dfff dfff     <.u.............
    c4cc:	dfff feff fef7 fef7 deff deff feff fef7     ................
    c4dc:	fef7 feff deff deff deff deff deff deff     ................
    c4ec:	deff deff deff dfff dff7 fef7 bfff feff     ................
    c4fc:	dfff ffff cf85 15bf feff fff7 ffff fef7     ................
    c50c:	deff dfff dfff deff fdef ffff dff7 9bdf     ................
    c51c:	ab75 222d c11d a125 e015 2125 8755 b9df     u.-"..%...%!U...
    c52c:	dfff fef7 dfff beff fef7 fef7 dfff bfff     ................
    c53c:	fef7 f3a6 022d 001e e125 c025 6025 a025     ....-...%.%.%`%.
    c54c:	412d 14af ffff fef7 fef7 ddf7 fdff feff     -A..............
    c55c:	feff 9096 0125 4125 4125 2125 2125 2225     ....%.%A%A%!%!%"
    c56c:	0125 0125 0125 0125 2125 2125 2125 2125     %.%.%.%.%!%!%!%!
    c57c:	232d 201d 8125 2125 212d e22c 4e7e fbe7     -#. %.%!-!,.~N..
    c58c:	fef7 fef7 ffff ffff deff deff feff feff     ................
    c59c:	deff deff feff fef7 fef7 feff feff deff     ................
    c5ac:	deff deff deff deff deff deff dfff dfff     ................
    c5bc:	dfff fef7 bfff ffff dfff def7 ae7d 36c7     ............}..6
    c5cc:	fef7 fef7 ffff deff feff ffff dfff feff     ................
    c5dc:	ffff 9fff 9fff ffff 98d7 4b76 4335 2335     ..........vK5C5#
    c5ec:	4535 ab6d 56bf feff bfff ddf7 dfff feff     5Em..V..........
    c5fc:	ffff def7 ffff dfff ffff f9df 6755 8125     ............Ug%.
    c60c:	8025 822d 422d 012d a85d dad7 ffff fff7     %.-.-B-.].......
    c61c:	feff beff fdff feff feff d196 211d 4125     .............!%A
    c62c:	4125 2125 2125 2225 0125 0125 0125 0125     %A%!%!%"%.%.%.%.
    c63c:	2125 2125 2125 2125 4125 422d 222d 412d     %!%!%!%!%A-B-"-A
    c64c:	612d 022d a53c 0f86 dde7 feef fef7 ffff     -a-.<...........
    c65c:	deff deff deff deff deff deff feff feff     ................
    c66c:	fef7 feff feff deff deff deff deff deff     ................
    c67c:	deff dfff dfff dfff bfff fdf7 bfff deff     ................
    c68c:	dfff ffff ae7d 37c7 fef7 feff deff feff     ....}..7........
    c69c:	def7 fff7 def7 fdff deff ffff fdff bcf7     ................
    c6ac:	feff fce7 97c7 56bf 99c7 deef ffff 9fff     .......V........
    c6bc:	dfff fef7 dfff fff7 bfff ffff fef7 dfff     ................
    c6cc:	9fff fdff 96c7 ca65 243d c534 273d c95d     ......e.=$4.='].
    c6dc:	b6bf fef7 dfff ffff ddff dfff ddff feff     ................
    c6ec:	feff f196 2125 222d 4125 2125 2125 2225     ....%!-"%A%!%!%"
    c6fc:	0125 0125 0125 0125 0125 2125 2125 2125     %.%.%.%.%.%!%!%!
    c70c:	222d 222d 222d 4125 6125 6125 222d e334     -"-"-"%A%a%a-"4.
    c71c:	0b6e f9cf ffff dfff deff deff beff dfff     n...............
    c72c:	deff feff feff deff deff feff feff deff     ................
    c73c:	deff deff deff deff deff deff dfff dfff     ................
    c74c:	deff ffff dfff fef7 dfff fef7 ce7d f6c6     ............}...
    c75c:	fdf7 deff fef7 fef7 deff dfff dfff ddff     ................
    c76c:	deff deff deff deff deff feff ffff ffff     ................
    c77c:	bfff bfff deff deff deff deff deff ffff     ................
    c78c:	ffff dfff dfff dfff deff deff ddff fdf7     ................
    c79c:	f6c6 d5b6 36bf dadf fdef feff deff deff     .....6..........
    c7ac:	ddff ddff fdff dfff ddf7 cf8e 2125 2225     ............%!%"
    c7bc:	4225 2225 2225 2125 0125 0125 0125 0125     %B%"%"%!%.%.%.%.
    c7cc:	0125 2125 2125 2125 222d 222d 222d 4225     %.%!%!%!-"-"-"%B
    c7dc:	6125 6125 422d 032d c32c 8a5d 56bf fef7     %a%a-B-.,.]..V..
    c7ec:	feff ddf7 def7 dfff deff deff feff deff     ................
    c7fc:	deff feff feff deff deff deff deff deff     ................
    c80c:	deff deff dfff dfff feff dfff dfff fef7     ................
    c81c:	dfff fef7 f08d f4be feff def7 fff7 fef7     ................
    c82c:	feff dff7 ffff ddff deff deff deff deff     ................
    c83c:	deff deff deff ffff bfff dfff deff deff     ................
    c84c:	deff deff deff ffff deff dfff dfff dfff     ................
    c85c:	deff deff feff fdf7 ffff fdf7 fdef fdf7     ................
    c86c:	fef7 dfff dfff dfff beff feff fdff feff     ................
    c87c:	fef7 8e86 0225 4225 2225 2225 2225 2125     ....%.%B%"%"%"%!
    c88c:	0125 0125 0125 0125 0125 2125 2125 2125     %.%.%.%.%.%!%!%!
    c89c:	4125 222d 222d 222d 4125 4125 422d 232d     %A-"-"-"%A%A-B-#
    c8ac:	822d 0125 e53c 719e dbe7 fdf7 fef7 dff7     -.%.<..q........
    c8bc:	deff deff feff deff deff feff feff deff     ................
    c8cc:	deff deff deff deff deff deff dfff dfff     ................
    c8dc:	ffff def7 dfff fdf7 feff deff 94b6 b09e     ................
    c8ec:	deff fff7 ffff beff ffff fff7 ffff feff     ................
    c8fc:	deff deff deff deff deff deff deff deff     ................
    c90c:	dfff dfff deff deff deff deff deff dfff     ................
    c91c:	deff deff deff deff deff deff feff feff     ................
    c92c:	bfff dfff ffff deff beff dfff dfff deff     ................
    c93c:	dfff deff fdff fdf7 fcdf ab5d 2225 4225     ..........].%"%B
    c94c:	4225 2225 2225 2125 0125 0125 0125 0125     %B%"%"%!%.%.%.%.
    c95c:	0125 0125 2125 2125 4125 2225 222d 222d     %.%.%!%!%A%"-"-"
    c96c:	222d 412d 412d 422d 8125 801d 4225 8434     -"-A-A-B%...%B4.
    c97c:	1196 fdf7 bdf7 def7 deff deff feff deff     ................
    c98c:	deff feff feff deff feff feff feff feff     ................
    c99c:	feff feff dfff dfff dfff feff feff ddf7     ................
    c9ac:	feff ffff 58d7 2b7e ddff fef7 ffff deff     .....X~+........
    c9bc:	fef7 ffff dfff deff deff deff deff deff     ................
    c9cc:	deff deff deff deff dfff dfff deff deff     ................
    c9dc:	deff deff deff deff deff deff deff deff     ................
    c9ec:	deff deff deff feff dff7 deff deff feff     ................
    c9fc:	deff deff feff feff ffff def7 feff ffff     ................
    ca0c:	bad7 0745 422d 2225 4225 2225 2225 2225     ..E.-B%"%B%"%"%"
    ca1c:	0125 0125 0125 0125 0125 0125 2125 2125     %.%.%.%.%.%.%!%!
    ca2c:	4125 2225 222d 222d 222d 212d 412d 422d     %A%"-"-"-"-!-A-B
    ca3c:	622d 8125 6125 032d f2a6 feff bfff def7     -b%.%a-.........
    ca4c:	deff deff feff deff deff feff feff deff     ................
    ca5c:	feff feff deff deff deff deff dfff dfff     ................
    ca6c:	dfff feff feff fef7 fef7 ffff fcef 0b6e     ..............n.
    ca7c:	79d7 feff def7 ffff deff ffff dfff beff     .y..............
    ca8c:	deff deff deff deff deff feff feff deff     ................
    ca9c:	dfff deff feff feff feff feff deff deff     ................
    caac:	deff deff deff deff deff deff deff fff7     ................
    cabc:	fef7 fef7 def7 deff feff feff feff feff     ................
    cacc:	dfff fdf7 ffff ffff b4ae 0335 4125 4325     ..........5.%A%C
    cadc:	422d 2225 2225 2225 0125 0125 0125 0125     -B%"%"%"%.%.%.%.
    caec:	0125 0125 2125 2125 2125 2225 2225 222d     %.%.%!%!%!%"%"-"
    cafc:	222d 222d 422d 422d 222d 422d 422d 453d     -"-"-B-B-"-B-B=E
    cb0c:	f7cf dfff 7fff fef7 def7 deff deff deff     ................
    cb1c:	deff feff feff deff deff deff deff deff     ................
    cb2c:	deff deff dfff dfff dfff deff deff fef7     ................
    cb3c:	fef7 fef7 fef7 b096 118e fdf7 feff fef7     ................
    cb4c:	deff deff dfff deff feff feff deff fef7     ................
    cb5c:	deff deff deff deff deff deff deff feff     ................
    cb6c:	fef7 fef7 deff deff deff deff deff deff     ................
    cb7c:	feff feff feff ffff fef7 feff dfff dfff     ................
    cb8c:	deff deff bfff bfff dfff fdf7 ffff ddef     ................
    cb9c:	6b6d 012d 6125 4325 422d 2225 2225 2225     mk-.%a%C-B%"%"%"
    cbac:	0125 0125 0125 0125 0125 0125 2125 2125     %.%.%.%.%.%.%!%!
    cbbc:	222d 2125 4125 2125 222d 222d 422d 422d     -"%!%A%!-"-"-B-B
    cbcc:	432d 2225 032d cc6d fcef 9fff 9eff ddef     -C%"-.m.........
    cbdc:	ddf7 deff deff deff deff feff feff deff     ................
    cbec:	deff deff feff ffff ffff feff dfff dfff     ................
    cbfc:	ffff bfff deff ffff fff7 deff feff 98cf     ................
    cc0c:	8d7d 99d7 ffff bef7 ffff ffff deff feff     }...............
    cc1c:	feff deff fef7 fef7 fef7 deff deff deff     ................
    cc2c:	deff deff deff deff fef7 fef7 feff deff     ................
    cc3c:	dfff deff deff deff feff feff feff feff     ................
    cc4c:	deff dfff bfff beff deff deff dfff bfff     ................
    cc5c:	dfff fef7 fef7 35b7 043d 2025 422d 2225     .......5=.% -B%"
    cc6c:	2225 2225 2225 222d 0125 0125 0125 0125     %"%"%"-"%.%.%.%.
    cc7c:	0125 0125 0125 2125 022d 2125 4125 4125     %.%.%.%!-.%!%A%A
    cc8c:	2125 222d 422d 422d 422d 822d c32c 93a6     %!-"-B-B-B-.,...
    cc9c:	ffff 9fff deff fcf7 ddf7 deff deff deff     ................
    ccac:	deff feff deff deff feff ffff ffff ffff     ................
    ccbc:	ffff ffff ffff dfff fff7 bfff feff dfff     ................
    cccc:	dfff feff beff fdff 909e 539e def7 dfff     ...........S....
    ccdc:	deff fff7 ffff deff deff def7 def7 fef7     ................
    ccec:	fef7 deff deff deff deff deff deff deff     ................
    ccfc:	fef7 fef7 feff deff dfff dfff feff feff     ................
    cd0c:	feff feff feff feff ddff deff beff dfff     ................
    cd1c:	feff fef7 fef7 dfff dfff ffff dbe7 ca65     ..............e.
    cd2c:	401d 4025 022d 4125 2225 2225 2225 222d     .@%@-.%A%"%"%"-"
    cd3c:	0125 0125 0125 0125 0125 0125 0125 2125     %.%.%.%.%.%.%.%!
    cd4c:	2125 2125 2125 2125 2225 222d 222d 2225     %!%!%!%!%"-"-"%"
    cd5c:	232d 6225 2635 bacf feff bdff ddf7 fef7     -#%b5&..........
    cd6c:	fef7 deff deff dfff dff7 feff fbe7 93a6     ................
    cd7c:	2c6d ae85 929e 35bf 77c7 b8d7 d9df fae7     m,.....5.w......
    cd8c:	fbe7 fce7 fde7 fde7 fde7 dbdf 98d7 57cf     ...............W
    cd9c:	f09e 484d 95b7 feff bff7 feff dcf7 feef     ..MH............
    cdac:	fef7 fef7 fef7 fef7 feff deff deff ffff     ................
    cdbc:	dfff deff deff deff deff deff deff dfff     ................
    cdcc:	deff deff deff feff feff feff feff feff     ................
    cddc:	deff feff deff deff ddff deff beff feff     ................
    cdec:	bfff fde7 ae7e e224 2125 212d 022d 2225     ....~.$.%!-!-.%"
    cdfc:	222d 2125 0125 2125 0125 0125 0125 0125     -"%!%.%!%.%.%.%.
    ce0c:	0125 0125 0125 2125 0125 2125 2125 2125     %.%.%.%!%.%!%!%!
    ce1c:	2225 2225 222d 2225 232d 0225 0a5e fbdf     %"%"-"%"-#%.^...
    ce2c:	feff feff ffff beff feff fef7 ddf7 dfff     ................
    ce3c:	ffff f5be ea65 4335 032d 0335 0435 243d     ....e.5C-.5.5.=$
    ce4c:	2545 4645 8755 a855 e965 e965 e965 a95d     E%EFU.U.e.e.e.].
    ce5c:	8855 674d 454d 2545 6135 422d a95d 98d7     U.MgMEE%5a-B]...
    ce6c:	ffff bfff dfff dfff dfff dfff ffff deff     ................
    ce7c:	beff ffff ffff def7 dfff deff deff deff     ................
    ce8c:	deff deff deff dfff deff deff deff feff     ................
    ce9c:	feff feff feff feff fef7 deff bef7 ffff     ................
    ceac:	feff dfff dfff bef7 fdf7 f3a6 c434 2225     ............4.%"
    cebc:	2125 212d 222d 222d 222d 2125 0125 2125     %!-!-"-"-"%!%.%!
    cecc:	0125 0125 0125 0125 0125 0125 0125 2125     %.%.%.%.%.%.%.%!
    cedc:	0125 2225 2225 2125 2125 2125 2125 2125     %.%"%"%!%!%!%!%!
    ceec:	6225 a32c b196 fdef feff feff deff beff     %b,.............
    cefc:	7eff 9ff7 ffff d9df 4e8e e53c 0225 a025     .~.......N<.%.%.
    cf0c:	a125 a125 8125 822d 822d 822d 612d 4125     %.%.%.-.-.-.-a%A
    cf1c:	2225 422d 632d 632d 432d 432d 632d 832d     %"-B-c-c-C-C-c-.
    cf2c:	c02d 822d 242d aa5d b9d7 9eff 9fff dff7     -.-.-$].........
    cf3c:	ffff feff dfff dfff dfff deff beff deff     ................
    cf4c:	dfff deff deff deff deff deff deff dfff     ................
    cf5c:	deff deff deff deff feff feff feff feff     ................
    cf6c:	def7 ffff def7 fff7 ffff 7fff bfff fef7     ................
    cf7c:	b3af 674d 022d 2125 412d 022d 0225 0225     ..Mg-.%!-A-.%.%.
    cf8c:	222d 2125 0125 2125 0125 0125 0125 0125     -"%!%.%!%.%.%.%.
    cf9c:	0125 0125 0125 2125 0225 2225 2225 2125     %.%.%.%!%.%"%"%!
    cfac:	2125 2125 2125 4125 411d c644 58cf feff     %!%!%!%A.AD..X..
    cfbc:	ddf7 ddf7 feff feff dfff 9eef d5ae 674d     ..............Mg
    cfcc:	011d 4225 632d 6225 622d 622d 622d 622d     ..%B-c%b-b-b-b-b
    cfdc:	622d 622d 622d 622d 622d 822d 8335 8235     -b-b-b-b-b-.5.5.
    cfec:	8335 8335 8335 a335 6335 6435 6535 442d     5.5.5.5.5c5d5e-D
    cffc:	0a5e f9df deff dff7 fef7 fef7 feff feff     ^...............
    d00c:	deff deff deff deff dfff deff deff deff     ................
    d01c:	deff deff deff dfff deff deff deff deff     ................
    d02c:	deff feff feff feff bfff beff fef7 fef7     ................
    d03c:	bfff bfff fef7 74b7 8545 e124 422d 412d     .......tE.$.-B-A
    d04c:	0125 222d 222d 2225 222d 2125 0125 2125     %.-"-"%"-"%!%.%!
    d05c:	0125 0125 0125 0125 0125 0125 0125 2125     %.%.%.%.%.%.%.%!
    d06c:	0225 2225 2225 2125 2125 2125 222d 4125     %.%"%"%!%!%!-"%A
    d07c:	211d 8a65 dbe7 feff ffff dfff ffff fef7     .!e.............
    d08c:	5ac7 ac6d 0435 032d 232d 4225 412d 422d     .Zm.5.-.-#%B-A-B
    d09c:	422d 622d 622d 832d 822d 622d 622d 622d     -B-b-b-.-.-b-b-b
    d0ac:	622d 622d 622d 822d 8235 8235 8335 632d     -b-b-b-.5.5.5.-c
    d0bc:	2335 6535 643d 6235 6225 e84d 97bf dfff     5#5e=d5b%bM.....
    d0cc:	ffff deff deff feff deff deff deff beff     ................
    d0dc:	dfff deff deff deff deff deff deff dfff     ................
    d0ec:	feff feff feff feff feff feff feff feff     ................
    d0fc:	beff deff feff def7 feff fdf7 12a7 6445     ..............Ed
    d10c:	e01c 422d 0125 422d 0125 012d 222d 2125     ..-B%.-B%.-.-"%!
    d11c:	222d 2125 0125 2125 0125 0125 0125 0125     -"%!%.%!%.%.%.%.
    d12c:	0125 0125 0125 0125 0125 2225 2225 2125     %.%.%.%.%.%"%"%!
    d13c:	2225 2125 222d 2125 2015 6d7e fcef beff     %"%!-"%!. ~m....
    d14c:	bfff ffff badf 5196 0635 032d 622d 432d     .......Q5.-.-b-C
    d15c:	232d 222d 412d 612d 622d 622d 622d 622d     -#-"-A-a-b-b-b-b
    d16c:	622d 622d 822d 8335 632d 632d 632d 622d     -b-b-.5.-c-c-c-b
    d17c:	622d 632d 632d 632d a335 4235 6335 622d     -b-c-c-c5.5B5c-b
    d18c:	612d 6225 6745 d4be deef ffff dfff 9eff     -a%bEg..........
    d19c:	dfff ffff def7 feff dfff deff deff deff     ................
    d1ac:	deff feff deff dfff ffff feff feff feff     ................
    d1bc:	feff feff feff feff fef7 deff bfff ffff     ................
    d1cc:	d9d7 6d7e 2335 001d 2125 0125 4235 012d     ..~m5#..%!%.5B-.
    d1dc:	222d 0125 2125 212d 222d 0125 0125 2125     -"%.%!-!-"%.%.%!
    d1ec:	0125 0125 0125 0125 0125 0125 0125 0125     %.%.%.%.%.%.%.%.
    d1fc:	0125 2125 2125 2125 2225 2225 2225 2225     %.%!%!%!%"%"%"%"
    d20c:	232d 75af fef7 ffff fef7 d3a6 274d c334     -#.u........M'4.
    d21c:	6225 432d 422d 4125 822d 422d 222d 422d     %b-C-B%A-.-B-"-B
    d22c:	432d 432d 432d 432d 6335 6335 432d 432d     -C-C-C-C5c5c-C-C
    d23c:	6235 6235 6235 6235 622d 622d 6235 6235     5b5b5b5b-b-b5b5b
    d24c:	822d 6335 422d 632d 4235 8235 4125 233d     -.5c-B-c5B5.%A=#
    d25c:	cc6d 75bf fcf7 feff ffff fff7 def7 feff     m..u............
    d26c:	dfff deff deff deff feff feff deff dfff     ................
    d27c:	ffff ffff feff feff feff feff feff feff     ................
    d28c:	fef7 feff dfff dfff 0f86 e224 2115 6225     ..........$..!%b
    d29c:	2225 222d 222d 212d 0125 0125 0125 e12c     %"-"-"-!%.%.%.,.
    d2ac:	0225 0125 0125 2125 0125 0125 0125 0125     %.%.%.%!%.%.%.%.
    d2bc:	0125 0125 0125 0125 2125 2125 2125 2125     %.%.%.%.%!%!%!%!
    d2cc:	2225 2225 2225 0225 2c65 dddf ffff 19cf     %"%"%"%.e,......
    d2dc:	ac75 2235 e01c 232d 0335 222d 6225 6225     u.5"..-#5.-"%b%b
    d2ec:	422d 2225 632d 432d 622d 622d 622d 622d     -B%"-c-C-b-b-b-b
    d2fc:	622d 622d 622d 622d 632d 632d 632d 632d     -b-b-b-b-c-c-c-c
    d30c:	632d 622d 622d 622d 4235 622d 632d 4335     -c-b-b-b5B-b-c5C
    d31c:	2335 632d a225 8125 601d 443d 0e86 58c7     5#-c%.%..`=D...X
    d32c:	deef fff7 ffff feff dfff deff deff deff     ................
    d33c:	feff feff deff dfff ffff ffff ffff feff     ................
    d34c:	feff feff feff feff bfff feff bfff feff     ................
    d35c:	ed7d 011d 621d 0325 4225 2225 012d 2125     }....b%.%B%"-.%!
    d36c:	2025 4125 0125 022d 0225 0125 0125 2125     % %A%.-.%.%.%.%!
    d37c:	0125 0125 0125 0125 0125 0125 0125 0125     %.%.%.%.%.%.%.%.
    d38c:	2125 2125 2125 2125 222d 222d 0225 0225     %!%!%!%!-"-"%.%.
    d39c:	308e f7c7 b08e c63c e334 412d 6025 601d     .0....<.4.-A%`.`
    d3ac:	422d 422d 422d 422d 422d 422d 422d 422d     -B-B-B-B-B-B-B-B
    d3bc:	422d 422d 422d 422d 422d 622d 632d 632d     -B-B-B-B-B-b-c-c
    d3cc:	622d 622d 622d 622d 622d 622d 622d 622d     -b-b-b-b-b-b-b-b
    d3dc:	622d 622d 622d 622d 622d 622d 622d 622d     -b-b-b-b-b-b-b-b
    d3ec:	6235 422d 022d 253d cb65 d29e 99cf fce7     5b-B-.=%e.......
    d3fc:	fdf7 feff ffff dfff ffff dfff ffff ffff     ................
    d40c:	dfff ffff dfff ffff feff bcef def7 bfff     ................
    d41c:	9fff 9ff7 deff ffff b5a6 e32c 2125 4225     ..........,.%!%B
    d42c:	022d 022d 2225 2225 2225 2225 0225 2225     -.-.%"%"%"%"%.%"
    d43c:	2125 2125 2125 0125 0125 0125 0125 0125     %!%!%!%.%.%.%.%.
    d44c:	0125 0125 0125 0125 2125 2125 2125 2125     %.%.%.%.%!%!%!%!
    d45c:	222d 222d 222d 222d 6b6e 874d a42c c32c     -"-"-"-"nkM.,.,.
    d46c:	4335 2225 2125 4225 422d 422d 422d 422d     5C%"%!%B-B-B-B-B
    d47c:	422d 422d 422d 422d 422d 422d 422d 422d     -B-B-B-B-B-B-B-B
    d48c:	422d 622d 632d 632d 622d 622d 622d 622d     -B-b-c-c-b-b-b-b
    d49c:	622d 622d 622d 622d 622d 622d 622d 622d     -b-b-b-b-b-b-b-b
    d4ac:	622d 622d 622d 622d 632d 622d 622d 632d     -b-b-b-b-c-b-b-c
    d4bc:	022d c22c 253d c855 4e86 d19e 34b7 78cf     -.,.=%U..N...4.x
    d4cc:	bbdf bce7 9cef 7ce7 77d7 35bf 33af f096     .......|.w.5.3..
    d4dc:	ea65 6955 9196 fbef bdff dfff beff deff     e.Ui............
    d4ec:	b9cf 253d 2225 032d 022d 2225 2225 2225     ..=%%"-.-.%"%"%"
    d4fc:	2225 2225 2225 2225 2125 2125 0125 0125     %"%"%"%"%!%!%.%.
    d50c:	0125 0125 0125 0125 0125 0125 0125 0125     %.%.%.%.%.%.%.%.
    d51c:	2125 2125 2125 0125 2225 222d 222d 222d     %!%!%!%.%"-"-"-"
    d52c:	2125 011d 4225 4225 2225 2225 2225 2325     %!..%B%B%"%"%"%#
    d53c:	222d 422d 422d 422d 422d 422d 422d 422d     -"-B-B-B-B-B-B-B
    d54c:	422d 422d 422d 422d 422d 422d 632d 632d     -B-B-B-B-B-B-c-c
    d55c:	622d 622d 622d 622d 622d 622d 622d 622d     -b-b-b-b-b-b-b-b
    d56c:	622d 622d 622d 622d 622d 622d 622d 622d     -b-b-b-b-b-b-b-b
    d57c:	6335 432d 632d 832d 822d 4225 4225 822d     5c-C-c-.-.%B%B-.
    d58c:	2125 622d 622d 6335 843d 843d 843d 843d     %!-b-b5c=.=.=.=.
    d59c:	053d 0435 022d 2125 401d 001d 864d 30a7     =.5.-.%!.@..M..0
    d5ac:	fbef fef7 beff bfff fcef e965 0125 e224     ..........e.%.$.
    d5bc:	222d 2225 2225 2225 2225 2125 2225 2225     -"%"%"%"%"%!%"%"
    d5cc:	2125 0125 0125 0125 0125 0125 0125 0125     %!%.%.%.%.%.%.%.
    d5dc:	0125 0125 0125 0125 2125 2125 0125 0125     %.%.%.%.%!%!%.%.
    d5ec:	0125 2225 2225 2225 412d 2125 0125 0125     %.%"%"%"-A%!%.%.
    d5fc:	422d 422d 2125 4225 222d 222d 422d 422d     -B-B%!%B-"-"-B-B
    d60c:	422d 422d 422d 422d 422d 422d 422d 422d     -B-B-B-B-B-B-B-B
    d61c:	422d 422d 622d 622d 422d 422d 422d 622d     -B-B-b-b-B-B-B-b
    d62c:	622d 622d 622d 622d 422d 622d 622d 622d     -b-b-b-b-B-b-b-b
    d63c:	622d 622d 622d 622d 622d 622d 432d 232d     -b-b-b-b-b-b-C-#
    d64c:	432d 6435 6335 432d 422d 622d 422d 422d     -C5d5c-C-B-b-B-B
    d65c:	622d 612d 8125 8125 632d 2225 422d 412d     -b-a%.%.-c%"-B-A
    d66c:	6125 611d 021d 2435 eb6d 77c7 feff bfff     %a.a..5$m..w....
    d67c:	fdff ef96 c01c 4225 222d 2225 2225 2125     ......%B-"%"%"%!
    d68c:	2125 0125 0125 2125 0125 0125 0125 0125     %!%.%.%!%.%.%.%.
    d69c:	0125 0125 0125 0125 0125 0125 0125 0125     %.%.%.%.%.%.%.%.
    d6ac:	0125 0125 0125 0125 2125 2125 2125 2125     %.%.%.%.%!%!%!%!
    d6bc:	0125 0125 2125 2125 2125 2125 4125 2125     %.%.%!%!%!%!%A%!
    d6cc:	2225 222d 222d 222d 222d 222d 422d 422d     %"-"-"-"-"-"-B-B
    d6dc:	422d 422d 422d 422d 422d 422d 422d 422d     -B-B-B-B-B-B-B-B
    d6ec:	422d 422d 422d 422d 422d 422d 422d 422d     -B-B-B-B-B-B-B-B
    d6fc:	422d 422d 422d 422d 422d 422d 622d 622d     -B-B-B-B-B-B-b-b
    d70c:	8225 8225 822d 632d 422d 422d 622d 622d     %.%.-.-c-B-B-b-b
    d71c:	622d 622d 422d 4225 422d 422d 422d 422d     -b-b-B%B-B-B-B-B
    d72c:	412d 4225 4225 222d 222d 4225 2225 022d     -A%B%B-"-"%B%"-.
    d73c:	e32c 063d 9086 fad7 fdf7 b7cf 4545 211d     ,.=.........EE.!
    d74c:	2225 2225 2225 2225 2125 0125 2125 2125     %"%"%"%"%!%.%!%!
    d75c:	0125 0125 0125 0125 0125 0125 0125 0125     %.%.%.%.%.%.%.%.
    d76c:	0125 0125 0125 0125 0125 0125 2125 2125     %.%.%.%.%.%.%!%!
    d77c:	2125 2125 2125 2125 4225 4125 211d 4225     %!%!%!%!%B%A.!%B
    d78c:	4225 0125 2225 4125 2225 2225 222d 222d     %B%.%"%A%"%"-"-"
    d79c:	2125 222d 222d 422d 422d 422d 422d 422d     %!-"-"-B-B-B-B-B
    d7ac:	422d 422d 422d 422d 422d 422d 422d 422d     -B-B-B-B-B-B-B-B
    d7bc:	422d 422d 422d 422d 422d 422d 422d 622d     -B-B-B-B-B-B-B-b
    d7cc:	622d 622d 622d 622d 6225 4225 422d 622d     -b-b-b-b%b%B-B-b
    d7dc:	622d 622d 622d 622d 432d 432d 632d 632d     -b-b-b-b-C-C-c-c
    d7ec:	632d 632d 422d 422d 422d 622d 411d 2125     -c-c-B-B-B-b.A%!
    d7fc:	222d 012d 222d 222d 221d 821d 411d a74d     -"-.-"-"."...AM.
    d80c:	35b7 f9d7 eb6d e32c 222d 222d 2225 2225     .5..m.,.-"-"%"%"
    d81c:	2125 2125 2125 2125 2125 0125 0125 0125     %!%!%!%!%!%.%.%.
    d82c:	0125 0125 0125 0125 0125 0125 0125 0125     %.%.%.%.%.%.%.%.
    d83c:	0125 0125 2125 2125 2125 2125 2125 2125     %.%.%!%!%!%!%!%!
    d84c:	211d 6125 2125 2125 432d 2225 2225 2125     .!%a%!%!-C%"%"%!
    d85c:	2225 2225 222d 222d 222d 222d 212d 212d     %"%"-"-"-"-"-!-!
    d86c:	212d 422d 422d 422d 422d 422d 422d 422d     -!-B-B-B-B-B-B-B
    d87c:	422d 422d 422d 422d 422d 422d 422d 422d     -B-B-B-B-B-B-B-B
    d88c:	422d 422d 422d 422d 422d 422d 6225 6225     -B-B-B-B-B-B%b%b
    d89c:	4235 4235 4235 422d 422d 432d 432d 432d     5B5B5B-B-B-C-C-C
    d8ac:	822d 6125 6225 6125 4125 422d 422d 432d     -.%a%b%a%A-B-B-C
    d8bc:	2235 2125 412d 4135 212d 2125 6225 221d     5"%!-A5A-!%!%b."
    d8cc:	6215 811d 812d 0025 0535 6e6e 8b76 a33c     .b..-.%.5.nnv.<.
    d8dc:	2225 2225 2225 2125 2125 2125 2125 2125     %"%"%"%!%!%!%!%!
    d8ec:	2125 2125 0125 0125 0125 0125 0125 0125     %!%!%.%.%.%.%.%.
    d8fc:	0125 0125 0125 0125 0125 0125 2125 2125     %.%.%.%.%.%.%!%!
    d90c:	2125 2125 2125 2125 022d 0125 212d 212d     %!%!%!%!-.%.-!-!
    d91c:	0225 0225 2125 2125 2225 2225 222d 222d     %.%.%!%!%"%"-"-"
    d92c:	222d 212d 212d 212d 2125 2125 212d 212d     -"-!-!-!%!%!-!-!
    d93c:	222d 422d 422d 422d 422d 422d 422d 422d     -"-B-B-B-B-B-B-B
    d94c:	422d 422d 422d 422d 422d 422d 422d 422d     -B-B-B-B-B-B-B-B
    d95c:	422d 4225 4225 6225 422d 422d 4225 4225     -B%B%B%b-B-B%B%B
    d96c:	6225 422d 422d 422d 2235 222d 422d 422d     %b-B-B-B5"-"-B-B
    d97c:	422d 422d 2125 222d 232d 2225 2225 2125     -B-B%!-"-#%"%"%!
    d98c:	4225 4225 2225 232d 412d 4225 2225 612d     %B%B%"-#-A%B%"-a
    d99c:	421d 232d 4235 2225 2125 2125 2125 2125     .B-#5B%"%!%!%!%!
    d9ac:	2125 0125 2125 2125 2125 2125 0125 0125     %!%.%!%!%!%!%.%.
    d9bc:	0125 0125 0125 0125 0125 0125 2125 2125     %.%.%.%.%.%.%!%!
    d9cc:	2125 2125 0125 0125 2125 2125 2125 2125     %!%!%.%.%!%!%!%!
    d9dc:	2125 2125 2125 2125 2125 2225 2225 2225     %!%!%!%!%!%"%"%"
    d9ec:	2225 2125 222d 212d 212d 412d 412d 412d     %"%!-"-!-!-A-A-A
    d9fc:	212d 212d 222d 222d 222d 422d 422d 422d     -!-!-"-"-"-B-B-B
    da0c:	422d 422d 422d 422d 422d 422d 422d 422d     -B-B-B-B-B-B-B-B
    da1c:	422d 422d 422d 422d 422d 6225 6225 6225     -B-B-B-B-B%b%b%b
    da2c:	4225 4225 422d 422d 422d 422d 422d 422d     %B%B-B-B-B-B-B-B
    da3c:	422d 422d 422d 422d 222d 222d 222d 222d     -B-B-B-B-"-"-"-"
    da4c:	222d 222d 222d 4225 4225 4225 4225 2125     -"-"-"%B%B%B%B%!
    da5c:	2225 2225 422d 422d 422d 222d 2225 222d     %"%"-B-B-B-"%"-"
    da6c:	2125 2125 2125 2125 2125 2125 2125 2125     %!%!%!%!%!%!%!%!
    da7c:	2125 2125 0125 0125 0125 0125 0125 0125     %!%!%.%.%.%.%.%.
    da8c:	0125 0125 0125 2125 2125 2125 2125 0125     %.%.%.%!%!%!%!%.
    da9c:	0125 2125 2125 2125 2125 2125 2125 2125     %.%!%!%!%!%!%!%!
    daac:	2125 2225 2225 2225 2225 2125 222d 212d     %!%"%"%"%"%!-"-!
    dabc:	2125 2125 2125 412d 212d 2125 2125 2125     %!%!%!-A-!%!%!%!
    dacc:	222d 222d 422d 422d 222d 222d 422d 422d     -"-"-B-B-"-"-B-B
    dadc:	422d 422d 422d 422d 422d 422d 422d 422d     -B-B-B-B-B-B-B-B
    daec:	422d 4225 4225 4225 4225 4225 4225 422d     -B%B%B%B%B%B%B-B
    dafc:	422d 422d 422d 422d 422d 422d 422d 422d     -B-B-B-B-B-B-B-B
    db0c:	222d 222d 222d 222d 222d 222d 2125 2125     -"-"-"-"-"-"%!%!
    db1c:	4225 4225 2125 2125 2225 2225 2225 2225     %B%B%!%!%"%"%"%"
    db2c:	2225 2225 2225 2125 2125 2125 2125 2125     %"%"%"%!%!%!%!%!
    db3c:	2125 2125 2125 2125 2125 0125 0125 0125     %!%!%!%!%!%.%.%.
    db4c:	0125 0125 0125 0125 0125 0125 0125 0125     %.%.%.%.%.%.%.%.
    db5c:	211d 0125 0125 0125 0125 0125 0125 2125     .!%.%.%.%.%.%.%!
    db6c:	0125 0125 2125 2125 2125 2125 2125 2125     %.%.%!%!%!%!%!%!
    db7c:	2125 2125 2125 2125 2125 2125 2125 2125     %!%!%!%!%!%!%!%!
    db8c:	2125 2125 2125 2125 2225 2225 222d 222d     %!%!%!%!%"%"-"-"
    db9c:	2225 222d 222d 422d 422d 422d 422d 422d     %"-"-"-B-B-B-B-B
    dbac:	422d 422d 422d 4225 4225 4225 4225 4225     -B-B-B%B%B%B%B%B
    dbbc:	4225 4225 422d 422d 422d 422d 422d 4225     %B%B-B-B-B-B-B%B
    dbcc:	422d 422d 422d 222d 222d 222d 222d 222d     -B-B-B-"-"-"-"-"
    dbdc:	222d 212d 2125 2125 2125 2125 2125 2125     -"-!%!%!%!%!%!%!
    dbec:	2125 2225 2225 2225 2225 2125 0125 0125     %!%"%"%"%"%!%.%.
    dbfc:	2125 2125 2125 2125 2125 0125 0125 0125     %!%!%!%!%!%.%.%.
    dc0c:	0125 0125 0125 0125 011d 0125 0125 0125     %.%.%.%...%.%.%.
    dc1c:	0125 0125 0125 0125 211d 211d 0125 0125     %.%.%.%..!.!%.%.
    dc2c:	0125 0125 0125 0125 0125 0125 0125 2125     %.%.%.%.%.%.%.%!
    dc3c:	2125 2125 2125 2125 2125 2125 2125 2125     %!%!%!%!%!%!%!%!
    dc4c:	2125 2125 2125 2125 2125 2125 2125 2225     %!%!%!%!%!%!%!%"
    dc5c:	2225 2225 222d 222d 2225 2225 222d 222d     %"%"-"-"%"%"-"-"
    dc6c:	422d 422d 422d 222d 422d 422d 422d 422d     -B-B-B-"-B-B-B-B
    dc7c:	4225 4225 4225 4225 4225 422d 422d 422d     %B%B%B%B%B-B-B-B
    dc8c:	422d 422d 4225 4225 422d 4225 222d 222d     -B-B%B%B-B%B-"-"
    dc9c:	222d 222d 222d 222d 222d 212d 2125 2125     -"-"-"-"-"-!%!%!
    dcac:	2125 2125 2125 2125 2125 2125 2125 2125     %!%!%!%!%!%!%!%!
    dcbc:	2125 0125 0125 0125 2125 2125 2125 2125     %!%.%.%.%!%!%!%!
    dccc:	2125 0125 0125 0125 0125 0125 0125 0125     %!%.%.%.%.%.%.%.
    dcdc:	0125 0125 0125 0125 0125 0125 0125 0125     %.%.%.%.%.%.%.%.
    dcec:	211d 211d 0125 0125 0125 0125 0125 0125     .!.!%.%.%.%.%.%.
    dcfc:	0125 0125 0125 0125 0125 0125 0125 0125     %.%.%.%.%.%.%.%.
    dd0c:	2125 2125 2125 2125 2125 2125 2125 2125     %!%!%!%!%!%!%!%!
    dd1c:	2125 2125 2225 2225 2225 2225 222d 222d     %!%!%"%"%"%"-"-"
    dd2c:	2225 2225 222d 222d 422d 422d 422d 422d     %"%"-"-"-B-B-B-B
    dd3c:	422d 422d 422d 422d 422d 4225 4225 4225     -B-B-B-B-B%B%B%B
    dd4c:	422d 422d 422d 222d 222d 222d 2125 2125     -B-B-B-"-"-"%!%!
    dd5c:	2125 2125 2125 2125 222d 222d 222d 222d     %!%!%!%!-"-"-"-"
    dd6c:	222d 2125 2125 2125 2125 2125 2125 2125     -"%!%!%!%!%!%!%!
    dd7c:	2125 2125 2125 2125 2125 2125 0125 0125     %!%!%!%!%!%!%.%.
    dd8c:	2125 2125 2125 2125 2125 0125 0125 0125     %!%!%!%!%!%.%.%.
    dd9c:	0125 0125 0125 0125 011d 011d 0125 0125     %.%.%.%.....%.%.
    ddac:	0125 0125 0125 0125 0125 0125 0125 0125     %.%.%.%.%.%.%.%.
    ddbc:	0125 0125 0125 0125 0125 0125 2125 2125     %.%.%.%.%.%.%!%!
    ddcc:	2125 2125 2125 2125 2125 2125 2125 2125     %!%!%!%!%!%!%!%!
    dddc:	2125 2125 2125 2125 2225 2225 2225 2225     %!%!%!%!%"%"%"%"
    ddec:	2225 2225 222d 222d 2225 222d 222d 422d     %"%"-"-"%"-"-"-B
    ddfc:	422d 422d 422d 422d 422d 422d 422d 422d     -B-B-B-B-B-B-B-B
    de0c:	422d 422d 422d 422d 422d 422d 222d 222d     -B-B-B-B-B-B-"-"
    de1c:	222d 212d 212d 2125 2125 2125 2125 2125     -"-!-!%!%!%!%!%!
    de2c:	212d 222d 222d 222d 222d 2125 2125 2125     -!-"-"-"-"%!%!%!
    de3c:	2125 2125 2125 2125 2225 2225 2225 2125     %!%!%!%!%"%"%"%!
    de4c:	2125 2125 2125 0125 2125 2125 2125 2125     %!%!%!%.%!%!%!%!
    de5c:	2125 0125 0125 0125 0125 0125 0125 0125     %!%.%.%.%.%.%.%.
    de6c:	011d 011d 011d 0125 0125 0125 0125 0125     ......%.%.%.%.%.
    de7c:	0125 0125 0125 0125 0125 0125 2125 2125     %.%.%.%.%.%.%!%!
    de8c:	0125 0125 0125 2125 2125 2125 2125 2125     %.%.%.%!%!%!%!%!
    de9c:	2125 2125 2125 2125 2125 2125 2125 2125     %!%!%!%!%!%!%!%!
    deac:	2225 2225 2225 2225 2225 2225 222d 222d     %"%"%"%"%"%"-"-"
    debc:	2225 2225 222d 222d 422d 422d 422d 222d     %"%"-"-"-B-B-B-"
    decc:	422d 422d 422d 422d 422d 422d 422d 422d     -B-B-B-B-B-B-B-B
    dedc:	222d 222d 222d 222d 222d 212d 212d 0125     -"-"-"-"-"-!-!%.
    deec:	2125 2125 2125 2125 212d 212d 212d 212d     %!%!%!%!-!-!-!-!
    defc:	2125 2125 2125 2125 2125 2125 2125 212d     %!%!%!%!%!%!%!-!
    df0c:	2125 2125 2125 2125 2125 0125 0125 0125     %!%!%!%!%!%.%.%.
    df1c:	211d 2125 2125 211d 0125 0125 0125 0125     .!%!%!.!%.%.%.%.
    df2c:	0125 0125 0125 0125 211d 011d 011d 0125     %.%.%.%..!....%.
    df3c:	011d 0125 0125 0125 0125 0125 0125 0125     ..%.%.%.%.%.%.%.
    df4c:	0125 0125 2125 2125 0125 2125 2125 2125     %.%.%!%!%.%!%!%!
    df5c:	2125 2125 2125 2125 2125 2125 2125 2125     %!%!%!%!%!%!%!%!
    df6c:	2125 2125 2225 2225 2225 2225 2225 2225     %!%!%"%"%"%"%"%"
    df7c:	2225 2225 2225 222d 2225 2225 222d 222d     %"%"%"-"%"%"-"-"
    df8c:	222d 222d 222d 222d 422d 422d 422d 422d     -"-"-"-"-B-B-B-B
    df9c:	422d 422d 422d 422d 2125 222d 222d 222d     -B-B-B-B%!-"-"-"
    dfac:	212d 212d 0125 0125 2125 2125 2125 2125     -!-!%.%.%!%!%!%!
    dfbc:	212d 212d 212d 212d 2125 2125 2125 2125     -!-!-!-!%!%!%!%!
    dfcc:	2125 2125 2125 0125 0125 2125 2125 0125     %!%!%!%.%.%!%!%.
    dfdc:	0125 0125 0125 0125 211d 211d 211d 211d     %.%.%.%..!.!.!.!
    dfec:	0125 0125 0125 0125 0125 0125 0125 0125     %.%.%.%.%.%.%.%.
    dffc:	0225 0125 0125 0125 0125 0125 0125 0125     %.%.%.%.%.%.%.%.
    e00c:	0125 0125 0125 0125 0125 0125 0125 0125     %.%.%.%.%.%.%.%.
    e01c:	0125 0125 0125 0125 0125 0125 0125 0125     %.%.%.%.%.%.%.%.
    e02c:	0125 0125 0125 0125 0125 0125 0225 0225     %.%.%.%.%.%.%.%.
    e03c:	2225 2225 2225 2225 2225 2225 2225 2225     %"%"%"%"%"%"%"%"
    e04c:	2225 2225 2225 2225 2225 2225 2225 2225     %"%"%"%"%"%"%"%"
    e05c:	2225 222d 222d 222d 222d 222d 222d 2225     %"-"-"-"-"-"-"%"
    e06c:	222d 222d 222d 222d 222d 2225 2225 2225     -"-"-"-"-"%"%"%"
    e07c:	2225 2225 2225 2225 2225 2225 2225 2225     %"%"%"%"%"%"%"%"
    e08c:	2125 2125 2125 2125 2125 2125 0125 0125     %!%!%!%!%!%!%.%.
    e09c:	0125 0125 0125 0125 0125 0125 0125 0125     %.%.%.%.%.%.%.%.
    e0ac:	0125 0125 0125 0125 0125 0125 0125 0125     %.%.%.%.%.%.%.%.
    e0bc:	0125 0125 0125 0125 0125 0125 0125 0125     %.%.%.%.%.%.%.%.
    e0cc:	0125 0125 0125 0125 0125 0125 0125 0125     %.%.%.%.%.%.%.%.
    e0dc:	0125 0125 0125 0125 0125 0125 0125 0125     %.%.%.%.%.%.%.%.
    e0ec:	0125 0125 0125 0125 0125 2125 0125 0125     %.%.%.%.%.%!%.%.
    e0fc:	0125 0125 2125 2125 0225 0225 0225 0225     %.%.%!%!%.%.%.%.
    e10c:	2225 2225 2225 2225 2225 2225 2225 2225     %"%"%"%"%"%"%"%"
    e11c:	2225 2225 2125 2125 2225 2225 222d 222d     %"%"%!%!%"%"-"-"
    e12c:	222d 222d 2225 2225 222d 222d 222d 222d     -"-"%"%"-"-"-"-"
    e13c:	2225 2225 2225 2225 2225 2225 2225 2225     %"%"%"%"%"%"%"%"
    e14c:	2225 2225 2225 2225 2125 2125 0125 0125     %"%"%"%"%!%!%.%.
    e15c:	2125 0125 0125 0125 0125 0125 0125 0125     %!%.%.%.%.%.%.%.
    e16c:	0125 0125 0125 0125 011d 011d 0125 0125     %.%.%.%.....%.%.
    e17c:	0125 0125 0125 0125 0125 0125 0125 0125     %.%.%.%.%.%.%.%.
    e18c:	0125 0125 0125 011d 011d 0125 0025 0025     %.%.%.....%.%.%.
    e19c:	0025 0125 011d 011d 211d 211d 211d 2125     %.%......!.!.!%!
    e1ac:	0125 0125 0125 0125 0125 0125 0125 0125     %.%.%.%.%.%.%.%.
    e1bc:	0125 2125 2125 2125 2125 2125 2125 2125     %.%!%!%!%!%!%!%!
    e1cc:	2225 2125 2125 2125 2125 2125 2125 2125     %"%!%!%!%!%!%!%!
    e1dc:	2225 2225 2125 2125 2125 2125 2125 2125     %"%"%!%!%!%!%!%!
    e1ec:	2125 2125 2125 2125 2125 2125 2125 2125     %!%!%!%!%!%!%!%!
    e1fc:	2125 2125 2125 2125 2125 2125 2125 2125     %!%!%!%!%!%!%!%!
    e20c:	2125 2125 2125 2125 2125 2125 2125 2125     %!%!%!%!%!%!%!%!
    e21c:	2125 2125 2125 2125 2125 2125 2125 0125     %!%!%!%!%!%!%!%.
    e22c:	0125 0125 2125 2125 2125 211d 211d 211d     %.%.%!%!%!.!.!.!
    e23c:	211d 211d 211d 211d 211d 211d 0125 0125     .!.!.!.!.!.!%.%.
    e24c:	0125 0125 0125 0125 a855 a855 a855 a855     %.%.%.%.U.U.U.U.
    e25c:	a855 a755 a755 a755 a755 a755 a755 a855     U.U.U.U.U.U.U.U.
    e26c:	c855 c855 c855 c855 a855 a855 a855 a855     U.U.U.U.U.U.U.U.
    e27c:	a855 a855 a855 a855 a855 c855 c855 a855     U.U.U.U.U.U.U.U.
    e28c:	a855 a855 c855 c855 a955 c855 c855 c855     U.U.U.U.U.U.U.U.
    e29c:	c855 c85d c85d c85d c855 c855 c85d c85d     U.].].].U.U.].].
    e2ac:	c85d c85d c85d c85d c855 c855 c855 c855     ].].].].U.U.U.U.
    e2bc:	c855 c855 c855 c855 c85d c85d c85d c85d     U.U.U.U.].].].].
    e2cc:	c85d c85d c85d c85d c85d c85d c85d c855     ].].].].].].].U.
    e2dc:	c855 c855 c855 c855 c855 c855 c855 a855     U.U.U.U.U.U.U.U.
    e2ec:	a855 c855 a855 a855 a855 a855 c855 c855     U.U.U.U.U.U.U.U.
    e2fc:	c855 a855 a855 a855 c855 c855 a855 a855     U.U.U.U.U.U.U.U.
    e30c:	a855 a855 a855 a855 a855 a855 a855 a855     U.U.U.U.U.U.U.U.

0000e31c <gImage_8>:
    e31c:	9e15 9d15 9d15 9d15 9d15 9d15 9e15 9e15     ................
    e32c:	9e15 9e15 9e15 9e15 9e15 9e15 9e15 9e15     ................
    e33c:	9e15 9e15 9e15 9e15 9e15 9e15 9e15 9e15     ................
    e34c:	9e15 9e15 9e15 9e15 9e15 9e15 9e15 9e15     ................
    e35c:	9e15 9e15 9e15 9e15 9e15 9e15 9e15 9e15     ................
    e36c:	9e15 9e15 9e15 9e15 9e15 9e15 9e15 9e15     ................
    e37c:	9e15 9e15 9e15 9e15 9e15 9e15 9e15 9e15     ................
    e38c:	9e15 9e15 9e15 9e15 9e15 9e15 9e15 9e15     ................
    e39c:	9e15 9e15 9e15 9e15 9e15 9e15 9e15 9e15     ................
    e3ac:	9e15 9e15 9e15 9e15 9e15 9e15 9e15 9e15     ................
    e3bc:	9e15 9e15 9e15 9e15 9e15 9e15 9e15 9e15     ................
    e3cc:	9e15 9e15 9e15 9e15 9e15 9e15 9e15 9e15     ................
    e3dc:	9e15 9e15 9e15 9e15 5d05 5d05 5d05 5d05     .........].].].]
    e3ec:	5d05 5d05 5d05 5d05 5d05 5d05 5d05 5d05     .].].].].].].].]
    e3fc:	5d05 5d05 5d05 5d05 5d05 5d05 5d05 5d05     .].].].].].].].]
    e40c:	5d05 5d05 5d05 5d05 5d05 5d05 5d05 5d05     .].].].].].].].]
    e41c:	5d05 5d05 5d05 5d05 5d05 5d05 5d05 5d05     .].].].].].].].]
    e42c:	5d05 5d05 5d05 5d05 5d05 5d05 5d05 5d05     .].].].].].].].]
    e43c:	5d05 5d05 5d05 5d05 5d05 5d05 5d05 5d05     .].].].].].].].]
    e44c:	5d05 5d05 5d05 5d05 5d05 5d05 5d05 5d05     .].].].].].].].]
    e45c:	5d05 5d05 5d05 5d05 5d05 5d05 5d05 5d05     .].].].].].].].]
    e46c:	5d05 5d05 5d05 5d05 5d05 5d05 5d05 5d05     .].].].].].].].]
    e47c:	5d05 5d05 5d05 5d05 5d05 5d05 5d05 5d05     .].].].].].].].]
    e48c:	5d05 5d05 5d05 5d05 5d05 5d05 5d05 5d05     .].].].].].].].]
    e49c:	5d05 5d05 5d05 5d05 5d05 5d05 5d05 5d05     .].].].].].].].]
    e4ac:	5e05 5e05 5d05 5d05 5d05 5e05 5e05 5e05     .^.^.].].].^.^.^
    e4bc:	5d05 5d05 5d05 5d05 5d05 5d05 5d05 5d05     .].].].].].].].]
    e4cc:	5d05 5d05 5d05 5d05 5d05 5d05 5d05 5d05     .].].].].].].].]
    e4dc:	5d05 5d05 5d05 5d05 5d05 5d05 5d05 5d05     .].].].].].].].]
    e4ec:	5d05 5d05 5d05 5d05 5d05 5d05 5d05 5d05     .].].].].].].].]
    e4fc:	5d05 5d05 5d05 5d05 5d05 5d05 5d05 5d05     .].].].].].].].]
    e50c:	5d05 5d05 5d05 5d05 5d05 5d05 5d05 5d05     .].].].].].].].]
    e51c:	5d05 5d05 5d05 5d05 5d05 5d05 5d05 5d05     .].].].].].].].]
    e52c:	5d05 5d05 5d05 5d05 5d05 5d05 5d05 5d05     .].].].].].].].]
    e53c:	5d05 5d05 5d05 5d05 5d05 5d05 5d05 5d05     .].].].].].].].]
    e54c:	5d05 5d05 5d05 5d05 5d05 5d05 5d05 5d05     .].].].].].].].]
    e55c:	5d05 5d05 5d05 5d05 5d05 5d05 5d05 5d05     .].].].].].].].]
    e56c:	5d05 5d05 5d05 5d05 5e05 5e05 5e05 5e05     .].].].].^.^.^.^
    e57c:	5e05 5e05 5e05 5e05 5e05 5e05 5e05 5e05     .^.^.^.^.^.^.^.^
    e58c:	5e05 5e05 5e05 5e05 5e05 5e05 5e05 5e05     .^.^.^.^.^.^.^.^
    e59c:	5e05 5e05 5e05 5e05 5e05 5e05 5e05 5e05     .^.^.^.^.^.^.^.^
    e5ac:	5e05 5e05 5e05 5e05 5e05 5e05 5e05 5e05     .^.^.^.^.^.^.^.^
    e5bc:	5e05 5e05 5e05 5e05 5e05 5e05 5e05 5e05     .^.^.^.^.^.^.^.^
    e5cc:	5e05 5e05 5e05 5e05 5e05 5e05 5e05 5e05     .^.^.^.^.^.^.^.^
    e5dc:	5e05 5e05 5e05 5e05 5e05 5e05 5e05 5e05     .^.^.^.^.^.^.^.^
    e5ec:	5e05 5e05 5e05 5e05 5e05 5e05 5e05 5e05     .^.^.^.^.^.^.^.^
    e5fc:	5e05 5e05 5e05 5e05 5e05 5e05 5e05 5e05     .^.^.^.^.^.^.^.^
    e60c:	5e05 5e05 5e05 5e05 5e05 5e05 5e05 5e05     .^.^.^.^.^.^.^.^
    e61c:	5e05 5e05 5e05 5e05 5e05 5e05 5e05 5e05     .^.^.^.^.^.^.^.^
    e62c:	5e05 5e05 5e05 5e05 5e05 5e05 5e05 5e05     .^.^.^.^.^.^.^.^
    e63c:	5e05 5d05 5d05 5d05 5d05 5d05 5e05 5e05     .^.].].].].].^.^
    e64c:	5d05 5d05 5d05 5d05 5d05 5d05 5d05 5d05     .].].].].].].].]
    e65c:	5d05 5d05 5d05 5d05 5d05 5d05 5d05 5d05     .].].].].].].].]
    e66c:	5d05 5d05 5d05 5d05 5d05 5d05 5d05 5d05     .].].].].].].].]
    e67c:	5d05 5d05 5d05 5d05 5d05 5d05 5d05 5d05     .].].].].].].].]
    e68c:	5d05 5d05 5d05 5d05 5d05 5d05 5d05 5d05     .].].].].].].].]
    e69c:	5d05 5d05 5d05 5d05 5d05 5d05 5d05 5d05     .].].].].].].].]
    e6ac:	5d05 5d05 5d05 5d05 5d05 5d05 5d05 5d05     .].].].].].].].]
    e6bc:	5d05 5d05 5d05 5d05 5d05 5d05 5d05 5d05     .].].].].].].].]
    e6cc:	5d05 5d05 5d05 5d05 5d05 5d05 5d05 5d05     .].].].].].].].]
    e6dc:	5d05 5d05 5d05 5d05 5d05 5d05 5d05 5d05     .].].].].].].].]
    e6ec:	5d05 5d05 5d05 5d05 5d05 5d05 5d05 5d05     .].].].].].].].]
    e6fc:	5d05 5d05 5d05 5d05 5d05 5d05 5d05 5d05     .].].].].].].].]
    e70c:	5d05 5d05 5e05 5e05 5d05 5d05 5d05 5d05     .].].^.^.].].].]
    e71c:	5d05 5d05 5d05 5d05 5d05 5d05 5d05 5d05     .].].].].].].].]
    e72c:	5d05 5d05 5d05 5d05 5d05 5d05 5d05 5d05     .].].].].].].].]
    e73c:	5d05 5d05 5d05 5d05 5d05 5d05 5d05 5d05     .].].].].].].].]
    e74c:	5d05 5d05 5d05 5d05 5d05 5d05 5d05 5d05     .].].].].].].].]
    e75c:	5d05 5d05 5d05 5d05 5d05 5d05 5d05 5d05     .].].].].].].].]
    e76c:	5d05 5d05 5d05 5d05 5d05 5d05 5d05 5d05     .].].].].].].].]
    e77c:	5d05 5d05 5d05 5d05 5d05 5d05 5d05 5d05     .].].].].].].].]
    e78c:	5d05 5d05 5d05 5d05 5d05 5d05 5d05 5d05     .].].].].].].].]
    e79c:	5d05 5d05 5d05 5d05 5d05 5d05 5d05 5d05     .].].].].].].].]
    e7ac:	5d05 5d05 5d05 5d05 5d05 5d05 5d05 5d05     .].].].].].].].]
    e7bc:	5d05 5d05 5d05 5d05 5d05 5d05 5d05 5d05     .].].].].].].].]
    e7cc:	5d05 5d05 5d05 5d05 5d05 5d05 5d05 5d05     .].].].].].].].]
    e7dc:	5d05 5d05 5d05 5d05 5d05 5d05 5d05 5d05     .].].].].].].].]
    e7ec:	5d05 5d05 5d05 5d05 5d05 5d05 5d05 5d05     .].].].].].].].]
    e7fc:	5d05 5d05 5d05 5d05 5d05 5d05 5d05 5d05     .].].].].].].].]
    e80c:	5d05 5d05 5d05 5d05 5d05 5d05 5d05 5d05     .].].].].].].].]
    e81c:	5d05 5d05 5d05 5d05 5d05 5d05 5d05 5d05     .].].].].].].].]
    e82c:	5d05 5d05 5d05 5d05 5d05 5d05 5d05 5d05     .].].].].].].].]
    e83c:	5d05 5d05 5d05 5d05 5d05 5d05 5d05 5d05     .].].].].].].].]
    e84c:	5d05 5d05 5d05 5d05 5d05 5d05 5d05 5d05     .].].].].].].].]
    e85c:	5d05 5d05 5d05 5d05 5d05 5d05 5d05 5d05     .].].].].].].].]
    e86c:	5d05 5d05 5d05 5d05 5d05 5d05 5d05 5d05     .].].].].].].].]
    e87c:	5d05 5d05 5d05 5d05 5d05 5d05 5d05 5d05     .].].].].].].].]
    e88c:	5d05 5d05 5d05 5d05 5d05 5d05 5d05 5d05     .].].].].].].].]
    e89c:	5d05 5d05 5e05 5e05 5d05 5d05 5d05 5d05     .].].^.^.].].].]
    e8ac:	5d05 5d05 5d05 5d05 5d05 5d05 5d05 5d05     .].].].].].].].]
    e8bc:	5d05 5d05 5d05 5d05 5d05 5d05 5d05 5d05     .].].].].].].].]
    e8cc:	5d05 5d05 5d05 5d05 5d05 5d05 5d05 5d05     .].].].].].].].]
    e8dc:	5d05 5d05 5d05 5d05 5d05 5d05 5d05 5d05     .].].].].].].].]
    e8ec:	5d05 5d05 5d05 5d05 5d05 5d05 5d05 5d05     .].].].].].].].]
    e8fc:	5d05 5d05 5d05 5d05 5d05 5d05 5d05 5d05     .].].].].].].].]
    e90c:	5d05 5d05 5d05 5d05 5d05 5d05 5d05 5d05     .].].].].].].].]
    e91c:	5d05 5d05 5d05 5d05 5d05 5d05 5d05 5d05     .].].].].].].].]
    e92c:	5d05 5d05 5d05 5d05 5d05 5d05 5d05 5d05     .].].].].].].].]
    e93c:	5d05 5d05 5d05 5d05 5d05 5d05 5d05 5d05     .].].].].].].].]
    e94c:	5d05 5d05 5d05 5d05 5d05 5d05 5d05 5d05     .].].].].].].].]
    e95c:	5d05 5d05 5d05 5d05 5d05 5d05 5d05 5d05     .].].].].].].].]
    e96c:	5d05 5d05 5d05 5d05 5d05 5d05 5d05 5d05     .].].].].].].].]
    e97c:	5d05 5d05 5d05 5d05 5d05 5d05 5d05 5d05     .].].].].].].].]
    e98c:	5d05 5d05 5d05 5d05 5d05 5d05 5d05 5d05     .].].].].].].].]
    e99c:	5d05 5d05 5d05 5d05 5d05 5d05 5d05 5d05     .].].].].].].].]
    e9ac:	5e05 3d0d 7d05 5e05 5d05 5e05 5f05 3d05     .^.=.}.^.].^._.=
    e9bc:	5d05 3e05 7d0d 5e05 3e05 5f05 3c05 7d05     .].>.}.^.>._.<.}
    e9cc:	5d05 5d05 5d05 5d05 5d05 5d05 5d05 5d05     .].].].].].].].]
    e9dc:	5d05 5d05 5d05 5d05 5d05 5d05 5d05 5d05     .].].].].].].].]
    e9ec:	5d05 5d05 5d05 5d05 5d05 5d05 5d05 5d05     .].].].].].].].]
    e9fc:	5d05 5d05 5d05 5d05 5d05 5d05 5d05 5d05     .].].].].].].].]
    ea0c:	5d05 5d05 5d05 5d05 5d05 5d05 5d05 5d05     .].].].].].].].]
    ea1c:	5d05 5d05 5d05 5d05 5d05 5d05 5d05 5d05     .].].].].].].].]
    ea2c:	5d05 5d05 5d05 5d05 5d05 5d05 5d05 5d05     .].].].].].].].]
    ea3c:	5d05 5d05 5d05 5d05 5d05 5d05 5d05 5d05     .].].].].].].].]
    ea4c:	5d05 5d05 5d05 5d05 5d05 5d05 5d05 5d05     .].].].].].].].]
    ea5c:	5d05 5d05 5d05 5d05 5d05 5d05 5d05 5d05     .].].].].].].].]
    ea6c:	5d05 5d05 5d05 5d05 7d05 1c0d 9f05 3e05     .].].].].}.....>
    ea7c:	3c05 3d1d 5d1d bc1d 9c25 5d1d 5c25 7d1d     .<.=.]..%..]%\.}
    ea8c:	5d25 5c25 9c25 5e05 5d05 5d05 5d05 5d05     %]%\%..^.].].].]
    ea9c:	5d05 5d05 5d05 5d05 5d05 5d05 5d05 5d05     .].].].].].].].]
    eaac:	5d05 5d05 5d05 5d05 5d05 5d05 5d05 5d05     .].].].].].].].]
    eabc:	5d05 5d05 5d05 5d05 5d05 5d05 5d05 5d05     .].].].].].].].]
    eacc:	5d05 5d05 5d05 5d05 5d05 5d05 5d05 5d05     .].].].].].].].]
    eadc:	5d05 5d05 5d05 5d05 5d05 5d05 5d05 5d05     .].].].].].].].]
    eaec:	5d05 5d05 5d05 5d05 5d05 5d05 5d05 5d05     .].].].].].].].]
    eafc:	5d05 5d05 5d05 5d05 5d05 5d05 5d05 5d05     .].].].].].].].]
    eb0c:	5d05 5d05 5d05 5d05 5d05 5d05 5d05 5d05     .].].].].].].].]
    eb1c:	5d05 5d05 5d05 5d05 5d05 5d05 5d05 5d05     .].].].].].].].]
    eb2c:	5d05 5d05 5d05 5d05 5d05 5d05 5d05 5d05     .].].].].].].].]
    eb3c:	7d05 5d05 5f05 1915 9b7e 9fd7 9eef 9de7     .}.]._..~.......
    eb4c:	9de7 dfef beef bfe7 dfe7 deef 7ed7 193d     .............~=.
    eb5c:	5d05 5d05 5d05 5d05 5d05 5d05 5d05 5d05     .].].].].].].].]
    eb6c:	5d05 5d05 5d05 5d05 5d05 5d05 5d05 5d05     .].].].].].].].]
    eb7c:	5d05 5d05 5d05 5d05 5d05 5d05 5d05 5d05     .].].].].].].].]
    eb8c:	5d05 5d05 5d05 5d05 5d05 5d05 5d05 5d05     .].].].].].].].]
    eb9c:	5d05 5d05 5d05 5d05 5d05 5d05 5d05 5d05     .].].].].].].].]
    ebac:	5d05 5d05 5d05 5d05 5d05 5d05 5d05 5d05     .].].].].].].].]
    ebbc:	5d05 5d05 5d05 5d05 5d05 5d05 5d05 5d05     .].].].].].].].]
    ebcc:	5d05 5d05 5d05 5d05 5d05 5d05 5d05 5d05     .].].].].].].].]
    ebdc:	5d05 5d05 5d05 5d05 5d05 5d05 5d05 5d05     .].].].].].].].]
    ebec:	5d05 5d05 5d05 5d05 5d05 5d05 5d05 5d05     .].].].].].].].]
    ebfc:	5d05 5d05 5d05 5d05 5d05 3c05 fc0c 7c8e     .].].].].].<...|
    ec0c:	ffef ffff ddff ffff feff ffff dfff fff7     ................
    ec1c:	ffff feff ffef 3b2d 5d05 5d05 5d05 5d05     ......-;.].].].]
    ec2c:	5d05 5d05 5d05 5d05 5d05 5d05 5d05 5d05     .].].].].].].].]
    ec3c:	5d05 5d05 5d05 5d05 5d05 5d05 5d05 5d05     .].].].].].].].]
    ec4c:	5d05 5d05 5d05 5d05 5d05 5d05 5d05 5d05     .].].].].].].].]
    ec5c:	5d05 5d05 5d05 5d05 5d05 5d05 5d05 5d05     .].].].].].].].]
    ec6c:	5d05 5d05 5d05 5d05 5d05 5d05 5d05 5d05     .].].].].].].].]
    ec7c:	5d05 5d05 5d05 5d05 5d05 5d05 5d05 5d05     .].].].].].].].]
    ec8c:	5d05 5d05 5d05 5d05 5d05 5d05 5d05 5d05     .].].].].].].].]
    ec9c:	5d05 5d05 5d05 5d05 5d05 5d05 5d05 5d05     .].].].].].].].]
    ecac:	5d05 5d05 5d05 5d05 5d05 5d05 5d05 5d05     .].].].].].].].]
    ecbc:	5d05 5d05 5d05 5d05 5d05 5d05 5d05 5d05     .].].].].].].].]
    eccc:	5f05 7d05 7d25 bfd7 ffff dfff ffff dff7     ._.}%}..........
    ecdc:	fff7 fff7 ffff fff7 ffff dfff dfe7 9d1d     ................
    ecec:	5d05 5d05 5d05 5d05 5d05 5d05 5d05 5d05     .].].].].].].].]
    ecfc:	5d05 5d05 5d05 5d05 5d05 5d05 5d05 5d05     .].].].].].].].]
    ed0c:	5d05 5d05 5d05 5d05 5d05 5d05 5d05 5d05     .].].].].].].].]
    ed1c:	5d05 5d05 5d05 5d05 5d05 5d05 5d05 5d05     .].].].].].].].]
    ed2c:	5d05 5d05 5d05 5d05 5d05 5d05 5d05 5d05     .].].].].].].].]
    ed3c:	5d05 5d05 5d05 5d05 5d05 5d05 5d05 5d05     .].].].].].].].]
    ed4c:	5d05 5d05 5d05 5d05 5d05 5d05 5d05 5d05     .].].].].].].].]
    ed5c:	5d05 5d05 5d05 5d05 5d05 5d05 5d05 5d05     .].].].].].].].]
    ed6c:	5d05 5d05 5d05 5d05 5d05 5d05 5d05 5d05     .].].].].].].].]
    ed7c:	5d05 5d05 5d05 5d05 5d05 5d05 5d05 5d05     .].].].].].].].]
    ed8c:	5d05 5d05 5d05 5d05 5d05 3b05 7b2d ffdf     .].].].].].;-{..
    ed9c:	ffff ffff ffff ffff dfff ffff ffff deff     ................
    edac:	dfff dfff beef 5c25 5d05 5d05 5d05 5d05     ......%\.].].].]
    edbc:	5d05 5d05 5d05 5d05 5d05 5d05 5d05 5d05     .].].].].].].].]
    edcc:	5d05 5d05 5d05 5d05 5d05 5d05 5d05 5d05     .].].].].].].].]
    eddc:	5d05 5d05 5d05 5d05 5d05 5d05 5d05 5d05     .].].].].].].].]
    edec:	5d05 5d05 5d05 5d05 5d05 5d05 5d05 5d05     .].].].].].].].]
    edfc:	5d05 5d05 5d05 5d05 5d05 5d05 5d05 5d05     .].].].].].].].]
    ee0c:	5d05 5d05 5d05 5d05 5d05 5d05 5d05 5d05     .].].].].].].].]
    ee1c:	5d05 5d05 5d05 5d05 5d05 5d05 5d05 5d05     .].].].].].].].]
    ee2c:	5d05 5d05 5d05 5d05 5d05 5d05 5d05 5d05     .].].].].].].].]
    ee3c:	5d05 5d05 5d05 5d05 5d05 5d05 5d05 5d05     .].].].].].].].]
    ee4c:	5d05 5d05 5d05 5d05 5d05 5d05 5d05 5d05     .].].].].].].].]
    ee5c:	5d05 5d05 9d35 ffe7 ffff ffff fff7 fff7     .].]5...........
    ee6c:	ffff ffff ffff ffff ffff ffff dde7 7c2d     ..............-|
    ee7c:	5d05 5d05 5d05 5d05 5d05 5d05 5d05 5d05     .].].].].].].].]
    ee8c:	5d05 5d05 5d05 5d05 5d05 5d05 5d05 5d05     .].].].].].].].]
    ee9c:	5d05 5d05 5d05 5d05 5d05 5d05 5d05 5d05     .].].].].].].].]
    eeac:	5d05 5d05 5d05 5d05 5d05 5d05 5d05 5d05     .].].].].].].].]
    eebc:	5d05 5d05 5d05 5d05 5d05 5d05 5d05 5d05     .].].].].].].].]
    eecc:	5d05 5d05 5d05 5d05 5d05 5d05 5d05 5d05     .].].].].].].].]
    eedc:	5d05 5d05 5d05 5d05 5d05 5d05 5d05 5d05     .].].].].].].].]
    eeec:	5d05 5d05 5d05 5d05 5d05 5d05 5d05 5d05     .].].].].].].].]
    eefc:	5d05 5d05 5d05 5d05 5d05 5d05 5d05 5d05     .].].].].].].].]
    ef0c:	5d05 5d05 5d05 5d05 5d05 5d05 5d05 5d05     .].].].].].].].]
    ef1c:	5d05 5d05 5d05 5d05 5e05 3d05 9d35 dfe7     .].].].].^.=5...
    ef2c:	dfff feff ffff dfff feff ffff fff7 ffff     ................
    ef3c:	dfff ffff deef 3c2d 5d05 5d05 5d05 5d05     ......-<.].].].]
    ef4c:	5d05 5d05 5d05 5d05 5d05 5d05 5d05 5d05     .].].].].].].].]
    ef5c:	5d05 5d05 5d05 5d05 5d05 5d05 5d05 5d05     .].].].].].].].]
    ef6c:	5d05 5d05 5d05 5d05 5d05 5d05 5d05 5d05     .].].].].].].].]
    ef7c:	5d05 5d05 5d05 5d05 5d05 5d05 5d05 5d05     .].].].].].].].]
    ef8c:	5d05 5d05 5d05 5d05 5d05 5d05 5d05 5d05     .].].].].].].].]
    ef9c:	5d05 5d05 5d05 5d05 5d05 5d05 5d05 5d05     .].].].].].].].]
    efac:	5d05 5e05 3d05 7d05 5c05 5d05 5e05 5e05     .].^.=.}.\.].^.^
    efbc:	5e05 5e05 5e05 5e05 5e05 5e05 5e05 5e05     .^.^.^.^.^.^.^.^
    efcc:	5e05 5e05 5e05 5e05 5e05 5e05 5e05 5e05     .^.^.^.^.^.^.^.^
    efdc:	5e05 5e05 5e05 5e05 5e05 5e05 5e05 5e05     .^.^.^.^.^.^.^.^
    efec:	5e05 3e05 bb35 ffe7 ffff fff7 ffff dfff     .^.>5...........
    effc:	ffff ffff fff7 ffff feff ffff 9fef 9d25     ..............%.
    f00c:	5d05 5d05 5d05 5d05 5d05 5d05 5d05 5d05     .].].].].].].].]
    f01c:	5d05 5d05 5d05 5d05 5d05 5d05 5d05 5d05     .].].].].].].].]
    f02c:	5d05 5d05 5d05 5d05 5d05 5d05 5d05 5d05     .].].].].].].].]
    f03c:	5e05 7d05 3d05 3e05 3d05 7d05 7d05 5e05     .^.}.=.>.=.}.}.^
    f04c:	5d05 5d05 5d05 5d05 5d05 5d05 5d05 5d05     .].].].].].].].]
    f05c:	5d05 5d05 5d05 5d05 5d05 5d05 5d05 5d05     .].].].].].].].]
    f06c:	5d05 5d05 5d05 5d05 5d05 5d05 7e05 5d05     .].].].].].].~.]
    f07c:	3d05 7d05 7d05 5d05 5d05 5d05 5d05 5d05     .=.}.}.].].].].]
    f08c:	5d05 5d05 5d05 5d05 5d05 5d05 5d05 5d05     .].].].].].].].]
    f09c:	5d05 5d05 5d05 5d05 5d05 5d05 5d05 5d05     .].].].].].].].]
    f0ac:	5d05 5d05 5d05 5d05 5d05 3e05 9b35 ffe7     .].].].].].>5...
    f0bc:	ffff ffff ffff ffff ffff dfff ffff ffff     ................
    f0cc:	ffff ffff bff7 5c2d 5d05 5d05 5d05 5d05     ......-\.].].].]
    f0dc:	5d05 5d05 5d05 7d05 5d05 5d05 5d05 5d05     .].].].}.].].].]
    f0ec:	5d05 5d05 5d05 5d05 5d05 5d05 5d05 5d05     .].].].].].].].]
    f0fc:	5d05 5d05 5d05 5d05 7e05 3d05 5e05 5e05     .].].].].~.=.^.^
    f10c:	7e05 5d05 5d05 5d05 5d05 5d05 5d05 5d05     .~.].].].].].].]
    f11c:	5d05 5d05 5d05 5d05 5d05 5d05 5d05 5d05     .].].].].].].].]
    f12c:	5d05 5d05 5d05 5d05 5d05 5d05 5d05 5d05     .].].].].].].].]
    f13c:	5d05 5d05 7d05 5d05 5e05 7d05 5d05 3d0d     .].].}.].^.}.].=
    f14c:	5e05 5e05 5e05 5e05 5e05 5e05 5e05 5e05     .^.^.^.^.^.^.^.^
    f15c:	5e05 5e05 5e05 5e05 5e05 5e05 5e05 5e05     .^.^.^.^.^.^.^.^
    f16c:	5e05 5e05 5e05 5e05 5e05 5e05 5e05 5e05     .^.^.^.^.^.^.^.^
    f17c:	7d05 3e05 9c3d ffef ffff ffff fff7 feff     .}.>=...........
    f18c:	ffff dff7 ffff ffff fff7 fff7 bdef 7c35     ..............5|
    f19c:	5d05 5d05 5d05 5d05 5d05 5d05 5d05 5d05     .].].].].].].].]
    f1ac:	5d05 5d05 5d05 5d05 5d05 5d05 5d05 5d05     .].].].].].].].]
    f1bc:	5d05 5d05 5d05 5d05 5d05 5d05 5d05 5d05     .].].].].].].].]
    f1cc:	5d05 3d05 7e05 5d05 7e05 5e05 5e05 7d05     .].=.~.].~.^.^.}
    f1dc:	5d05 5d05 5d05 5d05 5d05 5d05 5d05 5d05     .].].].].].].].]
    f1ec:	5d05 5d05 5d05 5d05 5d05 5d05 5d05 5d05     .].].].].].].].]
    f1fc:	5d05 5d05 5d05 5d05 7e05 5d05 7d05 5d05     .].].].].~.].}.]
    f20c:	7e05 5d05 3d05 5e05 5d05 5d05 5d05 5d05     .~.].=.^.].].].]
    f21c:	5d05 5d05 5d05 5d05 5d05 5d05 5d05 5d05     .].].].].].].].]
    f22c:	5d05 5d05 5d05 5d05 5d05 5d05 5d05 5d05     .].].].].].].].]
    f23c:	5d05 5d05 5d05 5d05 3c05 3e05 9b35 fee7     .].].].].<.>5...
    f24c:	dfff ffff ffff ffff ffff ffff ffff ffff     ................
    f25c:	fff7 fff7 9def 9d2d 3e05 5d05 5e05 5e05     ......-..>.].^.^
    f26c:	5e05 5e05 5e05 5d05 5e05 5e05 5e05 5e05     .^.^.^.].^.^.^.^
    f27c:	5e05 5e05 5e05 5e05 5e05 5e05 5e05 5e05     .^.^.^.^.^.^.^.^
    f28c:	5e05 5e05 5e05 5e05 5d05 5d05 7d05 5c05     .^.^.^.^.].].}.\
    f29c:	5d05 5e05 7e05 7d05 5d05 5d05 5d05 5d05     .].^.~.}.].].].]
    f2ac:	5d05 5d05 5d05 5d05 5d05 5d05 5d05 5d05     .].].].].].].].]
    f2bc:	5d05 5d05 5d05 5d05 5d05 5d05 5d05 5d05     .].].].].].].].]
    f2cc:	5d05 5e05 5e05 5d05 5d05 5d05 7e05 5e05     .].^.^.].].].~.^
    f2dc:	7e05 7e05 7e05 7e05 7e05 7e05 7e05 7e05     .~.~.~.~.~.~.~.~
    f2ec:	7e05 7e05 7e05 7e05 7e05 7e05 7e05 7e05     .~.~.~.~.~.~.~.~
    f2fc:	7e05 7e05 7e05 7e05 7e05 7e05 7e05 7e05     .~.~.~.~.~.~.~.~
    f30c:	7f05 5f05 bc2d ffe7 ffff fff7 ffff ffff     ..._-...........
    f31c:	ffff ffff dfff ffff ffff ffff bfef 9d25     ..............%.
    f32c:	5d05 5d05 5e05 5d05 5d05 5d05 5d05 5d05     .].].^.].].].].]
    f33c:	7d05 7d05 5d05 5d05 5d05 5d05 5d05 5d05     .}.}.].].].].].]
    f34c:	5d05 5d05 5d05 5d05 5d05 5d05 5d05 5d05     .].].].].].].].]
    f35c:	5f05 7e05 7d05 7d05 5d05 5e05 5e05 5d05     ._.~.}.}.].^.^.]
    f36c:	5d05 5d05 5d05 5d05 5d05 5d05 5d05 5d05     .].].].].].].].]
    f37c:	5d05 5d05 5d05 5d05 5d05 5d05 5d05 5d05     .].].].].].].].]
    f38c:	5d05 5d05 5d05 5d05 5d05 1e0d 5e05 7d05     .].].].].]...^.}
    f39c:	3c05 5d05 7d05 3b05 1d05 1d05 1d05 1d05     .<.].}.;........
    f3ac:	1d05 1d05 1d05 1d05 1d05 1d05 1d05 1d05     ................
    f3bc:	1d05 1d05 1d05 1d05 1d05 1d05 1d05 1d05     ................
    f3cc:	1d05 1d05 1d05 1d05 1d05 fd04 9b35 dfe7     ............5...
    f3dc:	ffff ffff ffff ffff ffff ffff ffff ffff     ................
    f3ec:	feff ffff bfef 5b35 1d05 3d05 3d05 3d05     ......5[...=.=.=
    f3fc:	3d05 3d05 3d05 3d05 3d05 3d05 3d05 3d05     .=.=.=.=.=.=.=.=
    f40c:	3d05 3d05 3d05 3d05 3d05 3d05 3d05 3d05     .=.=.=.=.=.=.=.=
    f41c:	3d05 3d05 3d05 3d05 1d05 3c05 3c05 3d05     .=.=.=.=...<.<.=
    f42c:	5e05 7e05 5d05 5e05 5d05 5d05 5d05 5d05     .^.~.].^.].].].]
    f43c:	5d05 5d05 5d05 5d05 5d05 5d05 5d05 5d05     .].].].].].].].]
    f44c:	5d05 5d05 5d05 5d05 5d05 5d05 5d05 5d05     .].].].].].].].]
    f45c:	7d05 1e05 3d05 7d05 3d05 7e05 5b05 1b5e     .}...=.}.=.~.[^.
    f46c:	3d6e 3d6e 3d6e 3d6e 3d6e 3d6e 3d6e 3d6e     n=n=n=n=n=n=n=n=
    f47c:	3d6e 3d6e 3d6e 3d6e 3d6e 3d6e 3d6e 3d6e     n=n=n=n=n=n=n=n=
    f48c:	3d6e 3d6e 3d6e 3d6e 3d6e 3d6e 3d6e 3d6e     n=n=n=n=n=n=n=n=
    f49c:	3d76 3d6e 9c8e def7 ffff ffff ffff ffff     v=n=............
    f4ac:	ffff ffff ffff ffff feff ffff bff7 9c8e     ................
    f4bc:	7d86 7d86 7d86 9d86 7d86 7c86 7c86 9d86     .}.}.}...}.|.|..
    f4cc:	7d86 7d86 7d86 7d86 7d86 7d86 7d86 7d86     .}.}.}.}.}.}.}.}
    f4dc:	7d86 7d86 7d86 7d86 7d86 7d86 7d86 7d86     .}.}.}.}.}.}.}.}
    f4ec:	7e7e 7d86 7e76 5d1d 7f05 5e05 5d05 5d05     ~~.}v~.]...^.].]
    f4fc:	5d05 5d05 5d05 5d05 5d05 5d05 5d05 5d05     .].].].].].].].]
    f50c:	5d05 5d05 5d05 5d05 5d05 5d05 5d05 5d05     .].].].].].].].]
    f51c:	5d05 5d05 5d05 5d05 7c05 5e05 7d05 7c05     .].].].].|.^.}.|
    f52c:	3e0d 5e05 5a1d bfcf feff feff feff feff     .>.^.Z..........
    f53c:	feff feff feff feff feff feff feff feff     ................
    f54c:	feff feff feff feff feff feff feff feff     ................
    f55c:	feff feff feff feff ffff ffff ffef fdff     ................
    f56c:	dff7 ffff dfff ffff dfff ffff ffff ffff     ................
    f57c:	ffff fff7 ffff fff7 ffff ffff ffff ffff     ................
    f58c:	ffff ffff ffff ffff ffff ffff ffff ffff     ................
    f59c:	ffff ffff ffff ffff ffff ffff ffff ffff     ................
    f5ac:	ffff ffff ffff ffff feff feff ffe7 7c3d     ..............=|
    f5bc:	5e05 5d05 5d05 5e05 5d05 5d05 5d05 5d05     .^.].].^.].].].]
    f5cc:	5d05 5d05 5d05 5d05 5d05 5d05 5d05 5d05     .].].].].].].].]
    f5dc:	5d05 5d05 5d05 5d05 5d05 5d05 5d05 5d05     .].].].].].].].]
    f5ec:	5e05 5d05 5d05 9d05 3d0d 3f05 5c15 5fd7     .^.].]...=.?.\._
    f5fc:	ffff ffff ffff ffff ffff ffff ffff ffff     ................
    f60c:	ffff ffff ffff ffff ffff ffff ffff ffff     ................
    f61c:	ffff ffff ffff ffff ffff ffff ffff ffff     ................
    f62c:	ffff ffff ffff ffff ffff feff ffff dfff     ................
    f63c:	ffff ffff ffff ffff ffff ffff ffff fff7     ................
    f64c:	ffff ffff ffff ffff ffff ffff ffff ffff     ................
    f65c:	ffff ffff ffff ffff ffff ffff ffff ffff     ................
    f66c:	ffff ffff ffff ffff ffff ffff ffff ffff     ................
    f67c:	dfff ffff dee7 9d2d 3c05 5d05 7d05 5d05     ......-..<.].}.]
    f68c:	5d05 5d05 5d05 5d05 5d05 5d05 5d05 5d05     .].].].].].].].]
    f69c:	5d05 5d05 5d05 5d05 5d05 5d05 5d05 5d05     .].].].].].].].]
    f6ac:	5d05 5d05 5d05 5d05 5e05 7d05 5e05 5d05     .].].].].^.}.^.]
    f6bc:	3d05 5f05 5a15 5edf ffff ffff ffff ffff     .=._.Z.^........
    f6cc:	ffff ffff ffff ffff ffff ffff ffff ffff     ................
    f6dc:	ffff ffff ffff ffff ffff ffff ffff ffff     ................
    f6ec:	ffff ffff ffff ffff feff ffff ffff dfff     ................
    f6fc:	ffff feff ffff dfff ffff ffff ffff ffff     ................
    f70c:	ffff ffff ffff ffff ffff ffff ffff ffff     ................
    f71c:	ffff ffff ffff ffff ffff ffff ffff ffff     ................
    f72c:	ffff ffff ffff ffff ffff ffff ffff ffff     ................
    f73c:	ffff ffff ffff ffff feff ffff bee7 7c25     ..............%|
    f74c:	5d05 5d05 3d05 5d05 5d05 5d05 5d05 5d05     .].].=.].].].].]
    f75c:	5d05 5d05 5d05 5d05 5d05 5d05 5d05 5d05     .].].].].].].].]
    f76c:	5d05 5d05 5d05 5d05 5d05 5d05 5d05 5d05     .].].].].].].].]
    f77c:	3d05 5d05 5e05 5e05 5e0d 7e05 5a15 9fdf     .=.].^.^.^.~.Z..
    f78c:	ffff ffff ffff ffff ffff ffff ffff ffff     ................
    f79c:	ffff ffff ffff ffff ffff ffff ffff ffff     ................
    f7ac:	ffff ffff ffff ffff ffff ffff ffff ffff     ................
    f7bc:	ffff ffff ffff dfff ffff ffff ffff fff7     ................
    f7cc:	ffff fef7 ffff ffff ffff ffff feff deff     ................
    f7dc:	ffff ffff ffff ffff ffff ffff ffff ffff     ................
    f7ec:	ffff ffff ffff ffff ffff ffff ffff ffff     ................
    f7fc:	ffff ffff ffff ffff ffff ffff ffff ffff     ................
    f80c:	feff ffff dfef 7d2d 7e05 5e05 5e05 5e05     ......-}.~.^.^.^
    f81c:	5d05 5d05 5d05 5d05 5d05 5d05 5d05 5d05     .].].].].].].].]
    f82c:	5d05 5d05 5d05 5d05 5d05 5d05 5d05 5d05     .].].].].].].].]
    f83c:	5d05 5d05 5d05 5d05 5e05 5d05 5d05 3d05     .].].].].^.].].=
    f84c:	5d05 7e05 7b0d 1ea7 7fd7 7fd7 7fd7 7fd7     .].~.{..........
    f85c:	7ed7 7ed7 7ed7 7ed7 7fd7 7fd7 7fd7 7fd7     .~.~.~.~........
    f86c:	7fd7 7fd7 7fd7 7fd7 7ed7 7ed7 7ed7 7ed7     .........~.~.~.~
    f87c:	7ed7 7ed7 7ed7 7ed7 9ddf 7fd7 9dd7 ddff     .~.~.~.~........
    f88c:	feff ffff ffff fff7 ffff feff ffff ffff     ................
    f89c:	fff7 ffff ffff 9fcf 7fd7 9fdf 9fdf 9fdf     ................
    f8ac:	9fdf 9fdf 9fdf 7fdf 7fd7 7fd7 7fd7 7fd7     ................
    f8bc:	7fd7 7fd7 7fd7 7fd7 9fdf 9fdf 9fdf 9fdf     ................
    f8cc:	9fdf 9fdf 9fdf 9fdf 7ddf 9ed7 5ebf 7c2d     .........}...^-|
    f8dc:	5d05 5d05 5d05 5e05 5d05 5d05 5d05 5d05     .].].].^.].].].]
    f8ec:	5d05 5d05 5d05 5d05 5d05 5d05 5d05 5d05     .].].].].].].].]
    f8fc:	5d05 5d05 5d05 5d05 5d05 5d05 5d05 5d05     .].].].].].].].]
    f90c:	5e05 7e05 5e05 7d05 5d05 5e05 1c05 3925     .^.~.^.}.].^..%9
    f91c:	5c1d 5c1d 5c15 5c15 5c1d 5c1d 5c15 5c15     .\.\.\.\.\.\.\.\
    f92c:	5c15 5c15 5c15 5c15 5c15 5c15 5c15 5c15     .\.\.\.\.\.\.\.\
    f93c:	5c15 5c15 5c15 5c15 5c15 5c15 5c15 5c15     .\.\.\.\.\.\.\.\
    f94c:	3c15 3d15 db45 dfe7 ffff fff7 ffff ffff     .<.=E...........
    f95c:	ffff ffff ffff ffff ffff ffff 7ee7 7945     .............~Ey
    f96c:	3b15 3b15 5b15 5b15 5b15 3b15 3b15 5b15     .;.;.[.[.[.;.;.[
    f97c:	5b15 5b15 5b15 5b15 5b15 5b15 5b15 5b15     .[.[.[.[.[.[.[.[
    f98c:	5b15 5b15 5b15 5b15 5b15 5b15 5b15 5b15     .[.[.[.[.[.[.[.[
    f99c:	3c15 5c15 7b1d 5e05 5e05 3e05 5d05 5e05     .<.\.{.^.^.>.].^
    f9ac:	5d05 5d05 5d05 5d05 5d05 5d05 5d05 5d05     .].].].].].].].]
    f9bc:	5d05 5d05 5d05 5d05 5d05 5d05 5d05 5d05     .].].].].].].].]
    f9cc:	5d05 5d05 5d05 5d05 5e05 5e05 5d05 7d05     .].].].].^.^.].}
    f9dc:	3c05 5e05 7f05 3c05 5e05 5e05 5e05 5e05     .<.^...<.^.^.^.^
    f9ec:	5e05 5e05 5e05 5e05 5e05 5e05 5e05 5e05     .^.^.^.^.^.^.^.^
    f9fc:	5e05 5e05 5e05 5e05 5e05 5e05 5e05 5e05     .^.^.^.^.^.^.^.^
    fa0c:	5e05 5e05 5e05 5e05 7e05 3e05 bb2d fff7     .^.^.^.^.~.>-...
    fa1c:	feff fff7 ffff ffff dfff ffff ffff ffff     ................
    fa2c:	fff7 ffff bfe7 9c1d 5d05 5d05 5d05 5d05     .........].].].]
    fa3c:	5d05 5d05 5d05 5d05 5d05 5d05 5d05 5d05     .].].].].].].].]
    fa4c:	5d05 5d05 5d05 5d05 5d05 5d05 5d05 5d05     .].].].].].].].]
    fa5c:	5d05 5d05 5d05 5d05 5e0d 7d05 5b05 7e0d     .].].].].^.}.[.~
    fa6c:	3d0d 3d05 5d05 5e05 5d05 5d05 5d05 5d05     .=.=.].^.].].].]
    fa7c:	5d05 5d05 5d05 5d05 5d05 5d05 5d05 5d05     .].].].].].].].]
    fa8c:	5d05 5d05 5d05 5d05 5d05 5d05 5d05 5d05     .].].].].].].].]
    fa9c:	5d05 5d05 5d05 7d05 5d05 3d05 7e05 7e05     .].].].}.].=.~.~
    faac:	5e05 5e05 5d05 5e05 5e05 5e05 7d05 7d05     .^.^.].^.^.^.}.}
    fabc:	5e05 5e05 5e05 5e05 5e05 5e05 5e05 5e05     .^.^.^.^.^.^.^.^
    facc:	7d05 7d05 7d05 7d05 7d05 7d05 7d05 7d05     .}.}.}.}.}.}.}.}
    fadc:	5e05 3f05 bb2d dff7 deff ffff ffff ffff     .^.?-...........
    faec:	ffff ffff fff7 ffff fff7 dfff bfef 9c1d     ................
    fafc:	5d05 5d05 5d05 5d05 5d05 5d05 5d05 5d05     .].].].].].].].]
    fb0c:	5d05 5d05 5d05 5d05 5d05 5d05 5e05 5e05     .].].].].].].^.^
    fb1c:	5d05 5d05 5d05 5d05 5d05 5d05 5d05 5d05     .].].].].].].].]
    fb2c:	3e05 7e05 7d05 5e0d 3d05 5d05 7d05 5d05     .>.~.}.^.=.].}.]
    fb3c:	5d05 5d05 5d05 5d05 5d05 5d05 5d05 5d05     .].].].].].].].]
    fb4c:	5d05 5d05 5d05 5d05 5d05 5d05 5d05 5d05     .].].].].].].].]
    fb5c:	5d05 5d05 5d05 5d05 5d05 5e05 5e05 3d05     .].].].].].^.^.=
    fb6c:	7e05 5e05 5d05 3d05 5e05 5d05 5d05 5d05     .~.^.].=.^.].].]
    fb7c:	5d05 5d05 5d05 5d05 5d05 5d05 5d05 5d05     .].].].].].].].]
    fb8c:	5d05 5d05 5d05 5d05 5d05 5d05 5d05 5d05     .].].].].].].].]
    fb9c:	5d05 5d05 5d05 5d05 7d05 1f05 dc35 bff7     .].].].].}..5...
    fbac:	feff ffff dfff ffff ffff feff ffff ffff     ................
    fbbc:	fff7 ffff beef 9c2d 5d05 5d05 5e05 5e05     ......-..].].^.^
    fbcc:	3e05 5d05 5e05 5d05 5d05 5d05 5e05 5e05     .>.].^.].].].^.^
    fbdc:	5e05 5e05 5e05 5e05 5e05 5e05 5e05 5e05     .^.^.^.^.^.^.^.^
    fbec:	5e05 5e05 5e05 5e05 7e05 5d05 5e05 3d05     .^.^.^.^.~.].^.=
    fbfc:	5e05 5d05 3d05 3d05 5d05 5d05 5d05 5d05     .^.].=.=.].].].]
    fc0c:	5d05 5d05 5d05 5d05 5d05 5d05 5d05 5d05     .].].].].].].].]
    fc1c:	5d05 5d05 5d05 5d05 5d05 5d05 5d05 5d05     .].].].].].].].]
    fc2c:	5d05 5d05 5d05 5d05 5d05 5d05 5d05 5d05     .].].].].].].].]
    fc3c:	5d05 9d05 5d05 5d05 7c05 5d05 5e05 5d0d     .]...].].|.].^.]
    fc4c:	5e05 5e05 5e05 5e05 5e05 5e05 5e05 5e05     .^.^.^.^.^.^.^.^
    fc5c:	5e05 5e05 5e05 5e05 5e05 5e05 5e05 5d05     .^.^.^.^.^.^.^.]
    fc6c:	5e05 5f05 9b3d ffef dfff ffff fff7 feff     .^._=...........
    fc7c:	ffff ffff ffff ffff fff7 ffff bfe7 7d25     ..............%}
    fc8c:	3e05 5e05 3d05 3d05 5d05 5d05 5e05 5e05     .>.^.=.=.].].^.^
    fc9c:	5d05 5d05 5d05 5d05 5d05 5d05 5d05 5d05     .].].].].].].].]
    fcac:	7d05 5e05 5d05 3e05 7e05 3c05 7e0d 5c05     .}.^.].>.~.<.~.\
    fcbc:	5d05 5d05 5d05 5d05 5d05 5d05 5d05 5d05     .].].].].].].].]
    fccc:	5d05 5d05 5d05 5d05 5d05 5d05 5d05 5d05     .].].].].].].].]
    fcdc:	5d05 5d05 5d05 5d05 5d05 5d05 5d05 5d05     .].].].].].].].]
    fcec:	5d05 5d05 5d05 5d05 5d05 5d05 5d05 5d05     .].].].].].].].]
    fcfc:	5d05 5d05 5d05 5d05 5e0d 5d05 3e05 5e05     .].].].].^.].>.^
    fd0c:	5d05 3c05 3d05 1d05 1d05 1d05 1d05 1d05     .].<.=..........
    fd1c:	1d05 1d05 1d05 1d05 1c05 1c05 1c05 3b05     ...............;
    fd2c:	3b05 3b05 3b05 3b05 1b0d 1c05 9a3d ffdf     .;.;.;.;....=...
    fd3c:	ffff ffff feff ffff ffff ffff fff7 ffff     ................
    fd4c:	ffff ffff 7fe7 5b3d 3c05 3c05 3c05 5c05     ......=[.<.<.<.\
    fd5c:	3c05 3b05 5c05 3c05 3c05 3c05 3c05 3c05     .<.;.\.<.<.<.<.<
    fd6c:	3c05 3c05 3c05 3c05 1c0d 3d05 1c0d 1c0d     .<.<.<.<...=....
    fd7c:	1b05 1c15 1e05 9f05 5d05 5d05 5d05 5d05     .........].].].]
    fd8c:	5d05 5d05 5d05 5d05 5d05 5d05 5d05 5d05     .].].].].].].].]
    fd9c:	5d05 5d05 5d05 5d05 5d05 5d05 5d05 5d05     .].].].].].].].]
    fdac:	5d05 5d05 5d05 5d05 5d05 5d05 5d05 5d05     .].].].].].].].]
    fdbc:	5d05 5d05 5d05 5d05 5d05 5d05 5d05 5d05     .].].].].].].].]
    fdcc:	5e05 7d05 5d05 3c05 7e66 1eaf 3eaf 3eaf     .^.}.].<f~...>.>
    fddc:	3daf 3daf 3daf 3daf 3daf 3daf 3daf 3daf     .=.=.=.=.=.=.=.=
    fdec:	1eaf 1eaf 1eaf 1eaf 1eaf 1eaf 1eaf 1eaf     ................
    fdfc:	1db7 1ea7 3cb7 feff ffff ffff ffff ffff     .....<..........
    fe0c:	ffff ffff ffff feff ffff deff deff 1eaf     ................
    fe1c:	1eb7 1eb7 1eb7 3eb7 1eb7 1eb7 1eb7 1eb7     .......>........
    fe2c:	1eb7 1eb7 1eb7 1eb7 1eb7 1eb7 1eb7 1eb7     ................
    fe3c:	1eb7 3eaf 1eaf 3eb7 5eaf 9e7e 5c05 5c05     ...>...>.^~..\.\
    fe4c:	5d05 5d05 5d05 5d05 5d05 5d05 5d05 5d05     .].].].].].].].]
    fe5c:	5d05 5d05 5d05 5d05 5d05 5d05 5d05 5d05     .].].].].].].].]
    fe6c:	5d05 5d05 5d05 5d05 5d05 5d05 5d05 5d05     .].].].].].].].]
    fe7c:	5d05 5d05 5d05 5d05 5d05 5d05 5d05 5d05     .].].].].].].].]
    fe8c:	5d05 5d05 5d05 5d05 5e05 7d05 5d05 fb04     .].].].].^.}.]..
    fe9c:	fe96 ffff feff ffff ffff ffff ffff ffff     ................
    feac:	ffff ffff ffff ffff ffff ffff ffff ffff     ................
    febc:	ffff ffff ffff ffff ffff ffff ffff ffff     ................
    fecc:	dfff ffff ffff ffff ffff ffff fff7 ffff     ................
    fedc:	ffff ffff feff fff7 ffff ffff ffff ffff     ................
    feec:	ffff ffff ffff ffff ffff ffff ffff ffff     ................
    fefc:	ffff ffff ffff ffff ffff ffff ffff ffff     ................
    ff0c:	ffff 7e86 3d0d 3d05 5d05 5d05 5d05 5d05     ...~.=.=.].].].]
    ff1c:	5d05 5d05 5d05 5d05 5d05 5d05 5d05 5d05     .].].].].].].].]
    ff2c:	5d05 5d05 5d05 5d05 5d05 5d05 5d05 5d05     .].].].].].].].]
    ff3c:	5d05 5d05 5d05 5d05 5d05 5d05 5d05 5d05     .].].].].].].].]
    ff4c:	5d05 5d05 5d05 5d05 5d05 5d05 5d05 5d05     .].].].].].].].]
    ff5c:	5e05 3d05 5e05 3c05 fe9e deff fdff ffff     .^.=.^.<........
    ff6c:	ffff ffff ffff ffff ffff ffff ffff ffff     ................
    ff7c:	ffff ffff ffff ffff ffff ffff ffff ffff     ................
    ff8c:	ffff ffff ffff ffff ffff ffff feff ffff     ................
    ff9c:	feff ffff fff7 ffff ffff ffff ffff feff     ................
    ffac:	ffff ffff fff7 fff7 ffff ffff ffff ffff     ................
    ffbc:	ffff ffff ffff ffff ffff ffff ffff ffff     ................
    ffcc:	dfff ffff ffff fff7 fff7 ba45 3d05 5d05     ..........E..=.]
    ffdc:	5d05 5d05 5d05 5d05 5d05 5d05 5d05 5d05     .].].].].].].].]
    ffec:	5d05 5d05 5d05 5d05 5d05 5d05 5d05 5d05     .].].].].].].].]
    fffc:	5d05 5d05 5d05 5d05 5d05 5d05 5d05 5d05     .].].].].].].].]
   1000c:	5d05 5d05 5d05 5d05 5d05 5d05 5d05 5d05     .].].].].].].].]
   1001c:	5d05 5d05 5d05 5d05 7d05 5d05 5e05 3c05     .].].].].}.].^.<
   1002c:	fe8e ffff fff7 fff7 ffff ffff ffff ffff     ................
   1003c:	ffff ffff ffff ffff ffff ffff ffff ffff     ................
   1004c:	ffff ffff ffff ffff fff7 ffff ffff fff7     ................
   1005c:	ffff ffff ffff ffff ffff ffff ffff ffff     ................
   1006c:	dfff fff7 ffff dfff ffff ffff ffff ffff     ................
   1007c:	ffff ffff dfff dfff ffff ffff ffff ffff     ................
   1008c:	ffff ffff ffff ffff ffff ffff dfff ffff     ................
   1009c:	9fcf 5b1d 5f05 7e05 5d05 5d05 5d05 5d05     ...[._.~.].].].]
   100ac:	5d05 5d05 5d05 5d05 5d05 5d05 5d05 5d05     .].].].].].].].]
   100bc:	5d05 5d05 5d05 5d05 5d05 5d05 5d05 5d05     .].].].].].].].]
   100cc:	5d05 5d05 5d05 5d05 5d05 5d05 5d05 5d05     .].].].].].].].]
   100dc:	5d05 5d05 5d05 5d05 5d05 5d05 5d05 5d05     .].].].].].].].]
   100ec:	5d05 7e05 5e05 3a05 1d97 ffff feff ffff     .].~.^.:........
   100fc:	ffff ffff ffff ffff ffff ffff ffff ffff     ................
   1010c:	ffff ffff ffff ffff ffff ffff ffff ffff     ................
   1011c:	fef7 ffff ffff fef7 feff ffff feff feff     ................
   1012c:	feff ffff feff ffff ffff feff ffff ffff     ................
   1013c:	ffff ffff ffff ffff ffff ffff deff ffff     ................
   1014c:	ffff ffff ffff ffff ffff ffff ffff ffff     ................
   1015c:	fff7 ffff dfff ffff bd86 1c05 3f05 5e05     .............?.^
   1016c:	5d05 5d05 5d05 5d05 5d05 5d05 5d05 5d05     .].].].].].].].]
   1017c:	5d05 5d05 5d05 5d05 5d05 5d05 5d05 5d05     .].].].].].].].]
   1018c:	5d05 5d05 5d05 5d05 5d05 5d05 5d05 5d05     .].].].].].].].]
   1019c:	5d05 5d05 5d05 5d05 5d05 5d05 5d05 5d05     .].].].].].].].]
   101ac:	5d05 5d05 5d05 5d05 7d05 5d05 3f05 3c05     .].].].].}.].?.<
   101bc:	5c4e be96 9e8e 9e96 bd8e bd8e bd8e bd8e     N\..............
   101cc:	bd8e bd8e bd8e bd8e bd8e bd8e bd8e bd8e     ................
   101dc:	bd8e bd8e bd8e bd8e bd8e 9d96 9d96 dd86     ................
   101ec:	9d96 be8e be8e be8e 9d96 be8e bd8e 9e96     ................
   101fc:	9d8e bc8e 9e96 be8e 9d96 9d8e bd8e bd8e     ................
   1020c:	be96 9d96 9d96 1faf dfff dfff ffff ffff     ................
   1021c:	ffff ffff ffff ffff ffff ffff dfff ffff     ................
   1022c:	3a46 3d05 3e05 3c0d 5d05 5d05 5d05 5d05     F:.=.>.<.].].].]
   1023c:	5d05 5d05 5d05 5d05 5d05 5d05 5d05 5d05     .].].].].].].].]
   1024c:	5d05 5d05 5d05 5d05 5d05 5d05 5d05 5d05     .].].].].].].].]
   1025c:	5d05 5d05 5d05 5d05 5d05 5d05 5d05 5d05     .].].].].].].].]
   1026c:	5d05 5d05 5d05 5d05 5d05 5d05 5d05 5d05     .].].].].].].].]
   1027c:	5d05 7d05 7d05 5d05 3d05 1d05 fd04 1d05     .].}.}.].=......
   1028c:	1d05 1d05 1d05 1d05 1d05 fd04 fc04 fc04     ................
   1029c:	1d05 1d05 1d05 1d05 1d05 1c05 1c05 1c05     ................
   102ac:	1d05 1d05 1d05 1d05 1d05 1d05 1d05 1d05     ................
   102bc:	1d05 1d05 1d05 1d05 1d05 1d05 1d05 1d05     ................
   102cc:	1d05 1c05 1d05 1c05 1d05 3c05 fb04 ddae     ...........<....
   102dc:	ffff ffff ffff ffff ffff ffff ffff ffff     ................
   102ec:	ffff deff feff 9fd7 7a15 5e05 1d05 7d05     .........z.^...}
   102fc:	5d05 5d05 5d05 5d05 5d05 5d05 5d05 5d05     .].].].].].].].]
   1030c:	5d05 5d05 5d05 5d05 5d05 5d05 5d05 5d05     .].].].].].].].]
   1031c:	5d05 5d05 5d05 5d05 5d05 5d05 5d05 5d05     .].].].].].].].]
   1032c:	5d05 5d05 5d05 5d05 5d05 5d05 5d05 5d05     .].].].].].].].]
   1033c:	5d05 5d05 5d05 5d05 5d05 5d05 5d05 5d05     .].].].].].].].]
   1034c:	5d05 5d05 5d05 5d05 5d05 5d05 5d05 5d05     .].].].].].].].]
   1035c:	5d05 5d05 5d05 3d05 5d05 5d05 5d05 5d05     .].].].=.].].].]
   1036c:	5d05 3d05 3d05 3d05 3d05 3d05 3d05 3d05     .].=.=.=.=.=.=.=
   1037c:	3d05 3d05 3d05 3d05 3d05 3d05 3d05 3d05     .=.=.=.=.=.=.=.=
   1038c:	3d05 3d05 3d05 3d05 5d05 3d05 3d05 3e05     .=.=.=.=.].=.=.>
   1039c:	3e05 3c05 db35 ffe7 ffff ffff ffff ffff     .>.<5...........
   103ac:	ffff ffff ffff ffff ffff ffff ffff bd96     ................
   103bc:	3b0d 5d05 5d05 5d05 5d05 5d05 5d05 5d05     .;.].].].].].].]
   103cc:	5d05 5d05 5d05 5d05 5d05 5d05 5d05 5d05     .].].].].].].].]
   103dc:	5d05 5d05 5d05 5d05 5d05 5d05 5d05 5d05     .].].].].].].].]
   103ec:	5d05 5d05 5d05 5d05 5d05 5d05 5d05 5d05     .].].].].].].].]
   103fc:	5d05 5d05 5d05 5d05 5d05 5d05 5d05 5d05     .].].].].].].].]
   1040c:	3e05 3e05 3e05 5e05 5e05 5e05 5d05 5d05     .>.>.>.^.^.^.].]
   1041c:	5c05 5d05 5d05 5d05 5d05 5d05 7d05 5e05     .\.].].].].].}.^
   1042c:	5d05 5d05 5d05 5d05 5d05 5d05 5d05 5d05     .].].].].].].].]
   1043c:	5d05 5d05 5d05 5d05 5d05 5d05 5d05 5d05     .].].].].].].].]
   1044c:	5d05 5d05 5d05 5d05 5d05 5d05 5d05 5d05     .].].].].].].].]
   1045c:	5e0d 5d05 5d05 3e05 3e05 1b05 9b86 ffff     .^.].].>.>......
   1046c:	ffff ffff ffff ffff ffff ffff ffff ffff     ................
   1047c:	ffff ffff fff7 db45 1d05 5c05 7d05 5d05     ......E....\.}.]
   1048c:	5d05 5d05 5d05 5d05 5d05 5d05 5d05 5d05     .].].].].].].].]
   1049c:	5d05 5d05 5d05 5d05 5d05 5d05 5d05 5d05     .].].].].].].].]
   104ac:	5d05 5d05 5d05 5d05 5d05 5d05 5d05 5d05     .].].].].].].].]
   104bc:	5d05 5d05 5d05 5d05 5d05 5d05 5d05 5d05     .].].].].].].].]
   104cc:	5d05 5d05 5d05 5e05 7e05 7e05 5e05 7d05     .].].].^.~.~.^.}
   104dc:	7e05 5e05 5e05 5e05 7e05 5e05 5e05 5e05     .~.^.^.^.~.^.^.^
   104ec:	5d05 5e05 5e05 5e05 5d05 5d05 5d05 5d05     .].^.^.^.].].].]
   104fc:	5d05 5d05 5d05 5d05 5d05 5d05 5d05 5d05     .].].].].].].].]
   1050c:	5d05 5d05 5d05 5d05 5d05 5d05 5d05 5d05     .].].].].].].].]
   1051c:	5d05 5d05 5d05 5d05 3e05 5e05 9d05 3d05     .].].].].>.^...=
   1052c:	3d05 7b1d 9dd7 ffff ffff ffff ffff ffff     .=.{............
   1053c:	ffff ffff ffff ffff ffff ffff 5fc7 7c15     ............._.|
   1054c:	1e05 7d05 5d05 5e05 5d05 5d05 5d05 5d05     ...}.].^.].].].]
   1055c:	5d05 5d05 5d05 5d05 5d05 5d05 5d05 5d05     .].].].].].].].]
   1056c:	5d05 5d05 5d05 5d05 5d05 5d05 5d05 5d05     .].].].].].].].]
   1057c:	5d05 5d05 5d05 5d05 5d05 5d05 5d05 5d05     .].].].].].].].]
   1058c:	5d05 5d05 5d05 5d05 5d05 5d05 5e05 5e05     .].].].].].].^.^
   1059c:	5c05 5d05 5d05 5d05 5d05 5d05 5d05 5d05     .\.].].].].].].]
   105ac:	5d05 5d05 5d05 5d05 5d05 5d05 5d05 5d05     .].].].].].].].]
   105bc:	5d05 5d05 5d05 5d05 5d05 5d05 5d05 5d05     .].].].].].].].]
   105cc:	5e05 5e05 5e05 5e05 5e05 5e05 5e05 5e05     .^.^.^.^.^.^.^.^
   105dc:	5e05 5e05 5e05 5e05 5e05 5e05 5e05 5e05     .^.^.^.^.^.^.^.^
   105ec:	5f05 3d0d 7d05 7d0d 1d05 3c66 ffff fff7     ._.=.}.}..f<....
   105fc:	ffff ffff ffff ffff ffff ffff ffff ffff     ................
   1060c:	ffff feff 5d76 3d05 5e05 7e05 5d05 5e05     ....v].=.^.~.].^
   1061c:	5d05 5d05 5d05 5d05 5d05 5d05 5d05 5d05     .].].].].].].].]
   1062c:	5d05 5d05 5d05 5d05 5d05 5d05 5d05 5d05     .].].].].].].].]
   1063c:	5d05 5d05 5d05 5d05 5d05 5d05 5d05 5d05     .].].].].].].].]
   1064c:	5d05 5d05 5d05 5d05 5d05 5d05 5d05 5d05     .].].].].].].].]
   1065c:	5d05 5e05 5e05 5e05 3d05 5d05 5e05 5e05     .].^.^.^.=.].^.^
   1066c:	5e05 5e05 5e05 7e05 7d05 5d05 5d05 5d05     .^.^.^.~.}.].].]
   1067c:	5d05 5d05 5d05 5d05 5d05 5d05 5d05 5d05     .].].].].].].].]
   1068c:	5d05 5d05 5d05 5d05 5d05 5d05 5d05 5d05     .].].].].].].].]
   1069c:	5d05 5d05 5d05 5d05 5d05 5d05 5d05 5d05     .].].].].].].].]
   106ac:	5d05 5d05 5d05 5d05 7e05 5c05 5e05 5e05     .].].].].~.\.^.^
   106bc:	db0c 1faf ffff fff7 ffff ffff ffff ffff     ................
   106cc:	ffff ffff ffff ffff ffff ffe7 7b2d 1d05     ............-{..
   106dc:	7d05 5e05 5d05 3e05 5d05 5d05 5d05 5d05     .}.^.].>.].].].]
   106ec:	5d05 5d05 5d05 5d05 5d05 5d05 5d05 5d05     .].].].].].].].]
   106fc:	5d05 5d05 5d05 5d05 5d05 5d05 5d05 5d05     .].].].].].].].]
   1070c:	5d05 5d05 5d05 5d05 5d05 5d05 5d05 5d05     .].].].].].].].]
   1071c:	5d05 5d05 5d05 5d05 5d05 5d05 5d05 3d05     .].].].].].].].=
   1072c:	7e05 5e05 5e05 5d05 5d05 3d05 1c05 1c05     .~.^.^.].].=....
   1073c:	3d05 3d05 3d05 3d05 3d05 5e05 5e05 5e05     .=.=.=.=.=.^.^.^
   1074c:	5d05 5d05 5e05 5e05 5e05 5e05 5e05 5e05     .].].^.^.^.^.^.^
   1075c:	5d05 5d05 5d05 5d05 5d05 5d05 5d05 5d05     .].].].].].].].]
   1076c:	5d05 5d05 5d05 5d05 5d05 5d05 5d05 5d05     .].].].].].].].]
   1077c:	5d05 7c05 5e05 1d05 9b45 dfef ffff ffff     .].|.^..E.......
   1078c:	ffff ffff ffff ffff ffff ffff ffff ffff     ................
   1079c:	ffff 1f9f 3c05 5d05 7d05 5d05 5d05 5d05     .....<.].}.].].]
   107ac:	5d05 5d05 5d05 5d05 5d05 5d05 5d05 5d05     .].].].].].].].]
   107bc:	5d05 5d05 5d05 5d05 5d05 5d05 5d05 5d05     .].].].].].].].]
   107cc:	5d05 5d05 5d05 5d05 5d05 5d05 5d05 5d05     .].].].].].].].]
   107dc:	5d05 5d05 5d05 5d05 5d05 5d05 5d05 5e05     .].].].].].].].^
   107ec:	5d05 5d05 3d05 3d05 3c05 3c05 3c0d 5d1d     .].].=.=.<.<.<.]
   107fc:	9d2d be3d be45 bd4d dc45 dc45 dd3d bd3d     -.=.E.M.E.E.=.=.
   1080c:	9d2d 7d25 3c1d 1c15 1d05 1d05 3d05 3d05     -.%}.<.......=.=
   1081c:	3e05 5e05 5e05 5e05 5e05 5e05 5e05 5e05     .>.^.^.^.^.^.^.^
   1082c:	5e05 5e05 5e05 5e05 5e05 5e05 5e05 5e05     .^.^.^.^.^.^.^.^
   1083c:	5e05 5e05 5e05 5e05 5e05 7d05 7d05 3d05     .^.^.^.^.^.}.}.=
   1084c:	bd8e ffff dfff ffff ffff ffff ffff ffff     ................
   1085c:	ffff ffff ffff ffff dfff dc55 3d05 7e05     ..........U..=.~
   1086c:	5d05 7d05 7d05 5d05 5d05 5d05 5d05 5d05     .].}.}.].].].].]
   1087c:	5d05 5d05 5d05 5d05 5d05 5d05 5d05 5d05     .].].].].].].].]
   1088c:	5d05 5d05 5d05 5d05 5d05 5d05 5d05 5d05     .].].].].].].].]
   1089c:	3e05 5f05 5d05 9c05 7d05 3d05 7d05 7c05     .>._.]...}.=.}.|
   108ac:	3d05 7d05 5d05 5e05 3d05 3b05 7b2d dd5d     .=.}.].^.=.;-{].
   108bc:	9d86 1ea7 7ec7 9edf beef dff7 fff7 fff7     .....~..........
   108cc:	fff7 fff7 fff7 fff7 dfef bfe7 9ed7 5dc7     ...............]
   108dc:	1e9f bd8e 5b76 db55 7a35 3b1d 3c05 5d05     ....v[U.5z.;.<.]
   108ec:	5d05 5d05 5d05 5e05 7d05 5d05 5d05 5e0d     .].].].^.}.].].^
   108fc:	5d05 5e05 5e05 5e05 5e05 3d05 3d05 5d05     .].^.^.^.^.=.=.]
   1090c:	5e05 3e0d 5d05 7b15 dfe7 feff fff7 ffff     .^.>.].{........
   1091c:	ffff ffff ffff ffff dfff ffff dfff ffff     ................
   1092c:	9db7 3b15 5e05 5d05 7e05 7d05 3d05 5e05     ...;.^.].~.}.=.^
   1093c:	5d05 5d05 5d05 5d05 5d05 5d05 5d05 5d05     .].].].].].].].]
   1094c:	5d05 5d05 5d05 5d05 5d05 5d05 5d05 5d05     .].].].].].].].]
   1095c:	5d05 5d05 5d05 5d05 5e05 7d05 7d05 3d05     .].].].].^.}.}.=
   1096c:	3d05 7e05 3e05 5d05 5e05 7e05 3c05 7b15     .=.~.>.].^.~.<.{
   1097c:	7d5e 3ea7 bfdf ffff ffff ffff feff feff     ^}.>............
   1098c:	feff feff feff deff ffff ffff ffff ffff     ................
   1099c:	ffff ffff ffff ffff ffff ffff ffff ffff     ................
   109ac:	bfef 7ec7 fd9e 7c7e fc4d 9c2d 3c0d fd04     ...~..~|M.-..<..
   109bc:	1d05 3e05 5e05 5e05 5d05 5d05 5d05 3d05     ...>.^.^.].].].=
   109cc:	5d05 5d05 7d05 7d05 5d05 5d05 3d05 7d66     .].].}.}.].].=f}
   109dc:	ffff ffff ffff ffff dfff ffff fff7 ffff     ................
   109ec:	ffff ffff ffff ffff 5b6e 3c05 7e05 5d05     ........n[.<.~.]
   109fc:	5d05 5d05 5e05 5e05 5d05 5d05 5d05 5d05     .].].^.^.].].].]
   10a0c:	5d05 5d05 5d05 5d05 5d05 5d05 5d05 5d05     .].].].].].].].]
   10a1c:	5d05 5d05 5d05 5d05 5d05 5d05 5d05 5d05     .].].].].].].].]
   10a2c:	7d05 7d05 7e05 5e0d 5e05 5e05 3e05 5f05     .}.}.~.^.^.^.>._
   10a3c:	5c05 391d 3b76 bfd7 ffff dfff ffff ffff     .\.9v;..........
   10a4c:	ffff ffff ffff ffff ffff ffff dfff ffff     ................
   10a5c:	ffff ffff ffff ffff ffff ffff ffff ffff     ................
   10a6c:	deff ffff ffff ffff ffff ffff ffff ffff     ................
   10a7c:	def7 9ee7 1ec7 7d86 dc45 7c15 3c05 3d05     .......}E..|.<.=
   10a8c:	5d05 5e05 7e05 9d05 7d05 5d05 5e05 3e05     .].^.~...}.].^.>
   10a9c:	5d05 5c05 3c05 3eb7 ffff bfff ffff ffff     .].\.<.>........
   10aac:	ffff feff fff7 ffff fff7 ffff ffff 9edf     ................
   10abc:	3b25 7d05 7e05 5e05 5d05 5c05 5e05 5d05     %;.}.~.^.].\.^.]
   10acc:	5d05 5d05 5d05 5d05 5d05 5d05 5d05 5d05     .].].].].].].].]
   10adc:	5d05 5d05 5d05 5d05 5d05 5d05 5d05 5d05     .].].].].].].].]
   10aec:	5d05 5d05 5d05 5d05 7d05 3e05 5e05 5d05     .].].].].}.>.^.]
   10afc:	3d05 7e05 7c05 fc04 fb55 7fbf ffff deff     .=.~.|..U.......
   10b0c:	ffff ffff dfff fef7 ffff dfff ffff ffff     ................
   10b1c:	ffff ffff ffff feff fff7 ffff ffff ffff     ................
   10b2c:	ffff ffff ffff ffff ffff ffff fff7 fff7     ................
   10b3c:	ffff ffff ffff feff feff ffff ffff ffff     ................
   10b4c:	ffff bed7 1d9f 7c76 9d25 3c0d 1c05 5d05     ......v|%..<...]
   10b5c:	5e05 5e05 5e05 5e05 5f05 3d05 1c3e ffef     .^.^.^.^._.=>...
   10b6c:	ffff ffff ffff feff ffff feff ffff ffff     ................
   10b7c:	ffff ffff ffff 7c86 1d05 9e05 5d05 5e05     .......|.....].^
   10b8c:	7d05 5c05 3e05 5d05 5d05 5d05 5d05 5d05     .}.\.>.].].].].]
   10b9c:	5d05 5d05 5d05 5d05 5d05 5d05 5d05 5d05     .].].].].].].].]
   10bac:	5d05 5d05 5d05 5d05 5d05 5d05 5d05 5d05     .].].].].].].].]
   10bbc:	3d05 5e05 7e05 5d05 5d05 7d05 5a05 5c7e     .=.^.~.].].}.Z~\
   10bcc:	dff7 ffff dfff fff7 fff7 fff7 deff dfff     ................
   10bdc:	ffff ffff ffff fff7 fff7 fff7 ffff ffff     ................
   10bec:	ffff ffff ffff ffff ffff ffff ffff dfff     ................
   10bfc:	fff7 fff7 ffff ffff ffff ffff ffff ffff     ................
   10c0c:	ffff ffff ffff feff ffff ffff ffff ffff     ................
   10c1c:	dfef 1eb7 5e76 be35 3d0d 1c05 3d05 5d05     ....v^5..=...=.]
   10c2c:	3e05 3c05 3d97 ffff deff ffff ffff ffff     .>.<.=..........
   10c3c:	ffff ffff ffff ffff ffff feff dfe7 5c2d     ..............-\
   10c4c:	5e05 7d05 3d05 5e05 7c05 5d05 3e05 7d05     .^.}.=.^.|.].>.}
   10c5c:	5d05 5d05 5d05 5d05 5d05 5d05 5d05 5d05     .].].].].].].].]
   10c6c:	5d05 5d05 5d05 5d05 5d05 5d05 5d05 5d05     .].].].].].].].]
   10c7c:	5d05 5d05 5d05 5d05 3d05 7e05 5d05 7e05     .].].].].=.~.].~
   10c8c:	3d05 5c0d 5c7e fff7 deff ffff dfff ffff     .=.\~\..........
   10c9c:	ffff dfff ffff fff7 ffff ffff ffff ffff     ................
   10cac:	ffff ffff ffff dfff ffff ffff ffff ffff     ................
   10cbc:	ffff ffff ffff ffff ffff ffff fff7 fff7     ................
   10ccc:	ffff dfff dfff ffff fff7 ffff ffff dfff     ................
   10cdc:	dfff feff ffff ffff feff ffff ffff dfef     ................
   10cec:	3ebf 7d7e dc3d 3b0d 1b0d 7a25 fed7 ffff     .>~}=..;..%z....
   10cfc:	ffff ffff ffff ffff ffff fff7 ffff ffff     ................
   10d0c:	ffff ffff dd8e 1d05 5e05 5c05 5d05 3d05     .........^.\.].=
   10d1c:	5c05 7e05 3d05 5d05 5d05 5d05 5d05 5d05     .\.~.=.].].].].]
   10d2c:	5d05 5d05 5d05 5d05 5d05 5d05 5d05 5d05     .].].].].].].].]
   10d3c:	5d05 5d05 5d05 5d05 5d05 5d05 5d05 5d05     .].].].].].].].]
   10d4c:	7e05 5d05 5d05 5e05 fc04 5e7e ffff feff     .~.].].^..~^....
   10d5c:	ffff ffff fff7 ffff ffff ffff ffff ffff     ................
   10d6c:	ffff ffff dff7 bfe7 9fd7 7ecf 7dc7 7dc7     ...........~.}.}
   10d7c:	7ecf 9ed7 bfe7 fff7 ffff ffff ffff ffff     .~..............
   10d8c:	feff feff feff ffff ffff ffff ffff fef7     ................
   10d9c:	ffff ffff ffff ffff ffff ffff ffff dfff     ................
   10dac:	ffff fff7 ffff ffff ffff ffff dfe7 5dcf     ...............]
   10dbc:	9c7e bc96 ffff dfff ffff feff ffff ffff     ~...............
   10dcc:	ffff ffff ffff ffff ffff 9fd7 9b2d 3e05     ............-..>
   10ddc:	5d05 5d05 5e05 3d05 5d05 5e05 3d05 5d05     .].].^.=.].^.=.]
   10dec:	5d05 5d05 5d05 5d05 5d05 5d05 5d05 5d05     .].].].].].].].]
   10dfc:	5d05 5d05 5d05 5d05 5d05 5d05 5d05 5d05     .].].].].].].].]
   10e0c:	5d05 5d05 5d05 5d05 5d05 5c05 7e05 1e05     .].].].].].\.~..
   10e1c:	bc55 dfe7 ffff fff7 feff ffff ffff ffff     U...............
   10e2c:	feff feff dfe7 3ecf 9d8e 1c6e bc3d 7c25     .......>..n.=.%|
   10e3c:	5c0d 5c05 5c0d 3b0d 5c0d 5b0d 7b1d ba35     .\.\.\.;.\.[.{5.
   10e4c:	1a56 7b7e fda6 5ebf dfef fff7 ffff ffff     V.~{...^........
   10e5c:	ffff dfff ffff ffff ffff ffff ffff ffff     ................
   10e6c:	ffff ffff ffff ffff feff ffff ffff ffff     ................
   10e7c:	dfff ffff ffff ffff ffff ffff dfff fff7     ................
   10e8c:	fff7 fef7 ffff ffff ffff ffff dfff fff7     ................
   10e9c:	ffff be96 1c05 5c05 5d05 3d05 5f05 5e05     .......\.].=._.^
   10eac:	7e05 5e05 5d05 7e05 5d05 5d05 5d05 5d05     .~.^.].~.].].].]
   10ebc:	5d05 5d05 5d05 5d05 5d05 5d05 5d05 5d05     .].].].].].].].]
   10ecc:	5d05 5d05 5d05 5d05 5d05 5d05 5d05 5d05     .].].].].].].].]
   10edc:	7d05 5d05 3e05 3b1d 7dcf feff feff dfff     .}.].>.;.}......
   10eec:	feff ffff dfff ffff bed7 bd86 dc35 7d05     ............5..}
   10efc:	3d05 3d05 3d05 3d05 3d05 5d05 5d05 5d05     .=.=.=.=.=.].].]
   10f0c:	5c05 5d05 3d05 3d05 3d05 3d05 3d05 3d05     .\.].=.=.=.=.=.=
   10f1c:	7a35 fc5d bd96 7fcf fff7 ffff ffff ffff     5z].............
   10f2c:	fff7 ffff ffff ffff ffff ffff ffff fff7     ................
   10f3c:	ffff deff ffff ffff ffff dfff ffff ffff     ................
   10f4c:	ffff ffff ffff ffff ffff ffff ffff ffff     ................
   10f5c:	ffff ffff ffff feff ffd7 5b35 3d05 5d05     ..........5[.=.]
   10f6c:	5d05 3d05 3d05 5d05 7c05 7c05 5d05 3d05     .].=.=.].|.|.].=
   10f7c:	3e05 5e05 5d05 5d05 7d05 5d05 5e05 3e05     .>.^.].].}.].^.>
   10f8c:	5d05 5d05 5d05 5d05 5d05 5d05 5d05 5d05     .].].].].].].].]
   10f9c:	5d05 5d05 5d05 5d05 5d05 5d05 3d05 9d86     .].].].].].].=..
   10fac:	fef7 ffff ffff ffff ffef ffff dfe7 9e86     ................
   10fbc:	5b2d 5a05 7c05 5e05 5d05 5d05 5d05 5d05     -[.Z.|.^.].].].]
   10fcc:	5d05 5d05 5d05 5d05 5d05 5d05 5d05 5e05     .].].].].].].].^
   10fdc:	5d05 5d05 3d05 5d05 3f05 1e05 1c05 7c15     .].].=.].?.....|
   10fec:	fc45 7c86 3cc7 fdff dfff ffff ffff ffff     E..|.<..........
   10ffc:	ffff fff7 ffff ffff fff7 fff7 ffff feff     ................
   1100c:	ffff fff7 fff7 ffff ffff ffff ffff ffff     ................
   1101c:	ffff ffff ffff ffff fff7 fff7 feff fff7     ................
   1102c:	3c7e dc04 7f05 7f05 3c0d 3d0d 5e05 5e05     ~<.......<.=.^.^
   1103c:	5d05 5d05 7d05 7e05 7d05 9d05 7c05 5d05     .].].}.~.}...|.]
   1104c:	5e05 3e05 7e05 7c05 5d05 5d05 5d05 5d05     .^.>.~.|.].].].]
   1105c:	5d05 5d05 5d05 5d05 5d05 5d05 5d05 5d05     .].].].].].].].]
   1106c:	5d05 5e05 9c2d 9ee7 feff ffff fff7 deff     .].^-...........
   1107c:	dfff 9fcf bb4d 1b05 3e05 3e05 9f05 5e05     ....M....>.>...^
   1108c:	5d05 5d05 5d05 5d05 5d05 5d05 5d05 5d05     .].].].].].].].]
   1109c:	5d05 5e05 5e05 5e05 5e05 5e05 5e05 5e05     .].^.^.^.^.^.^.^
   110ac:	5d05 7d05 5e05 3e05 1e05 fd04 5c1d dd35     .].}.^.>.....\5.
   110bc:	1e87 dfcf ffff dfff ffff ffff def7 ffff     ................
   110cc:	ffff fff7 ffff ffff ffff ffff ffff ffff     ................
   110dc:	ffff ffff ffff ffff ffff ffff ffff ffff     ................
   110ec:	feff ffff feff fff7 dda6 1c56 9c25 1a0d     ..........V.%...
   110fc:	5d05 5d05 5d05 7e05 5e05 5e05 5e05 5e05     .].].].~.^.^.^.^
   1110c:	5e05 5d05 5d05 5d05 5e05 5e0d 5e05 5d05     .^.].].].^.^.^.]
   1111c:	5d05 5d05 5d05 5d05 5d05 5d05 5d05 5d05     .].].].].].].].]
   1112c:	5d05 5d05 5d05 5d05 5e05 fd04 9d86 feff     .].].].].^......
   1113c:	beff feff ffff ffff 3ec7 3a3d 1d05 5e05     .........>=:...^
   1114c:	5d05 7f0d 1e05 7e05 5d05 5d05 5d05 5d05     .].....~.].].].]
   1115c:	5d05 5d05 5d05 5d05 5e05 5e05 5e05 5e05     .].].].].^.^.^.^
   1116c:	5e05 5e05 5e05 5e05 5d05 5d05 5d05 5e05     .^.^.^.^.].].].^
   1117c:	5e05 3d05 3d05 7d05 3c05 5c1d 5d66 5dc7     .^.=.=.}.<.\f].]
   1118c:	deff feff ffff ffff ffff ffff ffff ffff     ................
   1119c:	ffff ffff ffff dfff ffff ffff ffff ffff     ................
   111ac:	ffff ffff ffff ffff ffff ffff ffff ffff     ................
   111bc:	ffff def7 9fdf feb6 3c56 9c2d 5c05 5d05     ........V<-..\.]
   111cc:	5d05 5d0d 5d05 5d05 3d05 5d05 5e05 5e05     .].].].].=.].^.^
   111dc:	5d05 5d05 5d05 7d05 5d05 5d05 5d05 5d05     .].].].}.].].].]
   111ec:	5d05 5d05 5d05 5d05 5d05 5d05 5d05 5d05     .].].].].].].].]
   111fc:	5e05 1b1d bed7 ffff dff7 feff ffff 5fcf     .^............._
   1120c:	7a1d 3b05 5d05 3d0d 3c05 7d05 7d05 5d0d     .z.;.].=.<.}.}.]
   1121c:	5d05 5d05 5d05 5d05 5d05 5d05 5d05 5d05     .].].].].].].].]
   1122c:	5e05 5e05 5d05 5d05 5d05 5e05 5e05 5d05     .^.^.].].].^.^.]
   1123c:	7d05 5d05 5c05 5c05 7d05 7d05 5c05 5b05     .}.].\.\.}.}.\.[
   1124c:	5e05 5d05 3b05 3b15 db55 1eb7 fff7 ffff     .^.].;.;U.......
   1125c:	dfff feff feff ffff ffff fff7 fff7 ffff     ................
   1126c:	ffff ffff ffff ffff ffff ffff ffff ffff     ................
   1127c:	ffff ffff ffff ffff ffff ffff ffff ffef     ................
   1128c:	ffff bedf 1d9f 7c66 9c2d 3c0d 3d05 5e05     ......f|-..<.=.^
   1129c:	5f05 5d05 5c05 7c05 7d05 5d05 5d05 5c0d     ._.].\.|.}.].].\
   112ac:	5d05 5d05 5d05 5d05 5d05 5d05 5d05 5d05     .].].].].].].].]
   112bc:	5d05 5d05 5d05 5d05 3e05 fb55 fff7 dfff     .].].].].>U.....
   112cc:	ffff ffff bfe7 db4d 7d05 5d05 3c05 5e05     ......M..}.].<.^
   112dc:	5e05 5e05 7e05 5d05 5d05 5d05 5d05 5d05     .^.^.~.].].].].]
   112ec:	5d05 5d05 5d05 5d05 5e05 5e05 5d05 5d05     .].].].].^.^.].]
   112fc:	5d05 5e05 5d05 5e05 3d05 5d05 7d05 5d05     .].^.].^.=.].}.]
   1130c:	5d05 5d05 5d05 5d05 5c05 7e05 3e05 3e05     .].].].].\.~.>.>
   1131c:	5e05 3c05 bb4d fda6 ffef ffff deff feff     .^.<M...........
   1132c:	ffff ffff dfff fff7 ffff ffff ffff ffff     ................
   1133c:	ffff ffff ffff ffff ffff ffff ffff dff7     ................
   1134c:	ffff dfff dfff ffff feff ffff ffff ffff     ................
   1135c:	9fe7 fdb6 3c6e 9b35 1c0d 3c05 5c05 7d05     ....n<5....<.\.}
   1136c:	5e05 3f05 3e05 5e05 5d05 5d05 5d05 5d05     .^.?.>.^.].].].]
   1137c:	5d05 5d05 5d05 5d05 5d05 5d05 5d05 5d05     .].].].].].].].]
   1138c:	1c05 dc96 ffff dff7 ffff ffff bd8e 1c05     ................
   1139c:	3d05 5e0d 5d05 5d05 3e05 1d05 3e05 5e05     .=.^.].].>...>.^
   113ac:	5d05 5d05 5d05 5e05 5e05 5e05 5d05 5e05     .].].].^.^.^.].^
   113bc:	5e05 5e05 5d05 5d05 5d05 5d05 5d05 5d05     .^.^.].].].].].]
   113cc:	5f05 5e05 5d05 5d05 5d05 5e05 5e05 3e05     ._.^.].].].^.^.>
   113dc:	5e05 3d05 3c05 5e05 5e05 3d05 1d05 3d05     .^.=.<.^.^.=...=
   113ec:	da45 ffa6 bff7 ffff fef7 ffff ffff ffff     E...............
   113fc:	ffff ffff ffff ffff ffff ffff ffff ffff     ................
   1140c:	ffff ffff fff7 fff7 ffff ffff fff7 fff7     ................
   1141c:	ffff ffff dfff ffff ffff ffff ffff bfef     ................
   1142c:	1fb7 7d76 dc2d 5b05 3d05 5e05 5e05 7e05     ..v}-..[.=.^.^.~
   1143c:	5d05 5d05 5d05 5d05 5d05 5d05 5d05 5d05     .].].].].].].].]
   1144c:	5d05 5d05 5d05 5d05 5c05 3ebf ffff fff7     .].].].].\.>....
   1145c:	feff bfef 7b25 7f05 1e05 5d05 5c05 7d05     ....%{.....].\.}
   1146c:	7e05 7e05 5d05 5d05 5d05 5d05 5d05 5d05     .~.~.].].].].].]
   1147c:	5d05 5d05 5e05 5e05 5e05 5e05 5d05 5d05     .].].^.^.^.^.].]
   1148c:	5d05 5d05 5d05 5d05 5d05 5d05 7d05 7d05     .].].].].].].}.}
   1149c:	5d05 3e05 5e05 7e05 5d05 7d05 7e05 5e05     .].>.^.~.].}.~.^
   114ac:	5e05 5f05 5e05 5d05 5f05 3b05 fa55 7ed7     .^._.^.]._.;U..~
   114bc:	ffff ffff fff7 ffff ffff ffff ffff ffff     ................
   114cc:	ffff ffff ffff ffff dfff dfff ffff ffff     ................
   114dc:	ffff ffff ffff feff ffff ffff ffff ffff     ................
   114ec:	ffff ffff ffff ffff ffff ffff dfef 3ebf     ...............>
   114fc:	3d7e 7c3d 1c0d 3c05 5d05 5d05 5d05 5d05     ~==|...<.].].].]
   1150c:	5d05 5d05 5d05 5d05 5d05 5d05 5d05 5d05     .].].].].].].].]
   1151c:	3c15 bfcf feff ffff ffff de9e 1c05 7e05     .<.............~
   1152c:	5d05 5d05 5d05 5d05 5d05 5d05 5d05 5d05     .].].].].].].].]
   1153c:	5d05 5d05 5d05 5d05 5d05 5d05 5d05 5d05     .].].].].].].].]
   1154c:	5d05 5d05 5d05 5d05 5d05 5d05 5d05 5d05     .].].].].].].].]
   1155c:	5d05 5d05 5d05 5d05 5d05 5d05 5d05 5d05     .].].].].].].].]
   1156c:	5e05 7d05 5d05 3e05 5e05 7d05 3d05 5d05     .^.}.].>.^.}.=.]
   1157c:	1f05 1e05 5a3d bfe7 dfff ffff feff feff     ....=Z..........
   1158c:	fff7 ffff ffff fef7 ffff ffff ffff feff     ................
   1159c:	dfff ffff feff fef7 ffff ffff ffff fff7     ................
   115ac:	ffff ffff ffff ffff ffff ffff ffff ffff     ................
   115bc:	ffff ffff feff feff ffff dfef 3ebf 7c8e     .............>.|
   115cc:	bd25 5d15 3d05 3e05 3e05 5e05 7e05 7e05     %..].=.>.>.^.~.~
   115dc:	5d05 5d05 5e05 5e05 9d25 ffdf feff ffff     .].].^.^%.......
   115ec:	ffff 3c6e fc04 5d05 5d05 5d05 5d05 5d05     ..n<...].].].].]
   115fc:	5d05 5d05 5d05 5d05 5d05 5d05 5d05 5d05     .].].].].].].].]
   1160c:	5d05 5d05 5d05 5d05 5d05 5d05 5d05 5d05     .].].].].].].].]
   1161c:	5d05 5d05 5d05 5d05 5d05 5d05 5d05 5d05     .].].].].].].].]
   1162c:	5d05 5d05 5d05 5d05 5d05 5d0d 5d05 7e05     .].].].].].].].~
   1163c:	7e05 3d05 5d05 5d05 5f05 1a25 5fb7 ffff     .~.=.].]._%.._..
   1164c:	deff ffff ffff ffff ffff dfff ffff ffff     ................
   1165c:	fff7 ffff dfff ffff ffff ffff ffff ffff     ................
   1166c:	ffff deff beff dfff ffff ffff ffff ffff     ................
   1167c:	ffff ffff ffff ffff ffff ffff ffff ffff     ................
   1168c:	ffff ffff ffff fff7 def7 3dc7 9d7e fc3d     ...........=~.=.
   1169c:	5b15 1b05 3c05 7d05 7e05 7e05 5d05 7d05     .[...<.}.~.~.].}
   116ac:	bd2d ffe7 ffff ffff dfff dc45 1d05 3e05     -.........E....>
   116bc:	5d05 5d05 5d05 5d05 5d05 5d05 5d05 5d05     .].].].].].].].]
   116cc:	5d05 5d05 5d05 5d05 5d05 5d05 5d05 5d05     .].].].].].].].]
   116dc:	5d05 5d05 5d05 5d05 5d05 5d05 5d05 5d05     .].].].].].].].]
   116ec:	5d05 5d05 5d05 5d05 5d05 5d05 5d05 5d05     .].].].].].].].]
   116fc:	5d05 5d05 5d05 5d05 7d05 5e05 5e05 7e05     .].].].].}.^.^.~
   1170c:	3b05 bd96 ffff feff feff ffff fff7 ffff     .;..............
   1171c:	ffff ffff ffff fff7 fff7 feff feff ffef     ................
   1172c:	feff ffff ffff dfff ffff ffff ffff ffff     ................
   1173c:	ffff ffff ffff ffff ffff ffff ffff ffff     ................
   1174c:	ffff ffff ffff fff7 ffff dfff deff fdff     ................
   1175c:	deff feff ffff fff7 7dcf bc8e db45 3a15     .........}..E..:
   1176c:	1e05 3e05 5e05 7e05 bd2d dfe7 ffff feff     ...>.^.~-.......
   1177c:	dff7 dc2d 1e05 3e05 5d05 5d05 5d05 5d05     ..-....>.].].].]
   1178c:	5d05 5d05 5d05 5d05 5d05 5d05 5d05 5d05     .].].].].].].].]
   1179c:	5d05 5d05 5d05 5d05 5d05 5d05 5d05 5d05     .].].].].].].].]
   117ac:	5d05 5d05 5d05 5d05 5d05 5d05 5d05 5d05     .].].].].].].].]
   117bc:	5d05 5d05 5d05 5d05 5d05 7e05 5e05 3d05     .].].].].].~.^.=
   117cc:	3c05 5e05 7e05 1b05 9c7e ffef ffff fff7     .<.^.~..~.......
   117dc:	fef7 ffff dfff ffff dfff ffff ffff ffff     ................
   117ec:	dfff ffff ffff fdff ffff ffff ffff ffff     ................
   117fc:	ffff ffff fff7 fff7 ffff ffff ffff ffff     ................
   1180c:	ffff ffff ffff ffff ffff ffff ffff ffff     ................
   1181c:	ffff ffff fff7 fff7 ffff fff7 ffff ffff     ................
   1182c:	ffff ffff dfef 9fdf bc96 fa4d 7a0d 5d05     ..........M..z.]
   1183c:	7c1d dfe7 ffff feff fff7 bc2d 1e05 3e05     .|........-....>
   1184c:	5d05 5d05 5d05 5d05 5d05 5d05 5d05 5d05     .].].].].].].].]
   1185c:	5d05 5d05 5d05 5d05 5d05 5d05 5d05 5d05     .].].].].].].].]
   1186c:	5d05 5d05 5d05 5d05 5d05 5d05 5d05 5d05     .].].].].].].].]
   1187c:	5d05 5d05 5d05 5d05 5d05 5d05 5d05 5d05     .].].].].].].].]
   1188c:	5d05 5e05 7e05 5d05 9f05 3d05 fa0c 3d5e     .].^.~.]...=..^=
   1189c:	ffef ffff dff7 fff7 ffff ffff ffff ffff     ................
   118ac:	ffff ffff ffff fdff ffef 9d9e 3fb7 ffff     .............?..
   118bc:	ffff ffff ffff ffff fff7 ffff ffff dfff     ................
   118cc:	ffff ffff ffff ffff ffff ffff ffff ffff     ................
   118dc:	fff7 ffff ffff ffff ffff ffff fff7 fff7     ................
   118ec:	ffff ffff ffff ffff ffff ffff dfff dfff     ................
   118fc:	ffff ffff 7fd7 dc96 5c15 becf dfff ffff     .........\......
   1190c:	ffff db4d 3d05 3e05 5d05 5d05 5d05 5d05     ..M..=.>.].].].]
   1191c:	5d05 5d05 5d05 5d05 5d05 5d05 5d05 5d05     .].].].].].].].]
   1192c:	5d05 5d05 5d05 5d05 5d05 5d05 5d05 5d05     .].].].].].].].]
   1193c:	5d05 5d05 5d05 5d05 5d05 5d05 5d05 5d05     .].].].].].].].]
   1194c:	5d05 5d05 5d05 5d05 5e0d 3c05 5c05 7d05     .].].].].^.<.\.}
   1195c:	5e05 1c05 db65 dfe7 dfff ffff def7 ffff     .^..e...........
   1196c:	ffff dff7 ffff ffff ffff fff7 ffff fff7     ................
   1197c:	bc86 fa0c 1b1d dc5d 3ebf dfe7 ffff feff     ......]..>......
   1198c:	deff ffff ffff dfff ffff ffff ffff ffff     ................
   1199c:	ffff ffff ffff ffff fff7 ffff ffff ffff     ................
   119ac:	ffff ffff ffff ffff ffff ffff ffff ffff     ................
   119bc:	ffff ffff fff7 fff7 ffff ffff ffff ffff     ................
   119cc:	3d0d 3daf ffff ffff ffff 7d86 3c05 3d05     .=.=.......}.<.=
   119dc:	5d05 5d05 5d05 5d05 5d05 5d05 5d05 5d05     .].].].].].].].]
   119ec:	5d05 5d05 5d05 5d05 5d05 5d05 5d05 5d05     .].].].].].].].]
   119fc:	5d05 5d05 5d05 5d05 5d05 5d05 5d05 5d05     .].].].].].].].]
   11a0c:	5d05 5d05 5d05 5d05 5d05 5d05 5d05 5d05     .].].].].].].].]
   11a1c:	3d0d 5d05 5d05 7d05 fa0c db5d bfe7 deff     .=.].].}..].....
   11a2c:	bfff fff7 ffff feff dfff ffff ffff ffff     ................
   11a3c:	ffff dfff dfff 1fb7 1a1d 3e05 7f05 fb04     ...........>....
   11a4c:	fc0c fd45 1d9f dee7 ffff ffff ffff ffff     ..E.............
   11a5c:	ffff ffff ffff ffff ffff ffff ffff ffff     ................
   11a6c:	ffff dfff dfff ffff ffff ffff ffff ffff     ................
   11a7c:	ffff ffff ffff ffff ffff ffff ffff ffff     ................
   11a8c:	feff ffff ffff ffff fd04 9b8e ffff fff7     ................
   11a9c:	feff 5fb7 5c05 5d05 5d05 5d05 5d05 5d05     ..._.\.].].].].]
   11aac:	5d05 5d05 5d05 5d05 5d05 5d05 5d05 5d05     .].].].].].].].]
   11abc:	5d05 5d05 5d05 5d05 5d05 5d05 5d05 5d05     .].].].].].].].]
   11acc:	5d05 5d05 5d05 5d05 5d05 5d05 5d05 5d05     .].].].].].].].]
   11adc:	5d05 5d05 5d05 5d05 7d05 5e05 7e05 fb04     .].].].].}.^.~..
   11aec:	1c66 dfe7 ffff ffff ffff fff7 fff7 deef     f...............
   11afc:	ffff ffff ffff ffff fff7 feff 7ebf 5a25     .............~%Z
   11b0c:	5e05 7f05 3d05 7d05 5d05 3c05 3b05 ba35     .^...=.}.].<.;5.
   11b1c:	dc96 dedf ffff ffff ffff ffff ffff ffff     ................
   11b2c:	ffff ffff ffff ffff ffff ffff ffff ffff     ................
   11b3c:	ffff fff7 ffff ffff ffff ffff ffff ffff     ................
   11b4c:	ffff ffff ffff dfff ffff ffff ffff ffff     ................
   11b5c:	5d05 db4d fff7 fdff feff bff7 db2d 3b05     .]M.........-..;
   11b6c:	7d05 7d05 7d05 7d05 7d05 5d05 5d05 5e05     .}.}.}.}.}.].].^
   11b7c:	5d05 5d05 5d05 5d05 5d05 5d05 5d05 5e05     .].].].].].].].^
   11b8c:	7d05 5d05 5d05 5e05 5e05 7e05 7d05 5d05     .}.].].^.^.~.}.]
   11b9c:	3d05 5e05 5d05 5e05 5d05 7e05 5d05 5d05     .=.^.].^.].~.].]
   11bac:	7e05 7f05 fc04 5c76 ffe7 feff ffff ffff     .~....v\........
   11bbc:	ffff fff7 ffff fef7 fff7 ffff ffff fff7     ................
   11bcc:	fdff 9fcf 7c35 fe04 5f05 5d05 7d05 1e0d     ....5|..._.].}..
   11bdc:	5d05 5d05 7c05 5c05 1c0d 5c35 5d8e 9fdf     .].].|.\..5\.]..
   11bec:	dfff ffff ffff ffff ffff ffff ffff ffff     ................
   11bfc:	ffff ffff ffff ffff fff7 fff7 ffff ffff     ................
   11c0c:	ffff ffff ffff ffff ffff ffff ffff ffff     ................
   11c1c:	ffff ffff ffff ffff 5e05 5b15 5fd7 ffff     .........^.[._..
   11c2c:	dfff ffff de9e 1c05 5e05 5d05 3d05 5e05     .........^.].=.^
   11c3c:	5e05 3d05 5e15 3d05 5d05 5d05 5d05 5d05     .^.=.^.=.].].].]
   11c4c:	5d05 5d05 5d05 5d05 5d05 5d05 5d05 5d05     .].].].].].].].]
   11c5c:	5d05 5d05 5d05 5d05 5e05 7d05 5d05 3d05     .].].].].^.}.].=
   11c6c:	3d05 5e05 5d05 7d05 3d05 1b25 be9e fff7     .=.^.].}.=%.....
   11c7c:	ffff ffff ffff ffff ffff dfff ffff fff7     ................
   11c8c:	ffff feff ffff dfff bfd7 9a45 1b05 7e0d     ..........E....~
   11c9c:	5d05 7e05 5d05 7d05 5e05 5d05 5d05 7e05     .].~.].}.^.].].~
   11cac:	5e05 3d05 3c05 7b1d 5d6e 7fbf ffff ffff     .^.=.<.{n]......
   11cbc:	ffff ffff ffff ffff fff7 ffff ffff ffff     ................
   11ccc:	ffff ffff ffff dfff ffff ffff ffff ffff     ................
   11cdc:	ffff ffff ffff ffff ffff ffff ffff ffff     ................
   11cec:	5d05 5b05 9b7e dfff ffff ffff ffff fd5d     .].[~.........].
   11cfc:	3d05 5d0d 3c05 3d05 3e0d 3d05 5d05 7d05     .=.].<.=.>.=.].}
   11d0c:	5d05 5d05 5d05 5d05 5d05 5d05 5d05 5d05     .].].].].].].].]
   11d1c:	5e05 3d05 5d05 5d05 5e05 5e05 5e05 7e05     .^.=.].].^.^.^.~
   11d2c:	7d05 5d05 5d05 5d05 3d05 7d05 5c05 3c05     .}.].].].=.}.\.<
   11d3c:	9a45 1eb7 dfff beff beff ffff dfff ffff     E...............
   11d4c:	dff7 ffff bff7 ffff ffff ffff dff7 bfe7     ................
   11d5c:	7d4d 5b05 7d05 5d0d 5d05 7d05 5d05 5d05     M}.[.}.].].}.].]
   11d6c:	7e05 5d05 5d05 5d05 7e05 7e05 7e05 5e05     .~.].].].~.~.~.^
   11d7c:	3d05 5c15 1c56 3dbf dfff ffff ffff ffff     .=.\V..=........
   11d8c:	ffff ffff ffff ffff ffff ffff ffff ffff     ................
   11d9c:	ffff ffff ffff ffff ffff ffff ffff ffff     ................
   11dac:	ffff ffff ffff ffff 5d05 7d05 bb25 bee7     .........].}%...
   11dbc:	ffff ffff feff bfdf db35 1b0d 3e05 5e0d     ........5....>.^
   11dcc:	5d05 7d05 5c05 7d05 5e05 5e05 5d05 5d05     .].}.\.}.^.^.].]
   11ddc:	5d05 5d05 5d05 5d05 3e0d 5d05 7d05 7d05     .].].].].>.].}.}
   11dec:	7d05 7e05 5e05 5e05 5d05 7d05 7d05 7e05     .}.~.^.^.].}.}.~
   11dfc:	5e05 1c05 1a1d 7c5e dfdf ffff deff ffff     .^....^|........
   11e0c:	fff7 feff feff dfff fff7 dfff ffff ffff     ................
   11e1c:	dff7 ffff bfd7 db45 fe04 5d05 7d05 3e05     ......E....].}.>
   11e2c:	5e05 5c05 7d05 3d0d 3c05 3d05 3e05 5e05     .^.\.}.=.<.=.>.^
   11e3c:	7d05 5d05 5c05 5c0d 9e05 5d05 3c0d 1c15     .}.].\.\...].<..
   11e4c:	9c45 dda6 dfef ffff ffff ffff ffff ffff     E...............
   11e5c:	ffff ffff ffff ffff ffff ffff ffff ffff     ................
   11e6c:	ffff ffff ffff ffff ffff ffff ffff ffff     ................
   11e7c:	5d05 3e05 1d05 bd86 dfff dfff ffff ffff     .].>............
   11e8c:	bddf 9a4d fd04 5e05 3d05 5e05 3e05 1c0d     ..M....^.=.^.>..
   11e9c:	5e05 5e05 5e05 5e05 5d05 5d05 5d05 5d05     .^.^.^.^.].].].]
   11eac:	5e05 7e05 7d05 5d05 5c05 3c05 5c05 5c05     .^.~.}.].\.<.\.\
   11ebc:	5e05 5e05 7e05 5d05 3b05 db45 fdae ffff     .^.^.~.].;E.....
   11ecc:	dfff ffff ffff fff7 ffff ffff ffff ffff     ................
   11edc:	ffff feff dfff ffff ffff 7fd7 db3d 3c05     ............=..<
   11eec:	9f05 1d05 3d05 5d05 7e05 3e05 5d05 3d0d     .....=.].~.>.].=
   11efc:	7d05 5d05 3e05 3e05 3e05 5d05 5d05 5d05     .}.].>.>.>.].].]
   11f0c:	5b05 7d05 5e05 5e05 3e05 fc0c 7b45 9c86     .[.}.^.^.>..E{..
   11f1c:	dddf fff7 ffff ffff ffff ffff ffff dff7     ................
   11f2c:	ffff ffff ffff ffff ffff ffff ffff ffff     ................
   11f3c:	ffff ffff ffff ffff 7d05 5e05 3e05 5c2d     .........}.^.>-\
   11f4c:	9fd7 ffff feff feef dfff 9fef 3b76 5c0d     ............v;.\
   11f5c:	5e05 5e05 5d05 7f05 5d05 5d05 5d05 5d05     .^.^.]...].].].]
   11f6c:	5d05 5d05 5d05 5d05 7d05 7d05 5d05 5e05     .].].].].}.}.].^
   11f7c:	5e05 7e05 7e05 5e05 5e05 3d05 3b05 bb35     .^.~.~.^.^.=.;5.
   11f8c:	dc96 ffef ffff 9fff ffff dff7 ffff ffff     ................
   11f9c:	dfff ffff ffff feff ffff ffff ffff feff     ................
   11fac:	3eb7 5c35 5e05 7d05 3d05 5d05 7e05 7d05     .>5\.^.}.=.].~.}
   11fbc:	5e05 5e05 3d05 7d05 7d05 5d05 5e05 5e05     .^.^.=.}.}.].^.^
   11fcc:	5e05 5d05 5d05 5d05 3e05 7d05 5c05 5d05     .^.].].].>.}.\.]
   11fdc:	7e05 3d05 1d05 3e05 9a2d 9d7e 9edf ffff     .~.=...>-.~.....
   11fec:	dfff ffff ffff ffff ffff ffff ffff ffff     ................
   11ffc:	ffff ffff ffff ffff ffff ffff ffff ffff     ................
   1200c:	7d05 5e05 7d05 1c05 3c5e ffef dcff ffff     .}.^.}..^<......
   1201c:	dfff ffff dff7 3ebf fb45 3b05 5d05 1c05     .......>E..;.]..
   1202c:	5d05 5d05 5d05 5d05 5d05 5e05 5e05 5e05     .].].].].].^.^.^
   1203c:	7d05 5d05 3d05 5e05 5e05 5e05 3d05 1d0d     .}.].=.^.^.^.=..
   1204c:	1915 db4d dda6 dfef beff beff ffff ffff     ..M.............
   1205c:	feff ffff ffff dfff ffff fff7 ffff dfff     ................
   1206c:	fff7 ffff fff7 dd96 3b1d 1e05 5e05 7d05     .........;...^.}
   1207c:	3d0d 5c05 7d05 7e05 3d05 5d05 7e05 7d05     .=.\.}.~.=.].~.}
   1208c:	3e0d 5d05 5d05 7d05 5c05 5d05 7d05 7d05     .>.].].}.\.].}.}
   1209c:	5e05 3e05 5e05 9e05 7d05 5d05 5e05 5e05     .^.>.^...}.].^.^
   120ac:	9d05 3c05 5c25 1d76 5ecf ffff ffff dff7     ...<%\v..^......
   120bc:	ffff ffff ffff ffff ffff ffff ffff ffff     ................
   120cc:	ffff ffff ffff ffff 3e05 5f05 5c05 7c05     .........>._.\.|
   120dc:	1c05 9b8e ffff bfff fff7 ffff ffff ffff     ................
   120ec:	dfff febe fc5d 9d25 5c05 5c05 5d05 5d05     ....].%..\.\.].]
   120fc:	5d05 5e05 5e05 5e05 3d05 1d05 fd04 1c05     .].^.^.^.=......
   1210c:	5b05 7b15 dc4d 5e76 5ecf fff7 feff feff     .[.{M.v^.^......
   1211c:	ffff fff7 ffff ffff ffff ffff ffff ffff     ................
   1212c:	ffff ffff ffff ffff feff ffef 7c66 1b05     ............f|..
   1213c:	3d05 5d05 5e0d 5e05 5d05 5e05 3d05 5e05     .=.].^.^.].^.=.^
   1214c:	3d05 7d0d 3d05 5d05 5d05 5d05 7d05 5d05     .=.}.=.].].].}.]
   1215c:	3e05 3e05 5e05 5d05 5d05 7d05 5c05 3d05     .>.>.^.].].}.\.=
   1216c:	5e05 5e05 5d05 5c05 3e05 5e05 5e05 1e05     .^.^.].\.>.^.^..
   1217c:	3d15 fd5d 3eb7 fff7 ffff ffff ffff ffff     .=]..>..........
   1218c:	ffff ffff ffff ffff ffff ffff ffff ffff     ................
   1219c:	5e05 7d05 5d05 7e0d 1c05 5a15 3e97 ffff     .^.}.].~...Z.>..
   121ac:	ffff ffff fff7 ffff ffff fff7 ffff 9ff7     ................
   121bc:	5dbf 9b96 3b6e dc4d bc3d bc35 9d2d bd2d     .]..n;M.=.5.-.-.
   121cc:	bb35 fc45 1b56 7c7e 1daf 9fd7 dff7 ffff     5.E.V.~|........
   121dc:	ffff ffff ffff ffff ffff ffff ffff ffff     ................
   121ec:	ffff dfff ffff ffff fff7 ffff ffff ffff     ................
   121fc:	3fc7 db45 5c05 3f05 3e0d 7c05 9c05 7d05     .?E..\.?.>.|...}
   1220c:	5d05 5d05 5d05 5d05 5d05 5d05 5d05 5d05     .].].].].].].].]
   1221c:	5d05 5d05 5d05 5d05 5d05 5d05 5d05 5d05     .].].].].].].].]
   1222c:	5d05 5d05 5d05 5d05 5d05 5d05 5d05 5d05     .].].].].].].].]
   1223c:	5d05 5e05 3e05 5e05 5e05 3c05 5c15 fe35     .].^.>.^.^.<.\5.
   1224c:	fdb6 dfe7 ffff ffff ffff ffff ffff ffff     ................
   1225c:	fff7 ffff ffff fff7 5d05 5d05 9e05 3d05     .........].]...=
   1226c:	7e05 5c05 1925 df8e ffff ffff dfff bfff     .~.\%...........
   1227c:	feff ffff dfff ffff dfff ffff ffff fff7     ................
   1228c:	fff7 dff7 def7 dff7 bfff dfff ffff ffff     ................
   1229c:	ffff ffff ffff ffff fff7 ffff ffff ffff     ................
   122ac:	fff7 ffff ffff ffff ffff ffff fff7 ffff     ................
   122bc:	ffff ffff dfdf 9a8e 1a1d 1b05 7e05 7e05     .............~.~
   122cc:	3d05 5c05 5c05 3d05 5d05 5d05 5d05 5d05     .=.\.\.=.].].].]
   122dc:	5d05 5d05 5d05 5d05 5d05 5d05 5d05 5d05     .].].].].].].].]
   122ec:	5d05 5d05 5d05 5d05 5d05 5d05 5d05 5d05     .].].].].].].].]
   122fc:	5d05 5d05 5d05 5d05 5d05 5e05 5e05 5e05     .].].].].].^.^.^
   1230c:	7e05 7d05 3c05 3c0d 3d05 bc45 bc9e bee7     .~.}.<.<.=E.....
   1231c:	ffff ffff ffff ffff ffff ffff ffff ffff     ................
   1232c:	5d05 7d05 7d05 3d05 5e05 7e05 3d05 1d15     .].}.}.=.^.~.=..
   1233c:	7b86 dfe7 ffff ffff ffff 9fff ffff fef7     .{..............
   1234c:	ffff fff7 ffff ffff deff ffff ffff ffff     ................
   1235c:	ffff ffff ffff ffff ffff ffff ffff ffff     ................
   1236c:	dfff ffff ffff ffff ffff ffff ffff ffff     ................
   1237c:	ffff ffff ffff dfff feff 1ca7 9a3d 1c0d     ............=...
   1238c:	7f05 5e05 7e05 5d05 5d05 7d05 5d05 5e05     ...^.~.].].}.].^
   1239c:	5d05 5d05 5d05 5d05 5d05 5d05 5d05 5d05     .].].].].].].].]
   123ac:	5d05 5d05 5d05 5d05 5d05 5d05 5d05 5d05     .].].].].].].].]
   123bc:	5d05 5d05 5d05 5d05 5d05 5d05 5d05 5d05     .].].].].].].].]
   123cc:	7d05 7d05 5d05 3d05 5d05 7e05 5d05 3d05     .}.}.].=.].~.].=
   123dc:	7e05 5d05 3c05 9c35 9d86 bfd7 ffff ffff     .~.].<5.........
   123ec:	dfff fff7 fff7 ffff 5d05 7e05 5d05 5d05     .........].~.].]
   123fc:	5d05 5d05 7e05 3e05 1b05 1b46 7ebf feff     .].].~.>..F..~..
   1240c:	fdff feff dfff dfff ffff ffff ffff ffff     ................
   1241c:	ffff ffff fff7 ffff ffff ffff ffff ffff     ................
   1242c:	ffff ffff ffff ffff feff ffff ffff ffff     ................
   1243c:	ffff dfff dfff ffff feff feff feef 3eb7     ...............>
   1244c:	fd55 1c05 5e05 5e05 7e05 3d05 5c05 5c05     U....^.^.~.=.\.\
   1245c:	7d05 5e05 3d05 7d05 5d05 5d05 5d05 5d05     .}.^.=.}.].].].]
   1246c:	5d05 5d05 5d05 5d05 5d05 5d05 5d05 5d05     .].].].].].].].]
   1247c:	5d05 5d05 5d05 5d05 5d05 5d05 5d05 5d05     .].].].].].].].]
   1248c:	5d05 5d05 5d05 5d05 5d05 5d05 5d05 5d05     .].].].].].].].]
   1249c:	5d05 5d05 5e05 7e05 5d05 5c05 5c05 3d05     .].].^.~.].\.\.=
   124ac:	5e05 7d1d 3c6e 7ecf feff ffff dfff ffff     .^.}n<.~........
   124bc:	7d05 5d05 5e05 5e05 5d0d 5c05 5c05 7e05     .}.].^.^.].\.\.~
   124cc:	1e0d fe04 5d1d bd7e bee7 feff ffff dfff     .....]~.........
   124dc:	ffff ffff ffff ffff ffff ffff feff feff     ................
   124ec:	ffff fff7 ffff ffff ffff ffff dfff dfff     ................
   124fc:	fff7 ffff ffff ffff ffff ffff ffff ffff     ................
   1250c:	dfe7 1e9f dd45 1c05 1d05 3e05 7e05 5e05     ....E......>.~.^
   1251c:	5d05 5d05 7d05 5d05 3d05 3d05 5e05 5e05     .].].}.].=.=.^.^
   1252c:	5d05 5d05 5d05 5d05 5d05 5d05 5d05 5d05     .].].].].].].].]
   1253c:	5d05 5d05 5d05 5d05 5d05 5d05 5d05 5d05     .].].].].].].].]
   1254c:	5d05 5d05 5d05 5d05 5d05 5d05 5d05 5d05     .].].].].].].].]
   1255c:	7e05 5d05 3d05 5d05 5d05 5d05 5d05 5d05     .~.].=.].].].].]
   1256c:	3c05 7d05 7d05 3d05 3d05 3d05 1c05 3c15     .<.}.}.=.=.=...<
   1257c:	1a66 5db7 ffff fdff 5d05 5d05 5e05 5e05     f..].....].].^.^
   1258c:	5d05 5e05 9e05 3d05 3e0d 5d05 1d05 dd04     .].^...=.>.]....
   1259c:	7d25 bd7e bed7 ffff ffff ffff ffff ffff     %}~.............
   125ac:	ffff ffff ffff ffff ffff ffff ffff ffff     ................
   125bc:	ffff ffff ffff ffff ffff ffff feff feff     ................
   125cc:	ffff ffef 3ebf 7b8e 7d2d fc0c 3d05 1e05     .....>.{-}...=..
   125dc:	5d05 9d05 5d05 5e0d 5d05 5e05 5e05 5e05     .]...].^.].^.^.^
   125ec:	5d05 7d05 7e05 3d05 5d05 5d05 5d05 5d05     .].}.~.=.].].].]
   125fc:	5d05 5d05 5d05 5d05 5d05 5d05 5d05 5d05     .].].].].].].].]
   1260c:	5d05 5d05 5d05 5d05 5d05 5d05 5d05 5d05     .].].].].].].].]
   1261c:	5d05 5d05 5d05 5d05 5e05 5e05 5e05 3d05     .].].].].^.^.^.=
   1262c:	3d05 5d05 5d05 5d05 5d0d 3d05 5d05 5d05     .=.].].].].=.].]
   1263c:	5d05 7d05 7e05 5e05 1f05 1c0d dc4d fda6     .].}.~.^....M...
   1264c:	5d05 5d05 7e05 7e05 5e05 5e05 5e05 7e05     .].].~.~.^.^.^.~
   1265c:	9d05 5e05 5d05 5d05 5e05 1d05 5b2d 5b6e     ...^.].].^..-[n[
   1266c:	3ec7 bfe7 fff7 ffff ffff ffff ffff dfff     .>..............
   1267c:	ffff ffff ffff ffff dfff ffff ffff ffff     ................
   1268c:	feff ffff dfef 1eb7 7c76 db3d 7b15 3b05     ........v|=..{.;
   1269c:	5e05 3d05 3d05 7e05 7d05 3d05 5e0d 5d05     .^.=.=.~.}.=.^.]
   126ac:	5e05 3e05 3e05 5e05 5d05 7d05 7d05 5e05     .^.>.>.^.].}.}.^
   126bc:	5d05 5d05 5d05 5d05 5d05 5d05 5d05 5d05     .].].].].].].].]
   126cc:	5d05 5d05 5d05 5d05 5d05 5d05 5d05 5d05     .].].].].].].].]
   126dc:	5d05 5d05 5d05 5d05 5d05 5d05 5d05 5d05     .].].].].].].].]
   126ec:	5d05 7e05 7e05 5e05 5d05 5d05 5d05 5d05     .].~.~.^.].].].]
   126fc:	5e05 5e05 7e05 9e05 5d05 3c05 5e0d 3e05     .^.^.~...].<.^.>
   1270c:	7d05 5d05 3c05 1d05 7e05 3d05 3d05 5d05     .}.].<...~.=.=.]
   1271c:	5d05 5e05 5d05 5d05 5c05 5d05 5e05 5e05     .].^.].].\.].^.^
   1272c:	5d05 5d05 5e05 3e05 1c05 7c2d fb55 7c8e     .].].^.>..-|U..|
   1273c:	1db7 7ec7 bfdf dfe7 ffef ffef ffef ffef     ...~............
   1274c:	dfe7 bed7 5dc7 fcb6 9e76 fc4d 5b2d 1c15     .....]..v.M.-[..
   1275c:	1d05 3e05 5e05 7e05 7d05 3d05 7e05 5d05     ...>.^.~.}.=.~.]
   1276c:	7d05 7d05 3d05 5e05 5c05 5d05 5d05 5d05     .}.}.=.^.\.].].]
   1277c:	7d05 5d05 5d05 5d05 5d05 5d05 5d05 5d05     .}.].].].].].].]
   1278c:	5d05 5d05 5d05 5d05 5d05 5d05 5d05 5d05     .].].].].].].].]
   1279c:	5d05 5d05 5d05 5d05 5d05 5d05 5d05 5d05     .].].].].].].].]
   127ac:	5d05 5d05 5d05 5d05 5d05 5d05 5d05 5d05     .].].].].].].].]
   127bc:	7e05 7e05 5d05 5d05 5d05 7d05 3d05 5d05     .~.~.].].].}.=.]
   127cc:	7e05 5e05 5d05 5d05 7d05 5d05 5e05 5e05     .~.^.].].}.].^.^
   127dc:	5d05 5d05 5d05 5d05 5d05 5d05 5d05 5d05     .].].].].].].].]
   127ec:	5d05 5d05 5d05 5d05 5d05 5d05 5d05 5d05     .].].].].].].].]
   127fc:	5d05 5d05 3c05 1c05 3c05 5c0d 7d15 9e1d     .].].<...<.\.}..
   1280c:	9c35 bc35 bc35 bc2d 7b25 5b15 3b0d 1b0d     5.5.5.-.%{.[.;..
   1281c:	3d05 5d05 5d05 5e05 7e05 7e05 7e05 5e05     .=.].].^.~.~.~.^
   1282c:	5d05 5d05 5d05 5d05 5d05 5d05 5d05 5d05     .].].].].].].].]
   1283c:	5d05 5d05 5d05 5d05 5d05 5d05 5d05 5d05     .].].].].].].].]
   1284c:	5d05 5d05 5d05 5d05 5d05 5d05 5d05 5d05     .].].].].].].].]
   1285c:	5d05 5d05 5d05 5d05 5d05 5d05 5d05 5d05     .].].].].].].].]
   1286c:	5d05 5d05 5d05 5d05 5d05 5d05 5d05 5d05     .].].].].].].].]
   1287c:	5d05 5d05 5d05 5d05 5d05 5d05 5d05 5d05     .].].].].].].].]
   1288c:	5d05 5d05 5d05 5d05 5d05 5d05 5d05 5d05     .].].].].].].].]
   1289c:	5d05 5d05 5d05 5d05 5d05 5d05 5d05 5d05     .].].].].].].].]
   128ac:	5d05 5d05 5d05 5d05 5d05 5d05 5d05 5d05     .].].].].].].].]
   128bc:	5d05 5d05 5d05 5d05 7e05 7e05 5d05 5d05     .].].].].~.~.].]
   128cc:	5d05 5d05 5d05 5d05 3d05 3d05 3d05 3d05     .].].].].=.=.=.=
   128dc:	3d05 3d05 5e05 5e05 5e05 5e05 7e05 7e05     .=.=.^.^.^.^.~.~
   128ec:	7e05 7e05 7e05 5e05 5d05 5d05 5d05 5d05     .~.~.~.^.].].].]
   128fc:	5d05 5d05 5d05 5d05 5d05 5d05 5d05 5d05     .].].].].].].].]
   1290c:	5d05 5d05 5d05 5d05 5d05 5d05 5d05 5d05     .].].].].].].].]
   1291c:	5d05 5d05 5d05 5d05 5d05 5d05 5d05 5d05     .].].].].].].].]
   1292c:	5d05 5d05 5d05 5d05 5d05 5d05 5d05 5d05     .].].].].].].].]
   1293c:	5d05 5d05 5d05 5d05 5d05 5d05 5d05 5d05     .].].].].].].].]
   1294c:	5d05 5d05 5d05 5d05 5d05 5d05 5d05 5d05     .].].].].].].].]
   1295c:	5d05 5d05 5d05 5d05 5d05 5d05 5d05 5d05     .].].].].].].].]
   1296c:	5d05 5d05 5d05 5d05 5d05 5d05 5d05 5d05     .].].].].].].].]
   1297c:	5d05 5d05 5d05 5d05 5d05 5d05 5d05 5d05     .].].].].].].].]
   1298c:	5d05 5e05 5d05 5e05 5e05 5d05 5d05 5d05     .].^.].^.^.].].]
   1299c:	5d05 5d05 5d05 5d05 5d05 5d05 5d05 5e05     .].].].].].].].^
   129ac:	5e05 5e05 5e05 5e05 5e05 5d05 5d05 5d05     .^.^.^.^.^.].].]
   129bc:	5d05 5d05 5d05 5d05 5d05 5d05 5d05 5d05     .].].].].].].].]
   129cc:	5d05 5d05 5d05 5d05 5d05 5d05 5d05 5d05     .].].].].].].].]
   129dc:	5d05 5d05 5d05 5d05 5d05 5d05 5d05 5d05     .].].].].].].].]
   129ec:	5d05 5d05 5d05 5d05 5d05 5d05 5d05 5d05     .].].].].].].].]
   129fc:	5d05 5d05 5d05 5d05 5d05 5d05 5d05 5d05     .].].].].].].].]
   12a0c:	5d05 5d05 5d05 5d05 5d05 5d05 5d05 5d05     .].].].].].].].]
   12a1c:	5d05 5d05 5d05 5d05 5d05 5d05 5d05 5d05     .].].].].].].].]
   12a2c:	5d05 5d05 5d05 5d05 5d05 5d05 5d05 5d05     .].].].].].].].]
   12a3c:	5d05 5d05 5d05 5d05 5d05 5d05 5d05 5d05     .].].].].].].].]
   12a4c:	5d05 5d05 5d05 5d05 5d05 5d05 5d05 5d05     .].].].].].].].]
   12a5c:	5d05 5e05 5e05 5e05 3d05 5d05 5d05 5d05     .].^.^.^.=.].].]
   12a6c:	5d05 5d05 5d05 5d05 5d05 5d05 5d05 5d05     .].].].].].].].]
   12a7c:	5d05 5d05 5d05 5d05 5d05 5d05 5d05 5d05     .].].].].].].].]
   12a8c:	5d05 5d05 5d05 5d05 5d05 5d05 5d05 5d05     .].].].].].].].]
   12a9c:	5d05 5d05 5d05 5d05 5d05 5d05 5d05 5d05     .].].].].].].].]
   12aac:	5d05 5d05 5d05 5d05 5d05 5d05 5d05 5d05     .].].].].].].].]
   12abc:	5d05 5d05 5d05 5d05 5d05 5d05 5d05 5d05     .].].].].].].].]
   12acc:	5d05 5d05 5d05 5d05 5d05 5d05 5d05 5d05     .].].].].].].].]
   12adc:	5d05 5d05 5d05 5d05 5d05 5d05 5d05 5d05     .].].].].].].].]
   12aec:	5d05 5d05 5d05 5d05 5d05 5d05 5d05 5d05     .].].].].].].].]
   12afc:	5d05 5d05 5d05 5d05 5d05 5d05 5d05 5d05     .].].].].].].].]
   12b0c:	5d05 5d05 5d05 5d05 5d05 5d05 5d05 5d05     .].].].].].].].]
   12b1c:	5d05 5d05 5d05 5d05 5d05 5d05 5d05 5d05     .].].].].].].].]
   12b2c:	5e05 5e05 5e05 5d05 5d05 5d05 7d05 7d05     .^.^.^.].].].}.}
   12b3c:	5d05 5d05 5d05 5d05 5e05 5e05 5d05 5d05     .].].].].^.^.].]
   12b4c:	5d05 5d05 5d05 5d05 5d05 5d05 5d05 5d05     .].].].].].].].]
   12b5c:	5d05 5d05 5d05 5d05 5d05 5d05 5d05 5d05     .].].].].].].].]
   12b6c:	5d05 5d05 5d05 5d05 5d05 5d05 5d05 5d05     .].].].].].].].]
   12b7c:	5d05 5d05 5d05 5d05 5d05 5d05 5d05 5d05     .].].].].].].].]
   12b8c:	5d05 5d05 5d05 5d05 5d05 5d05 5d05 5d05     .].].].].].].].]
   12b9c:	5d05 5d05 5d05 5d05 5d05 5d05 5d05 5d05     .].].].].].].].]
   12bac:	5d05 5d05 5d05 5d05 5d05 5d05 5d05 5d05     .].].].].].].].]
   12bbc:	5d05 5d05 5d05 5d05 5d05 5d05 5d05 5d05     .].].].].].].].]
   12bcc:	5d05 5d05 5d05 5d05 5d05 5d05 5d05 5d05     .].].].].].].].]
   12bdc:	5d05 5d05 5d05 5d05 5d05 5d05 5d05 5d05     .].].].].].].].]
   12bec:	5d05 5d05 5d05 5d05 5d05 3d05 3d05 3d05     .].].].].].=.=.=
   12bfc:	5d05 5d05 7d05 7d05 5d05 5d05 5e05 5e05     .].].}.}.].].^.^
   12c0c:	5e05 5e05 5d05 5d05 5d05 5d05 5d05 5d05     .^.^.].].].].].]
   12c1c:	5d05 5d05 5d05 5d05 5d05 5d05 5d05 5d05     .].].].].].].].]
   12c2c:	5d05 5d05 5d05 5d05 5d05 5d05 5d05 5d05     .].].].].].].].]
   12c3c:	5d05 5d05 5d05 5d05 5d05 5d05 5d05 5d05     .].].].].].].].]
   12c4c:	5d05 5d05 5d05 5d05 5d05 5d05 5d05 5d05     .].].].].].].].]
   12c5c:	5d05 5d05 5d05 5d05 5d05 5d05 5d05 5d05     .].].].].].].].]
   12c6c:	5d05 5d05 5d05 5d05 5d05 5d05 5d05 5d05     .].].].].].].].]
   12c7c:	5d05 5d05 5d05 5d05 5d05 5d05 5d05 5d05     .].].].].].].].]
   12c8c:	5d05 5d05 5d05 5d05 5d05 5d05 5d05 5d05     .].].].].].].].]
   12c9c:	5d05 5d05 5d05 5d05 5d05 5d05 5d05 5d05     .].].].].].].].]
   12cac:	7d05 5d05 5d05 5d05 5d05 5d05 5d05 5d05     .}.].].].].].].]
   12cbc:	5d05 5e05 5e05 5e05 5e05 5e05 5d05 5d05     .].^.^.^.^.^.].]
   12ccc:	5d05 5d05 5d05 5d05 5d05 5d05 5d05 5d05     .].].].].].].].]
   12cdc:	5d05 5d05 5d05 5d05 5d05 5d05 5d05 5d05     .].].].].].].].]
   12cec:	5d05 5d05 5d05 5d05 5d05 5d05 5d05 5d05     .].].].].].].].]
   12cfc:	5d05 5d05 5d05 5d05 5d05 5d05 5d05 5d05     .].].].].].].].]
   12d0c:	5d05 5d05 5d05 5d05 5d05 5d05 5d05 5d05     .].].].].].].].]
   12d1c:	5d05 5d05 5d05 5d05 5d05 5d05 5d05 5d05     .].].].].].].].]
   12d2c:	5d05 5d05 5d05 5d05 5d05 5d05 5d05 5d05     .].].].].].].].]
   12d3c:	5d05 5d05 5d05 5d05 5d05 5d05 5d05 5d05     .].].].].].].].]
   12d4c:	5d05 5d05 5d05 5d05 5d05 5d05 5d05 5d05     .].].].].].].].]
   12d5c:	5d05 5d05 5d05 5d05 5d05 5d05 5d05 5d05     .].].].].].].].]
   12d6c:	5d05 5d05 5d05 5d05 5d05 5d05 5e05 5e05     .].].].].].].^.^
   12d7c:	5e05 5d05 5d05 5d05 5d05 5d05 5d05 5d05     .^.].].].].].].]
   12d8c:	5e05 5e05 5d05 5e05 5d05 5d05 5d05 5d05     .^.^.].^.].].].]
   12d9c:	5d05 5d05 5e05 5e05 5d05 5d05 5d05 5d05     .].].^.^.].].].]
   12dac:	5d05 5d05 5d05 5d05 5d05 5d05 5d05 5d05     .].].].].].].].]
   12dbc:	5d05 5d05 5d05 5d05 5d05 5d05 5d05 5d05     .].].].].].].].]
   12dcc:	5d05 5d05 5d05 5d05 5d05 5d05 5d05 5d05     .].].].].].].].]
   12ddc:	5d05 5d05 5d05 5d05 5d05 5d05 5d05 5d05     .].].].].].].].]
   12dec:	5d05 5d05 5d05 5d05 5d05 5d05 5d05 5d05     .].].].].].].].]
   12dfc:	5d05 5d05 5d05 5d05 5d05 5d05 5d05 5d05     .].].].].].].].]
   12e0c:	5d05 5d05 5d05 5d05 5d05 5d05 5d05 5d05     .].].].].].].].]
   12e1c:	5d05 5d05 5d05 5d05 5d05 5d05 5d05 5d05     .].].].].].].].]
   12e2c:	5d05 5d05 5d05 5d05 5d05 5d05 5d05 5d05     .].].].].].].].]
   12e3c:	5d05 5d05 5d05 5d05 5d05 5d05 5d05 5d05     .].].].].].].].]
   12e4c:	5d05 5d05 5d05 5d05 5d05 5d05 5d05 5d05     .].].].].].].].]
   12e5c:	5d05 5d05 5d05 5d05 5d05 5d05 5d05 5d05     .].].].].].].].]
   12e6c:	5d05 5d05 5d05 5d05 5d05 5d05 5d05 5d05     .].].].].].].].]
   12e7c:	5d05 5d05 5d05 5d05 5d05 5d05 5d05 5d05     .].].].].].].].]
   12e8c:	5d05 5d05 5d05 5d05 5d05 5d05 5d05 5d05     .].].].].].].].]
   12e9c:	5d05 5d05 5d05 5d05 5d05 5d05 5d05 5d05     .].].].].].].].]
   12eac:	5d05 5d05 5d05 5d05 5d05 5d05 5d05 5d05     .].].].].].].].]
   12ebc:	5d05 5d05 5d05 5d05 5d05 5d05 5d05 5d05     .].].].].].].].]
   12ecc:	5d05 5d05 5d05 5d05 5d05 5d05 5d05 5d05     .].].].].].].].]
   12edc:	5d05 5d05 5d05 5d05 5d05 5d05 5d05 5d05     .].].].].].].].]
   12eec:	5d05 5d05 5d05 5d05 5d05 5d05 5d05 5d05     .].].].].].].].]
   12efc:	5d05 5d05 5d05 5d05 5d05 5d05 5d05 5d05     .].].].].].].].]
   12f0c:	5d05 5d05 5d05 5d05 5d05 5d05 5d05 5d05     .].].].].].].].]
   12f1c:	5d05 5d05 5d05 5d05 5d05 5d05 5d05 5d05     .].].].].].].].]
   12f2c:	5d05 5d05 5d05 5d05 5d05 5d05 5d05 5d05     .].].].].].].].]
   12f3c:	5d05 5d05 5d05 5d05 5d05 5d05 5d05 5d05     .].].].].].].].]
   12f4c:	5d05 5d05 5d05 5d05 5d05 5d05 5d05 5d05     .].].].].].].].]
   12f5c:	5d05 5d05 5d05 5d05 5d05 5d05 5d05 5d05     .].].].].].].].]
   12f6c:	5d05 5d05 5d05 5d05 5d05 5d05 5d05 5d05     .].].].].].].].]
   12f7c:	5d05 5d05 5d05 5d05 5d05 5d05 5d05 5d05     .].].].].].].].]
   12f8c:	5d05 5d05 5d05 5d05 5d05 5d05 5d05 5d05     .].].].].].].].]
   12f9c:	5d05 5d05 5d05 5d05 5d05 5d05 5d05 5d05     .].].].].].].].]
   12fac:	5d05 5d05 5d05 5d05 5d05 5d05 5d05 5d05     .].].].].].].].]
   12fbc:	5d05 5d05 5d05 5d05 5d05 5d05 5d05 5d05     .].].].].].].].]
   12fcc:	5d05 5d05 5d05 5d05 5d05 5d05 5d05 5d05     .].].].].].].].]
   12fdc:	5d05 5d05 5d05 5d05 5d05 5d05 5d05 5d05     .].].].].].].].]
   12fec:	5d05 5d05 5d05 5d05 5d05 5d05 5d05 5d05     .].].].].].].].]
   12ffc:	5d05 5d05 5d05 5d05 5d05 5d05 5d05 5d05     .].].].].].].].]
   1300c:	5d05 5d05 5d05 5d05 5d05 5d05 5d05 5d05     .].].].].].].].]
   1301c:	5d05 5d05 5d05 5d05 5d05 5d05 5d05 5d05     .].].].].].].].]
   1302c:	5d05 5d05 5d05 5d05 5d05 5d05 5d05 5d05     .].].].].].].].]
   1303c:	5d05 5d05 5d05 5d05 5d05 5d05 5d05 5d05     .].].].].].].].]
   1304c:	5d05 5d05 5d05 5d05 5d05 5d05 5d05 5d05     .].].].].].].].]
   1305c:	5d05 5d05 5d05 5d05 5d05 5d05 5d05 5d05     .].].].].].].].]
   1306c:	5d05 5d05 5d05 5d05 5d05 5d05 5d05 5d05     .].].].].].].].]
   1307c:	5d05 5d05 5d05 5d05 5d05 5d05 5d05 5d05     .].].].].].].].]
   1308c:	5d05 5d05 5d05 5d05 5d05 5d05 5d05 5d05     .].].].].].].].]
   1309c:	5d05 5d05 5d05 5d05 5d05 5d05 5d05 5d05     .].].].].].].].]
   130ac:	5d05 5d05 5d05 5d05 5d05 5d05 5d05 5d05     .].].].].].].].]
   130bc:	5d05 5d05 5d05 5d05 5d05 5d05 5d05 5d05     .].].].].].].].]
   130cc:	5d05 5d05 5d05 5d05 5d05 5d05 5d05 5d05     .].].].].].].].]
   130dc:	5d05 5d05 5d05 5d05 5d05 5d05 5d05 5d05     .].].].].].].].]
   130ec:	5d05 5d05 5d05 5d05 5d05 5d05 5d05 5d05     .].].].].].].].]
   130fc:	5d05 5d05 5d05 5d05 5d05 5d05 5d05 5d05     .].].].].].].].]
   1310c:	5d05 5d05 5d05 5d05 5d05 5d05 5d05 5d05     .].].].].].].].]
   1311c:	5d05 5d05 5d05 5d05 5d05 5d05 5d05 5d05     .].].].].].].].]
   1312c:	5d05 5d05 5d05 5d05 5d05 5d05 5d05 5d05     .].].].].].].].]
   1313c:	05a6 ffff 0602 ffff 065a ffff 06b2 ffff     ........Z.......
   1314c:	06ec ffff 0750 ffff 07ac ffff 0804 ffff     ....P...........
   1315c:	085c ffff 0896 ffff                         \.......

00013164 <TPX>:
   13164:	0003 0009                                   ....
